ARM GAS  /tmp/cccgveo4.s 			page 1


   1              		.syntax unified
   2              		.cpu cortex-m4
   3              		.fpu softvfp
   4              		.eabi_attribute 20, 1
   5              		.eabi_attribute 21, 1
   6              		.eabi_attribute 23, 3
   7              		.eabi_attribute 24, 1
   8              		.eabi_attribute 25, 1
   9              		.eabi_attribute 26, 1
  10              		.eabi_attribute 30, 2
  11              		.eabi_attribute 34, 1
  12              		.eabi_attribute 18, 4
  13              		.thumb
  14              		.file	"adc.c"
  15              		.text
  16              	.Ltext0:
  17              		.cfi_sections	.debug_frame
  18              		.section	.text.adcInit,"ax",%progbits
  19              		.align	2
  20              		.p2align 4,,15
  21              		.global	adcInit
  22              		.thumb
  23              		.thumb_func
  24              		.type	adcInit, %function
  25              	adcInit:
  26              	.LFB118:
  27              		.file 1 "/home/felix/Documents/ChibiOS/os/hal/src/adc.c"
  28              		.loc 1 68 0
  29              		.cfi_startproc
  30              		@ args = 0, pretend = 0, frame = 0
  31              		@ frame_needed = 0, uses_anonymous_args = 0
  32              		@ link register save eliminated.
  33              		.loc 1 71 0
  34              		.loc 1 70 0
  35 0000 FFF7FEBF 		b	adc_lld_init
  36              	.LVL0:
  37              		.cfi_endproc
  38              	.LFE118:
  39              		.size	adcInit, .-adcInit
  40 0004 AFF30080 		.section	.text.adcObjectInit,"ax",%progbits
  40      AFF30080 
  40      AFF30080 
  41              		.align	2
  42              		.p2align 4,,15
  43              		.global	adcObjectInit
  44              		.thumb
  45              		.thumb_func
  46              		.type	adcObjectInit, %function
  47              	adcObjectInit:
  48              	.LFB119:
  49              		.loc 1 80 0
  50              		.cfi_startproc
  51              		@ args = 0, pretend = 0, frame = 0
  52              		@ frame_needed = 0, uses_anonymous_args = 0
  53              		@ link register save eliminated.
  54              	.LVL1:
  55              		.loc 1 83 0
ARM GAS  /tmp/cccgveo4.s 			page 2


  56 0000 0023     		movs	r3, #0
  57              		.loc 1 82 0
  58 0002 0122     		movs	r2, #1
  59 0004 0270     		strb	r2, [r0, #0]
  60              		.loc 1 83 0
  61 0006 4360     		str	r3, [r0, #4]
  62              		.loc 1 84 0
  63 0008 8360     		str	r3, [r0, #8]
  64              		.loc 1 85 0
  65 000a C360     		str	r3, [r0, #12]
  66              		.loc 1 86 0
  67 000c 0361     		str	r3, [r0, #16]
  68              		.loc 1 88 0
  69 000e 4361     		str	r3, [r0, #20]
  70              		.loc 1 92 0
  71 0010 1830     		adds	r0, r0, #24
  72              	.LVL2:
  73              		.loc 1 100 0
  74              		.loc 1 92 0
  75 0012 FFF7FEBF 		b	chMtxInit
  76              	.LVL3:
  77              		.cfi_endproc
  78              	.LFE119:
  79              		.size	adcObjectInit, .-adcObjectInit
  80 0016 00BFAFF3 		.section	.text.adcStart,"ax",%progbits
  80      0080AFF3 
  80      0080
  81              		.align	2
  82              		.p2align 4,,15
  83              		.global	adcStart
  84              		.thumb
  85              		.thumb_func
  86              		.type	adcStart, %function
  87              	adcStart:
  88              	.LFB120:
  89              		.loc 1 111 0
  90              		.cfi_startproc
  91              		@ args = 0, pretend = 0, frame = 0
  92              		@ frame_needed = 0, uses_anonymous_args = 0
  93              	.LVL4:
  94 0000 10B5     		push	{r4, lr}
  95              	.LCFI0:
  96              		.cfi_def_cfa_offset 8
  97              		.cfi_offset 4, -8
  98              		.cfi_offset 14, -4
  99              	.LBB10:
 100              		.loc 1 115 0
 101 0002 2023     		movs	r3, #32
 102              	.LVL5:
 103              	.LBE10:
 104              		.loc 1 111 0
 105 0004 0446     		mov	r4, r0
 106              	.LBB11:
 107              		.loc 1 115 0
 108              	@ 115 "/home/felix/Documents/ChibiOS/os/hal/src/adc.c" 1
 109 0006 83F31188 		msr     BASEPRI, r3
 110              	@ 0 "" 2
ARM GAS  /tmp/cccgveo4.s 			page 3


 111              	.LVL6:
 112              		.thumb
 113              	.LBE11:
 114              		.loc 1 118 0
 115 000a 4160     		str	r1, [r0, #4]
 116              		.loc 1 119 0
 117 000c FFF7FEFF 		bl	adc_lld_start
 118              	.LVL7:
 119              		.loc 1 120 0
 120 0010 0223     		movs	r3, #2
 121 0012 2370     		strb	r3, [r4, #0]
 122              	.LBB12:
 123              		.loc 1 121 0
 124 0014 0023     		movs	r3, #0
 125              	.LVL8:
 126              	@ 121 "/home/felix/Documents/ChibiOS/os/hal/src/adc.c" 1
 127 0016 83F31188 		msr     BASEPRI, r3
 128              	@ 0 "" 2
 129              	.LVL9:
 130              		.thumb
 131 001a 10BD     		pop	{r4, pc}
 132              	.LBE12:
 133              		.cfi_endproc
 134              	.LFE120:
 135              		.size	adcStart, .-adcStart
 136 001c AFF30080 		.section	.text.adcStop,"ax",%progbits
 137              		.align	2
 138              		.p2align 4,,15
 139              		.global	adcStop
 140              		.thumb
 141              		.thumb_func
 142              		.type	adcStop, %function
 143              	adcStop:
 144              	.LFB121:
 145              		.loc 1 131 0
 146              		.cfi_startproc
 147              		@ args = 0, pretend = 0, frame = 0
 148              		@ frame_needed = 0, uses_anonymous_args = 0
 149              	.LVL10:
 150 0000 10B5     		push	{r4, lr}
 151              	.LCFI1:
 152              		.cfi_def_cfa_offset 8
 153              		.cfi_offset 4, -8
 154              		.cfi_offset 14, -4
 155              	.LBB13:
 156              		.loc 1 135 0
 157 0002 2023     		movs	r3, #32
 158              	.LVL11:
 159              	.LBE13:
 160              		.loc 1 131 0
 161 0004 0446     		mov	r4, r0
 162              	.LBB14:
 163              		.loc 1 135 0
 164              	@ 135 "/home/felix/Documents/ChibiOS/os/hal/src/adc.c" 1
 165 0006 83F31188 		msr     BASEPRI, r3
 166              	@ 0 "" 2
 167              	.LVL12:
ARM GAS  /tmp/cccgveo4.s 			page 4


 168              		.thumb
 169              	.LBE14:
 170              		.loc 1 138 0
 171 000a FFF7FEFF 		bl	adc_lld_stop
 172              	.LVL13:
 173              		.loc 1 139 0
 174 000e 0123     		movs	r3, #1
 175 0010 2370     		strb	r3, [r4, #0]
 176              	.LBB15:
 177              		.loc 1 140 0
 178 0012 0023     		movs	r3, #0
 179              	.LVL14:
 180              	@ 140 "/home/felix/Documents/ChibiOS/os/hal/src/adc.c" 1
 181 0014 83F31188 		msr     BASEPRI, r3
 182              	@ 0 "" 2
 183              	.LVL15:
 184              		.thumb
 185 0018 10BD     		pop	{r4, pc}
 186              	.LBE15:
 187              		.cfi_endproc
 188              	.LFE121:
 189              		.size	adcStop, .-adcStop
 190 001a 00BFAFF3 		.section	.text.adcStartConversion,"ax",%progbits
 190      0080
 191              		.align	2
 192              		.p2align 4,,15
 193              		.global	adcStartConversion
 194              		.thumb
 195              		.thumb_func
 196              		.type	adcStartConversion, %function
 197              	adcStartConversion:
 198              	.LFB122:
 199              		.loc 1 162 0
 200              		.cfi_startproc
 201              		@ args = 0, pretend = 0, frame = 0
 202              		@ frame_needed = 0, uses_anonymous_args = 0
 203              	.LVL16:
 204 0000 38B5     		push	{r3, r4, r5, lr}
 205              	.LCFI2:
 206              		.cfi_def_cfa_offset 16
 207              		.cfi_offset 3, -16
 208              		.cfi_offset 4, -12
 209              		.cfi_offset 5, -8
 210              		.cfi_offset 14, -4
 211              		.loc 1 162 0
 212 0002 1D46     		mov	r5, r3
 213 0004 0446     		mov	r4, r0
 214              	.LBB16:
 215              		.loc 1 164 0
 216 0006 2023     		movs	r3, #32
 217              	.LVL17:
 218              	@ 164 "/home/felix/Documents/ChibiOS/os/hal/src/adc.c" 1
 219 0008 83F31188 		msr     BASEPRI, r3
 220              	@ 0 "" 2
 221              	.LVL18:
 222              		.thumb
 223              	.LBE16:
ARM GAS  /tmp/cccgveo4.s 			page 5


 224              	.LBB17:
 225              	.LBB18:
 226              		.loc 1 204 0
 227 000c 0323     		movs	r3, #3
 228              	.LVL19:
 229 000e 0370     		strb	r3, [r0, #0]
 230              		.loc 1 201 0
 231 0010 8260     		str	r2, [r0, #8]
 232              		.loc 1 202 0
 233 0012 C560     		str	r5, [r0, #12]
 234              		.loc 1 203 0
 235 0014 0161     		str	r1, [r0, #16]
 236              		.loc 1 205 0
 237 0016 FFF7FEFF 		bl	adc_lld_start_conversion
 238              	.LVL20:
 239              	.LBE18:
 240              	.LBE17:
 241              	.LBB19:
 242              		.loc 1 166 0
 243 001a 0023     		movs	r3, #0
 244              	.LVL21:
 245              	@ 166 "/home/felix/Documents/ChibiOS/os/hal/src/adc.c" 1
 246 001c 83F31188 		msr     BASEPRI, r3
 247              	@ 0 "" 2
 248              	.LVL22:
 249              		.thumb
 250 0020 38BD     		pop	{r3, r4, r5, pc}
 251              	.LBE19:
 252              		.cfi_endproc
 253              	.LFE122:
 254              		.size	adcStartConversion, .-adcStartConversion
 255 0022 00BFAFF3 		.section	.text.adcStartConversionI,"ax",%progbits
 255      0080AFF3 
 255      0080AFF3 
 255      0080
 256              		.align	2
 257              		.p2align 4,,15
 258              		.global	adcStartConversionI
 259              		.thumb
 260              		.thumb_func
 261              		.type	adcStartConversionI, %function
 262              	adcStartConversionI:
 263              	.LFB123:
 264              		.loc 1 190 0
 265              		.cfi_startproc
 266              		@ args = 0, pretend = 0, frame = 0
 267              		@ frame_needed = 0, uses_anonymous_args = 0
 268              		@ link register save eliminated.
 269              	.LVL23:
 270 0000 30B4     		push	{r4, r5}
 271              	.LCFI3:
 272              		.cfi_def_cfa_offset 8
 273              		.cfi_offset 4, -8
 274              		.cfi_offset 5, -4
 275              		.loc 1 204 0
 276 0002 0325     		movs	r5, #3
 277              		.loc 1 190 0
ARM GAS  /tmp/cccgveo4.s 			page 6


 278 0004 0446     		mov	r4, r0
 279              		.loc 1 201 0
 280 0006 8260     		str	r2, [r0, #8]
 281              		.loc 1 202 0
 282 0008 C360     		str	r3, [r0, #12]
 283              		.loc 1 203 0
 284 000a 0161     		str	r1, [r0, #16]
 285              		.loc 1 204 0
 286 000c 0570     		strb	r5, [r0, #0]
 287              		.loc 1 206 0
 288 000e 30BC     		pop	{r4, r5}
 289              		.loc 1 205 0
 290 0010 FFF7FEBF 		b	adc_lld_start_conversion
 291              	.LVL24:
 292              		.cfi_endproc
 293              	.LFE123:
 294              		.size	adcStartConversionI, .-adcStartConversionI
 295 0014 AFF30080 		.section	.text.adcStopConversion,"ax",%progbits
 295      AFF30080 
 295      AFF30080 
 296              		.align	2
 297              		.p2align 4,,15
 298              		.global	adcStopConversion
 299              		.thumb
 300              		.thumb_func
 301              		.type	adcStopConversion, %function
 302              	adcStopConversion:
 303              	.LFB124:
 304              		.loc 1 218 0
 305              		.cfi_startproc
 306              		@ args = 0, pretend = 0, frame = 0
 307              		@ frame_needed = 0, uses_anonymous_args = 0
 308              	.LVL25:
 309 0000 10B5     		push	{r4, lr}
 310              	.LCFI4:
 311              		.cfi_def_cfa_offset 8
 312              		.cfi_offset 4, -8
 313              		.cfi_offset 14, -4
 314              	.LBB20:
 315              		.loc 1 222 0
 316 0002 2023     		movs	r3, #32
 317              	.LVL26:
 318              	.LBE20:
 319              		.loc 1 218 0
 320 0004 0446     		mov	r4, r0
 321              	.LBB21:
 322              		.loc 1 222 0
 323              	@ 222 "/home/felix/Documents/ChibiOS/os/hal/src/adc.c" 1
 324 0006 83F31188 		msr     BASEPRI, r3
 325              	@ 0 "" 2
 326              	.LVL27:
 327              		.thumb
 328              	.LBE21:
 329              		.loc 1 226 0
 330 000a 0378     		ldrb	r3, [r0, #0]	@ zero_extendqisi2
 331              	.LVL28:
 332 000c 022B     		cmp	r3, #2
ARM GAS  /tmp/cccgveo4.s 			page 7


 333 000e 0CD0     		beq	.L9
 334              		.loc 1 227 0
 335 0010 FFF7FEFF 		bl	adc_lld_stop_conversion
 336              	.LVL29:
 337              		.loc 1 230 0
 338 0014 6069     		ldr	r0, [r4, #20]
 339              		.loc 1 228 0
 340 0016 0023     		movs	r3, #0
 341              		.loc 1 229 0
 342 0018 0222     		movs	r2, #2
 343              		.loc 1 228 0
 344 001a 2361     		str	r3, [r4, #16]
 345              		.loc 1 229 0
 346 001c 2270     		strb	r2, [r4, #0]
 347              		.loc 1 230 0
 348 001e 20B1     		cbz	r0, .L9
 349              	.LVL30:
 350              	.LBB22:
 351              		.loc 1 230 0 is_stmt 0 discriminator 1
 352 0020 6361     		str	r3, [r4, #20]
 353 0022 6FF00101 		mvn	r1, #1
 354 0026 FFF7FEFF 		bl	chSchWakeupS
 355              	.LVL31:
 356              	.L9:
 357              	.LBE22:
 358              	.LBB23:
 359              		.loc 1 232 0 is_stmt 1
 360 002a 0023     		movs	r3, #0
 361              	.LVL32:
 362              	@ 232 "/home/felix/Documents/ChibiOS/os/hal/src/adc.c" 1
 363 002c 83F31188 		msr     BASEPRI, r3
 364              	@ 0 "" 2
 365              	.LVL33:
 366              		.thumb
 367 0030 10BD     		pop	{r4, pc}
 368              	.LBE23:
 369              		.cfi_endproc
 370              	.LFE124:
 371              		.size	adcStopConversion, .-adcStopConversion
 372 0032 00BFAFF3 		.section	.text.adcStopConversionI,"ax",%progbits
 372      0080AFF3 
 372      0080AFF3 
 372      0080
 373              		.align	2
 374              		.p2align 4,,15
 375              		.global	adcStopConversionI
 376              		.thumb
 377              		.thumb_func
 378              		.type	adcStopConversionI, %function
 379              	adcStopConversionI:
 380              	.LFB125:
 381              		.loc 1 245 0
 382              		.cfi_startproc
 383              		@ args = 0, pretend = 0, frame = 0
 384              		@ frame_needed = 0, uses_anonymous_args = 0
 385              	.LVL34:
 386              		.loc 1 254 0
ARM GAS  /tmp/cccgveo4.s 			page 8


 387 0000 0378     		ldrb	r3, [r0, #0]	@ zero_extendqisi2
 388 0002 022B     		cmp	r3, #2
 389              		.loc 1 245 0
 390 0004 10B5     		push	{r4, lr}
 391              	.LCFI5:
 392              		.cfi_def_cfa_offset 8
 393              		.cfi_offset 4, -8
 394              		.cfi_offset 14, -4
 395              		.loc 1 245 0
 396 0006 0446     		mov	r4, r0
 397              		.loc 1 254 0
 398 0008 10D0     		beq	.L15
 399              		.loc 1 255 0
 400 000a FFF7FEFF 		bl	adc_lld_stop_conversion
 401              	.LVL35:
 402              		.loc 1 258 0
 403 000e 6369     		ldr	r3, [r4, #20]
 404              		.loc 1 256 0
 405 0010 0022     		movs	r2, #0
 406              		.loc 1 257 0
 407 0012 0221     		movs	r1, #2
 408              		.loc 1 256 0
 409 0014 2261     		str	r2, [r4, #16]
 410              		.loc 1 257 0
 411 0016 2170     		strb	r1, [r4, #0]
 412              		.loc 1 258 0
 413 0018 43B1     		cbz	r3, .L15
 414              	.LVL36:
 415              	.LBB24:
 416              		.loc 1 258 0 is_stmt 0 discriminator 1
 417 001a 6FF00101 		mvn	r1, #1
 418 001e 1846     		mov	r0, r3
 419 0020 6261     		str	r2, [r4, #20]
 420 0022 5962     		str	r1, [r3, #36]
 421              	.LBE24:
 422              		.loc 1 260 0 is_stmt 1 discriminator 1
 423 0024 BDE81040 		pop	{r4, lr}
 424              	.LBB25:
 425              		.loc 1 258 0 discriminator 1
 426 0028 FFF7FEBF 		b	chSchReadyI
 427              	.LVL37:
 428              	.L15:
 429 002c 10BD     		pop	{r4, pc}
 430              	.LBE25:
 431              		.cfi_endproc
 432              	.LFE125:
 433              		.size	adcStopConversionI, .-adcStopConversionI
 434 002e 00BF     		.section	.text.adcConvert,"ax",%progbits
 435              		.align	2
 436              		.p2align 4,,15
 437              		.global	adcConvert
 438              		.thumb
 439              		.thumb_func
 440              		.type	adcConvert, %function
 441              	adcConvert:
 442              	.LFB126:
 443              		.loc 1 289 0
ARM GAS  /tmp/cccgveo4.s 			page 9


 444              		.cfi_startproc
 445              		@ args = 0, pretend = 0, frame = 0
 446              		@ frame_needed = 0, uses_anonymous_args = 0
 447              	.LVL38:
 448 0000 70B5     		push	{r4, r5, r6, lr}
 449              	.LCFI6:
 450              		.cfi_def_cfa_offset 16
 451              		.cfi_offset 4, -16
 452              		.cfi_offset 5, -12
 453              		.cfi_offset 6, -8
 454              		.cfi_offset 14, -4
 455              		.loc 1 289 0
 456 0002 1E46     		mov	r6, r3
 457 0004 0446     		mov	r4, r0
 458              	.LBB26:
 459              		.loc 1 292 0
 460 0006 2023     		movs	r3, #32
 461              	.LVL39:
 462              	@ 292 "/home/felix/Documents/ChibiOS/os/hal/src/adc.c" 1
 463 0008 83F31188 		msr     BASEPRI, r3
 464              	@ 0 "" 2
 465              	.LVL40:
 466              		.thumb
 467              	.LBE26:
 468              		.loc 1 295 0
 469 000c 40F20005 		movw	r5, #:lower16:rlist
 470              	.LBB27:
 471              	.LBB28:
 472              		.loc 1 204 0
 473 0010 0323     		movs	r3, #3
 474              	.LVL41:
 475              	.LBE28:
 476              	.LBE27:
 477              		.loc 1 295 0
 478 0012 C0F20005 		movt	r5, #:upper16:rlist
 479              	.LBB30:
 480              	.LBB29:
 481              		.loc 1 201 0
 482 0016 8260     		str	r2, [r0, #8]
 483              		.loc 1 203 0
 484 0018 0161     		str	r1, [r0, #16]
 485              		.loc 1 202 0
 486 001a C660     		str	r6, [r0, #12]
 487              		.loc 1 204 0
 488 001c 0370     		strb	r3, [r0, #0]
 489              		.loc 1 205 0
 490 001e FFF7FEFF 		bl	adc_lld_start_conversion
 491              	.LVL42:
 492              	.LBE29:
 493              	.LBE30:
 494              		.loc 1 295 0
 495 0022 AB69     		ldr	r3, [r5, #24]
 496              		.loc 1 296 0
 497 0024 0220     		movs	r0, #2
 498              		.loc 1 295 0
 499 0026 6361     		str	r3, [r4, #20]
 500              		.loc 1 296 0
ARM GAS  /tmp/cccgveo4.s 			page 10


 501 0028 FFF7FEFF 		bl	chSchGoSleepS
 502              	.LVL43:
 503              		.loc 1 297 0
 504 002c AA69     		ldr	r2, [r5, #24]
 505              	.LBB31:
 506              		.loc 1 298 0
 507 002e 0023     		movs	r3, #0
 508              	.LVL44:
 509              	.LBE31:
 510              		.loc 1 297 0
 511 0030 506A     		ldr	r0, [r2, #36]
 512              	.LVL45:
 513              	.LBB32:
 514              		.loc 1 298 0
 515              	@ 298 "/home/felix/Documents/ChibiOS/os/hal/src/adc.c" 1
 516 0032 83F31188 		msr     BASEPRI, r3
 517              	@ 0 "" 2
 518              	.LVL46:
 519              		.thumb
 520              	.LBE32:
 521              		.loc 1 300 0
 522 0036 70BD     		pop	{r4, r5, r6, pc}
 523              		.cfi_endproc
 524              	.LFE126:
 525              		.size	adcConvert, .-adcConvert
 526 0038 AFF30080 		.section	.text.adcAcquireBus,"ax",%progbits
 526      AFF30080 
 527              		.align	2
 528              		.p2align 4,,15
 529              		.global	adcAcquireBus
 530              		.thumb
 531              		.thumb_func
 532              		.type	adcAcquireBus, %function
 533              	adcAcquireBus:
 534              	.LFB127:
 535              		.loc 1 315 0
 536              		.cfi_startproc
 537              		@ args = 0, pretend = 0, frame = 0
 538              		@ frame_needed = 0, uses_anonymous_args = 0
 539              		@ link register save eliminated.
 540              	.LVL47:
 541              		.loc 1 320 0
 542 0000 1830     		adds	r0, r0, #24
 543              	.LVL48:
 544              		.loc 1 324 0
 545              		.loc 1 320 0
 546 0002 FFF7FEBF 		b	chMtxLock
 547              	.LVL49:
 548              		.cfi_endproc
 549              	.LFE127:
 550              		.size	adcAcquireBus, .-adcAcquireBus
 551 0006 00BFAFF3 		.section	.text.adcReleaseBus,"ax",%progbits
 551      0080AFF3 
 551      0080
 552              		.align	2
 553              		.p2align 4,,15
 554              		.global	adcReleaseBus
ARM GAS  /tmp/cccgveo4.s 			page 11


 555              		.thumb
 556              		.thumb_func
 557              		.type	adcReleaseBus, %function
 558              	adcReleaseBus:
 559              	.LFB128:
 560              		.loc 1 335 0
 561              		.cfi_startproc
 562              		@ args = 0, pretend = 0, frame = 0
 563              		@ frame_needed = 0, uses_anonymous_args = 0
 564              		@ link register save eliminated.
 565              	.LVL50:
 566              		.loc 1 345 0
 567              		.loc 1 341 0
 568 0000 FFF7FEBF 		b	chMtxUnlock
 569              	.LVL51:
 570              		.cfi_endproc
 571              	.LFE128:
 572              		.size	adcReleaseBus, .-adcReleaseBus
 573 0004 AFF30080 		.text
 573      AFF30080 
 573      AFF30080 
 574              	.Letext0:
 575              		.file 2 "/opt/tools_arm/lib/gcc/arm-none-eabi/4.7.3/include/stddef.h"
 576              		.file 3 "/opt/tools_arm/lib/gcc/arm-none-eabi/4.7.3/../../../../arm-none-eabi/include/stdint.h"
 577              		.file 4 "/home/felix/Documents/ChibiOS/os/ports/GCC/ARMCMx/chtypes.h"
 578              		.file 5 "/home/felix/Documents/ChibiOS/os/kernel/include/chlists.h"
 579              		.file 6 "/home/felix/Documents/ChibiOS/os/kernel/include/chthreads.h"
 580              		.file 7 "/home/felix/Documents/ChibiOS/os/ports/GCC/ARMCMx/chcore_v7m.h"
 581              		.file 8 "/home/felix/Documents/ChibiOS/os/kernel/include/chschd.h"
 582              		.file 9 "/home/felix/Documents/ChibiOS/os/kernel/include/chmtx.h"
 583              		.file 10 "/home/felix/Documents/ChibiOS/os/hal/platforms/STM32F4xx/stm32f4xx.h"
 584              		.file 11 "/home/felix/Documents/ChibiOS/os/hal/platforms/STM32F4xx/stm32_dma.h"
 585              		.file 12 "/home/felix/Documents/ChibiOS/os/hal/include/adc.h"
 586              		.file 13 "/home/felix/Documents/ChibiOS/os/hal/platforms/STM32F4xx/adc_lld.h"
 587              		.file 14 "/home/felix/Documents/ChibiOS/os/ports/common/ARMCMx/CMSIS/include/core_cm4.h"