ARM GAS  /tmp/ccFzS8Ux.s 			page 1


   1              		.syntax unified
   2              		.cpu cortex-m4
   3              		.fpu softvfp
   4              		.eabi_attribute 20, 1
   5              		.eabi_attribute 21, 1
   6              		.eabi_attribute 23, 3
   7              		.eabi_attribute 24, 1
   8              		.eabi_attribute 25, 1
   9              		.eabi_attribute 26, 1
  10              		.eabi_attribute 30, 2
  11              		.eabi_attribute 34, 1
  12              		.eabi_attribute 18, 4
  13              		.thumb
  14              		.file	"adc_lld.c"
  15              		.text
  16              	.Ltext0:
  17              		.cfi_sections	.debug_frame
  18              		.section	.text.adc_lld_init,"ax",%progbits
  19              		.align	2
  20              		.p2align 4,,15
  21              		.global	adc_lld_init
  22              		.thumb
  23              		.thumb_func
  24              		.type	adc_lld_init, %function
  25              	adc_lld_init:
  26              	.LFB120:
  27              		.file 1 "/home/felix/Documents/ChibiOS/os/hal/platforms/STM32F4xx/adc_lld.c"
  28              		.loc 1 171 0
  29              		.cfi_startproc
  30              		@ args = 0, pretend = 0, frame = 0
  31              		@ frame_needed = 0, uses_anonymous_args = 0
  32 0000 38B5     		push	{r3, r4, r5, lr}
  33              	.LCFI0:
  34              		.cfi_def_cfa_offset 16
  35              		.cfi_offset 3, -16
  36              		.cfi_offset 4, -12
  37              		.cfi_offset 5, -8
  38              		.cfi_offset 14, -4
  39              		.loc 1 175 0
  40 0002 40F20004 		movw	r4, #:lower16:.LANCHOR0
  41 0006 C0F20004 		movt	r4, #:upper16:.LANCHOR0
  42 000a 2046     		mov	r0, r4
  43 000c FFF7FEFF 		bl	adcObjectInit
  44              	.LVL0:
  45              		.loc 1 177 0
  46 0010 084D     		ldr	r5, .L2
  47              		.loc 1 176 0
  48 0012 4FF40052 		mov	r2, #8192
  49              		.loc 1 178 0
  50 0016 42F61643 		movw	r3, #11286
  51              		.loc 1 176 0
  52 001a C4F20102 		movt	r2, 16385
  53              		.loc 1 178 0
  54 001e C0F20203 		movt	r3, 2
  55              		.loc 1 214 0
  56 0022 1220     		movs	r0, #18
  57 0024 6021     		movs	r1, #96
ARM GAS  /tmp/ccFzS8Ux.s 			page 2


  58              		.loc 1 176 0
  59 0026 A262     		str	r2, [r4, #40]
  60              		.loc 1 177 0
  61 0028 E562     		str	r5, [r4, #44]
  62              		.loc 1 178 0
  63 002a 2363     		str	r3, [r4, #48]
  64              		.loc 1 215 0
  65 002c BDE83840 		pop	{r3, r4, r5, lr}
  66              		.loc 1 214 0
  67 0030 FFF7FEBF 		b	nvicEnableVector
  68              	.LVL1:
  69              	.L3:
  70              		.align	2
  71              	.L2:
  72 0034 90000000 		.word	_stm32_dma_streams+144
  73              		.cfi_endproc
  74              	.LFE120:
  75              		.size	adc_lld_init, .-adc_lld_init
  76 0038 AFF30080 		.section	.text.adc_lld_start,"ax",%progbits
  76      AFF30080 
  77              		.align	2
  78              		.p2align 4,,15
  79              		.global	adc_lld_start
  80              		.thumb
  81              		.thumb_func
  82              		.type	adc_lld_start, %function
  83              	adc_lld_start:
  84              	.LFB121:
  85              		.loc 1 224 0
  86              		.cfi_startproc
  87              		@ args = 0, pretend = 0, frame = 0
  88              		@ frame_needed = 0, uses_anonymous_args = 0
  89              	.LVL2:
  90              		.loc 1 227 0
  91 0000 0378     		ldrb	r3, [r0, #0]	@ zero_extendqisi2
  92 0002 012B     		cmp	r3, #1
  93              		.loc 1 224 0
  94 0004 10B5     		push	{r4, lr}
  95              	.LCFI1:
  96              		.cfi_def_cfa_offset 8
  97              		.cfi_offset 4, -8
  98              		.cfi_offset 14, -4
  99              		.loc 1 224 0
 100 0006 0446     		mov	r4, r0
 101              		.loc 1 227 0
 102 0008 00D0     		beq	.L8
 103 000a 10BD     		pop	{r4, pc}
 104              	.L8:
 105              		.loc 1 229 0
 106 000c 144B     		ldr	r3, .L10
 107 000e 9842     		cmp	r0, r3
 108 0010 10D0     		beq	.L9
 109              	.LVL3:
 110              	.L6:
 111              		.loc 1 269 0
 112 0012 4FF40C52 		mov	r2, #8960
 113 0016 C4F20102 		movt	r2, 16385
ARM GAS  /tmp/ccFzS8Ux.s 			page 3


 114              		.loc 1 274 0
 115 001a A36A     		ldr	r3, [r4, #40]
 116              		.loc 1 269 0
 117 001c 5468     		ldr	r4, [r2, #4]
 118              	.LVL4:
 119 001e 04F44004 		and	r4, r4, #12582912
 120              		.loc 1 274 0
 121 0022 0021     		movs	r1, #0
 122              		.loc 1 269 0
 123 0024 44F48034 		orr	r4, r4, #65536
 124              		.loc 1 276 0
 125 0028 0120     		movs	r0, #1
 126              		.loc 1 269 0
 127 002a 5460     		str	r4, [r2, #4]
 128              		.loc 1 274 0
 129 002c 5960     		str	r1, [r3, #4]
 130              		.loc 1 275 0
 131 002e 9960     		str	r1, [r3, #8]
 132              		.loc 1 276 0
 133 0030 9860     		str	r0, [r3, #8]
 134 0032 10BD     		pop	{r4, pc}
 135              	.LVL5:
 136              	.L9:
 137              	.LBB2:
 138              		.loc 1 231 0
 139 0034 0B4A     		ldr	r2, .L10+4
 140 0036 C06A     		ldr	r0, [r0, #44]
 141              	.LVL6:
 142 0038 0621     		movs	r1, #6
 143 003a 2346     		mov	r3, r4
 144 003c FFF7FEFF 		bl	dmaStreamAllocate
 145              	.LVL7:
 146              		.loc 1 236 0
 147 0040 E36A     		ldr	r3, [r4, #44]
 148 0042 42F24C02 		movw	r2, #8268
 149 0046 1968     		ldr	r1, [r3, #0]
 150              		.loc 1 237 0
 151 0048 4FF46053 		mov	r3, #14336
 152              		.loc 1 236 0
 153 004c C4F20102 		movt	r2, 16385
 154              		.loc 1 237 0
 155 0050 C4F20203 		movt	r3, 16386
 156              		.loc 1 236 0
 157 0054 8A60     		str	r2, [r1, #8]
 158              		.loc 1 237 0
 159 0056 5A6C     		ldr	r2, [r3, #68]
 160 0058 42F48072 		orr	r2, r2, #256
 161 005c 5A64     		str	r2, [r3, #68]
 162 005e D8E7     		b	.L6
 163              	.L11:
 164              		.align	2
 165              	.L10:
 166 0060 00000000 		.word	.LANCHOR0
 167 0064 00000000 		.word	adc_lld_serve_rx_interrupt
 168              	.LBE2:
 169              		.cfi_endproc
 170              	.LFE121:
ARM GAS  /tmp/ccFzS8Ux.s 			page 4


 171              		.size	adc_lld_start, .-adc_lld_start
 172 0068 AFF30080 		.section	.text.adc_lld_stop,"ax",%progbits
 172      AFF30080 
 173              		.align	2
 174              		.p2align 4,,15
 175              		.global	adc_lld_stop
 176              		.thumb
 177              		.thumb_func
 178              		.type	adc_lld_stop, %function
 179              	adc_lld_stop:
 180              	.LFB122:
 181              		.loc 1 287 0
 182              		.cfi_startproc
 183              		@ args = 0, pretend = 0, frame = 0
 184              		@ frame_needed = 0, uses_anonymous_args = 0
 185              	.LVL8:
 186              		.loc 1 290 0
 187 0000 0378     		ldrb	r3, [r0, #0]	@ zero_extendqisi2
 188 0002 022B     		cmp	r3, #2
 189              		.loc 1 287 0
 190 0004 10B5     		push	{r4, lr}
 191              	.LCFI2:
 192              		.cfi_def_cfa_offset 8
 193              		.cfi_offset 4, -8
 194              		.cfi_offset 14, -4
 195              		.loc 1 287 0
 196 0006 0446     		mov	r4, r0
 197              		.loc 1 290 0
 198 0008 00D0     		beq	.L16
 199 000a 10BD     		pop	{r4, pc}
 200              	.L16:
 201              		.loc 1 291 0
 202 000c C06A     		ldr	r0, [r0, #44]
 203              	.LVL9:
 204 000e FFF7FEFF 		bl	dmaStreamRelease
 205              	.LVL10:
 206              		.loc 1 296 0
 207 0012 0849     		ldr	r1, .L17
 208              		.loc 1 292 0
 209 0014 A36A     		ldr	r3, [r4, #40]
 210 0016 0022     		movs	r2, #0
 211              		.loc 1 296 0
 212 0018 8C42     		cmp	r4, r1
 213              		.loc 1 292 0
 214 001a 5A60     		str	r2, [r3, #4]
 215              		.loc 1 293 0
 216 001c 9A60     		str	r2, [r3, #8]
 217              		.loc 1 297 0
 218 001e 01BF     		itttt	eq
 219 0020 4FF46053 		moveq	r3, #14336
 220 0024 C4F20203 		movteq	r3, 16386
 221 0028 5A6C     		ldreq	r2, [r3, #68]
 222 002a 22F48072 		biceq	r2, r2, #256
 223 002e 08BF     		it	eq
 224 0030 5A64     		streq	r2, [r3, #68]
 225 0032 10BD     		pop	{r4, pc}
 226              	.L18:
ARM GAS  /tmp/ccFzS8Ux.s 			page 5


 227              		.align	2
 228              	.L17:
 229 0034 00000000 		.word	.LANCHOR0
 230              		.cfi_endproc
 231              	.LFE122:
 232              		.size	adc_lld_stop, .-adc_lld_stop
 233 0038 AFF30080 		.section	.text.adc_lld_start_conversion,"ax",%progbits
 233      AFF30080 
 234              		.align	2
 235              		.p2align 4,,15
 236              		.global	adc_lld_start_conversion
 237              		.thumb
 238              		.thumb_func
 239              		.type	adc_lld_start_conversion, %function
 240              	adc_lld_start_conversion:
 241              	.LFB123:
 242              		.loc 1 319 0
 243              		.cfi_startproc
 244              		@ args = 0, pretend = 0, frame = 0
 245              		@ frame_needed = 0, uses_anonymous_args = 0
 246              		@ link register save eliminated.
 247              	.LVL11:
 248              		.loc 1 321 0
 249 0000 0369     		ldr	r3, [r0, #16]
 250              	.LVL12:
 251              		.loc 1 324 0
 252 0002 026B     		ldr	r2, [r0, #48]
 253              	.LVL13:
 254              		.loc 1 325 0
 255 0004 1978     		ldrb	r1, [r3, #0]	@ zero_extendqisi2
 256              		.loc 1 319 0
 257 0006 2DE9F007 		push	{r4, r5, r6, r7, r8, r9, sl}
 258              	.LCFI3:
 259              		.cfi_def_cfa_offset 28
 260              		.cfi_offset 4, -28
 261              		.cfi_offset 5, -24
 262              		.cfi_offset 6, -20
 263              		.cfi_offset 7, -16
 264              		.cfi_offset 8, -12
 265              		.cfi_offset 9, -8
 266              		.cfi_offset 10, -4
 267              		.loc 1 325 0
 268 000a 09B1     		cbz	r1, .L20
 269              		.loc 1 326 0
 270 000c 42F48072 		orr	r2, r2, #256
 271              	.LVL14:
 272              	.L20:
 273              		.loc 1 328 0
 274 0010 C468     		ldr	r4, [r0, #12]
 275              		.loc 1 333 0
 276 0012 C16A     		ldr	r1, [r0, #44]
 277              		.loc 1 334 0
 278 0014 5E88     		ldrh	r6, [r3, #2]
 279              		.loc 1 333 0
 280 0016 8568     		ldr	r5, [r0, #8]
 281 0018 0968     		ldr	r1, [r1, #0]
 282              		.loc 1 349 0
ARM GAS  /tmp/ccFzS8Ux.s 			page 6


 283 001a D3F80CC0 		ldr	ip, [r3, #12]
 284              		.loc 1 341 0
 285 001e D3F81480 		ldr	r8, [r3, #20]
 286              		.loc 1 333 0
 287 0022 CD60     		str	r5, [r1, #12]
 288              		.loc 1 328 0
 289 0024 012C     		cmp	r4, #1
 290              		.loc 1 331 0
 291 0026 88BF     		it	hi
 292 0028 42F00802 		orrhi	r2, r2, #8
 293              	.LVL15:
 294              		.loc 1 334 0
 295 002c 04FB06F4 		mul	r4, r4, r6
 296 0030 4C60     		str	r4, [r1, #4]
 297              		.loc 1 342 0
 298 0032 9F69     		ldr	r7, [r3, #24]
 299              		.loc 1 336 0
 300 0034 0A60     		str	r2, [r1, #0]
 301              		.loc 1 343 0
 302 0036 DE69     		ldr	r6, [r3, #28]
 303              		.loc 1 344 0
 304 0038 1D6A     		ldr	r5, [r3, #32]
 305              		.loc 1 345 0
 306 003a 5C6A     		ldr	r4, [r3, #36]
 307              		.loc 1 350 0
 308 003c 1B69     		ldr	r3, [r3, #16]
 309              	.LVL16:
 310              		.loc 1 337 0
 311 003e D1F800A0 		ldr	sl, [r1, #0]
 312              		.loc 1 340 0
 313 0042 826A     		ldr	r2, [r0, #40]
 314              	.LVL17:
 315              		.loc 1 350 0
 316 0044 13F0804F 		tst	r3, #1073741824
 317              		.loc 1 349 0
 318 0048 4CF08060 		orr	r0, ip, #67108864
 319              	.LVL18:
 320              		.loc 1 352 0
 321 004c 43F44073 		orr	r3, r3, #768
 322              		.loc 1 337 0
 323 0050 4AF0010A 		orr	sl, sl, #1
 324              		.loc 1 340 0
 325 0054 4FF00009 		mov	r9, #0
 326              		.loc 1 349 0
 327 0058 40F48070 		orr	r0, r0, #256
 328              		.loc 1 352 0
 329 005c 14BF     		ite	ne
 330 005e 43F00303 		orrne	r3, r3, #3
 331              		.loc 1 355 0
 332 0062 43F00103 		orreq	r3, r3, #1
 333              		.loc 1 337 0
 334 0066 C1F800A0 		str	sl, [r1, #0]
 335              		.loc 1 340 0
 336 006a C2F80090 		str	r9, [r2, #0]
 337              		.loc 1 341 0
 338 006e C2F80C80 		str	r8, [r2, #12]
 339              		.loc 1 342 0
ARM GAS  /tmp/ccFzS8Ux.s 			page 7


 340 0072 1761     		str	r7, [r2, #16]
 341              		.loc 1 343 0
 342 0074 D662     		str	r6, [r2, #44]
 343              		.loc 1 344 0
 344 0076 1563     		str	r5, [r2, #48]
 345              		.loc 1 345 0
 346 0078 5463     		str	r4, [r2, #52]
 347              		.loc 1 349 0
 348 007a 5060     		str	r0, [r2, #4]
 349              		.loc 1 354 0
 350 007c 9360     		str	r3, [r2, #8]
 351              		.loc 1 356 0
 352 007e BDE8F007 		pop	{r4, r5, r6, r7, r8, r9, sl}
 353 0082 7047     		bx	lr
 354              		.cfi_endproc
 355              	.LFE123:
 356              		.size	adc_lld_start_conversion, .-adc_lld_start_conversion
 357 0084 AFF30080 		.section	.text.adc_lld_stop_conversion,"ax",%progbits
 357      AFF30080 
 357      AFF30080 
 358              		.align	2
 359              		.p2align 4,,15
 360              		.global	adc_lld_stop_conversion
 361              		.thumb
 362              		.thumb_func
 363              		.type	adc_lld_stop_conversion, %function
 364              	adc_lld_stop_conversion:
 365              	.LFB124:
 366              		.loc 1 365 0
 367              		.cfi_startproc
 368              		@ args = 0, pretend = 0, frame = 0
 369              		@ frame_needed = 0, uses_anonymous_args = 0
 370              		@ link register save eliminated.
 371              	.LVL19:
 372              		.loc 1 367 0
 373 0000 C16A     		ldr	r1, [r0, #44]
 374 0002 0A68     		ldr	r2, [r1, #0]
 375 0004 1368     		ldr	r3, [r2, #0]
 376 0006 23F01F03 		bic	r3, r3, #31
 377              		.loc 1 365 0
 378 000a 10B4     		push	{r4}
 379              	.LCFI4:
 380              		.cfi_def_cfa_offset 4
 381              		.cfi_offset 4, -4
 382              		.loc 1 367 0
 383 000c 1360     		str	r3, [r2, #0]
 384              	.L28:
 385              		.loc 1 367 0 is_stmt 0 discriminator 1
 386 000e 1368     		ldr	r3, [r2, #0]
 387 0010 13F00103 		ands	r3, r3, #1
 388 0014 FBD1     		bne	.L28
 389              		.loc 1 367 0 discriminator 2
 390 0016 0C7A     		ldrb	r4, [r1, #8]	@ zero_extendqisi2
 391              		.loc 1 368 0 is_stmt 1 discriminator 2
 392 0018 826A     		ldr	r2, [r0, #40]
 393              		.loc 1 367 0 discriminator 2
 394 001a 4868     		ldr	r0, [r1, #4]
ARM GAS  /tmp/ccFzS8Ux.s 			page 8


 395              	.LVL20:
 396 001c 3D21     		movs	r1, #61
 397 001e 01FA04F4 		lsl	r4, r1, r4
 398              		.loc 1 370 0 discriminator 2
 399 0022 0121     		movs	r1, #1
 400              		.loc 1 367 0 discriminator 2
 401 0024 0460     		str	r4, [r0, #0]
 402              		.loc 1 368 0 discriminator 2
 403 0026 5360     		str	r3, [r2, #4]
 404              		.loc 1 369 0 discriminator 2
 405 0028 9360     		str	r3, [r2, #8]
 406              		.loc 1 370 0 discriminator 2
 407 002a 9160     		str	r1, [r2, #8]
 408              		.loc 1 371 0 discriminator 2
 409 002c 10BC     		pop	{r4}
 410 002e 7047     		bx	lr
 411              		.cfi_endproc
 412              	.LFE124:
 413              		.size	adc_lld_stop_conversion, .-adc_lld_stop_conversion
 414              		.section	.text.adc_lld_serve_rx_interrupt,"ax",%progbits
 415              		.align	2
 416              		.p2align 4,,15
 417              		.thumb
 418              		.thumb_func
 419              		.type	adc_lld_serve_rx_interrupt, %function
 420              	adc_lld_serve_rx_interrupt:
 421              	.LFB118:
 422              		.loc 1 76 0
 423              		.cfi_startproc
 424              		@ args = 0, pretend = 0, frame = 0
 425              		@ frame_needed = 0, uses_anonymous_args = 0
 426              	.LVL21:
 427              		.loc 1 79 0
 428 0000 11F00C0F 		tst	r1, #12
 429              		.loc 1 76 0
 430 0004 38B5     		push	{r3, r4, r5, lr}
 431              	.LCFI5:
 432              		.cfi_def_cfa_offset 16
 433              		.cfi_offset 3, -16
 434              		.cfi_offset 4, -12
 435              		.cfi_offset 5, -8
 436              		.cfi_offset 14, -4
 437              		.loc 1 76 0
 438 0006 0D46     		mov	r5, r1
 439 0008 0446     		mov	r4, r0
 440              		.loc 1 79 0
 441 000a 22D1     		bne	.L65
 442              		.loc 1 87 0
 443 000c 0369     		ldr	r3, [r0, #16]
 444 000e 002B     		cmp	r3, #0
 445 0010 3FD0     		beq	.L30
 446              		.loc 1 88 0
 447 0012 CA06     		lsls	r2, r1, #27
 448 0014 05D5     		bpl	.L38
 449              		.loc 1 90 0
 450 0016 5B68     		ldr	r3, [r3, #4]
 451 0018 1BB1     		cbz	r3, .L38
ARM GAS  /tmp/ccFzS8Ux.s 			page 9


 452              		.loc 1 90 0 is_stmt 0 discriminator 1
 453 001a C268     		ldr	r2, [r0, #12]
 454 001c 8168     		ldr	r1, [r0, #8]
 455              	.LVL22:
 456 001e 5208     		lsrs	r2, r2, #1
 457 0020 9847     		blx	r3
 458              	.LVL23:
 459              	.L38:
 460              		.loc 1 92 0 is_stmt 1
 461 0022 AB06     		lsls	r3, r5, #26
 462 0024 35D5     		bpl	.L30
 463              		.loc 1 94 0
 464 0026 2369     		ldr	r3, [r4, #16]
 465 0028 1A78     		ldrb	r2, [r3, #0]	@ zero_extendqisi2
 466 002a 002A     		cmp	r2, #0
 467 002c 32D0     		beq	.L40
 468              		.loc 1 94 0 is_stmt 0 discriminator 1
 469 002e 5D68     		ldr	r5, [r3, #4]
 470              	.LVL24:
 471 0030 002D     		cmp	r5, #0
 472 0032 2ED0     		beq	.L30
 473              		.loc 1 94 0 discriminator 3
 474 0034 E268     		ldr	r2, [r4, #12]
 475 0036 012A     		cmp	r2, #1
 476              	.LBB3:
 477 0038 83BF     		ittte	hi
 478 003a 5988     		ldrhhi	r1, [r3, #2]
 479 003c A368     		ldrhi	r3, [r4, #8]
 480 003e 5208     		lsrhi	r2, r2, #1
 481              	.LVL25:
 482              	.LBE3:
 483 0040 2046     		movls	r0, r4
 484              	.LBB4:
 485 0042 83BF     		ittte	hi
 486 0044 5143     		mulhi	r1, r1, r2
 487 0046 03EB4101 		addhi	r1, r3, r1, lsl #1
 488 004a 2046     		movhi	r0, r4
 489              	.LBE4:
 490 004c 8168     		ldrls	r1, [r0, #8]
 491 004e A847     		blx	r5
 492              	.LVL26:
 493 0050 38BD     		pop	{r3, r4, r5, pc}
 494              	.LVL27:
 495              	.L65:
 496              		.loc 1 82 0 is_stmt 1
 497 0052 FFF7FEFF 		bl	adc_lld_stop_conversion
 498              	.LVL28:
 499 0056 2369     		ldr	r3, [r4, #16]
 500 0058 9B68     		ldr	r3, [r3, #8]
 501 005a 4BB1     		cbz	r3, .L33
 502              		.loc 1 82 0 is_stmt 0 discriminator 1
 503 005c 0522     		movs	r2, #5
 504 005e 2270     		strb	r2, [r4, #0]
 505 0060 2046     		mov	r0, r4
 506 0062 0021     		movs	r1, #0
 507 0064 9847     		blx	r3
 508              	.LVL29:
ARM GAS  /tmp/ccFzS8Ux.s 			page 10


 509 0066 2378     		ldrb	r3, [r4, #0]	@ zero_extendqisi2
 510 0068 052B     		cmp	r3, #5
 511 006a 04BF     		itt	eq
 512 006c 0223     		moveq	r3, #2
 513 006e 2370     		strbeq	r3, [r4, #0]
 514              	.L33:
 515              		.loc 1 82 0 discriminator 2
 516 0070 0022     		movs	r2, #0
 517 0072 2261     		str	r2, [r4, #16]
 518              	.LBB5:
 519 0074 2023     		movs	r3, #32
 520              	.LVL30:
 521              	@ 82 "/home/felix/Documents/ChibiOS/os/hal/platforms/STM32F4xx/adc_lld.c" 1
 522 0076 83F31188 		msr     BASEPRI, r3
 523              	@ 0 "" 2
 524              	.LVL31:
 525              		.thumb
 526              	.LBE5:
 527 007a 6369     		ldr	r3, [r4, #20]
 528              	.LVL32:
 529 007c 33B1     		cbz	r3, .L46
 530              	.LVL33:
 531              	.LBB6:
 532              		.loc 1 82 0 discriminator 4
 533 007e 4FF0FF31 		mov	r1, #-1
 534 0082 6261     		str	r2, [r4, #20]
 535 0084 1846     		mov	r0, r3
 536 0086 5962     		str	r1, [r3, #36]
 537 0088 FFF7FEFF 		bl	chSchReadyI
 538              	.LVL34:
 539              	.L46:
 540              	.LBE6:
 541              	.LBB7:
 542              		.loc 1 94 0 is_stmt 1 discriminator 14
 543 008c 0023     		movs	r3, #0
 544              	.LVL35:
 545              	@ 94 "/home/felix/Documents/ChibiOS/os/hal/platforms/STM32F4xx/adc_lld.c" 1
 546 008e 83F31188 		msr     BASEPRI, r3
 547              	@ 0 "" 2
 548              	.LVL36:
 549              		.thumb
 550              	.L30:
 551 0092 38BD     		pop	{r3, r4, r5, pc}
 552              	.LVL37:
 553              	.L40:
 554              	.LBE7:
 555              		.loc 1 94 0 is_stmt 0 discriminator 2
 556 0094 2046     		mov	r0, r4
 557 0096 FFF7FEFF 		bl	adc_lld_stop_conversion
 558              	.LVL38:
 559 009a 2169     		ldr	r1, [r4, #16]
 560 009c 4B68     		ldr	r3, [r1, #4]
 561 009e 23B3     		cbz	r3, .L42
 562              		.loc 1 94 0 discriminator 6
 563 00a0 E268     		ldr	r2, [r4, #12]
 564 00a2 0420     		movs	r0, #4
 565 00a4 012A     		cmp	r2, #1
ARM GAS  /tmp/ccFzS8Ux.s 			page 11


 566 00a6 2070     		strb	r0, [r4, #0]
 567              	.LBB8:
 568 00a8 85BF     		ittet	hi
 569 00aa 4888     		ldrhhi	r0, [r1, #2]
 570 00ac A168     		ldrhi	r1, [r4, #8]
 571              	.LBE8:
 572 00ae A168     		ldrls	r1, [r4, #8]
 573              	.LBB9:
 574 00b0 5208     		lsrhi	r2, r2, #1
 575              	.LVL39:
 576 00b2 85BF     		ittet	hi
 577 00b4 5043     		mulhi	r0, r0, r2
 578 00b6 01EB4001 		addhi	r1, r1, r0, lsl #1
 579              	.LBE9:
 580 00ba 2046     		movls	r0, r4
 581              	.LBB10:
 582 00bc 2046     		movhi	r0, r4
 583              	.LBE10:
 584 00be 9847     		blx	r3
 585              	.LVL40:
 586 00c0 2378     		ldrb	r3, [r4, #0]	@ zero_extendqisi2
 587 00c2 042B     		cmp	r3, #4
 588 00c4 0CD0     		beq	.L66
 589              	.L45:
 590              	.LBB11:
 591              		.loc 1 94 0 discriminator 12
 592 00c6 2023     		movs	r3, #32
 593              	.LVL41:
 594              	@ 94 "/home/felix/Documents/ChibiOS/os/hal/platforms/STM32F4xx/adc_lld.c" 1
 595 00c8 83F31188 		msr     BASEPRI, r3
 596              	@ 0 "" 2
 597              	.LVL42:
 598              		.thumb
 599              	.LBE11:
 600 00cc 6369     		ldr	r3, [r4, #20]
 601              	.LVL43:
 602 00ce 002B     		cmp	r3, #0
 603 00d0 DCD0     		beq	.L46
 604              	.LVL44:
 605              	.LBB12:
 606              		.loc 1 94 0 discriminator 13
 607 00d2 0022     		movs	r2, #0
 608 00d4 6261     		str	r2, [r4, #20]
 609 00d6 1846     		mov	r0, r3
 610 00d8 5A62     		str	r2, [r3, #36]
 611 00da FFF7FEFF 		bl	chSchReadyI
 612              	.LVL45:
 613 00de D5E7     		b	.L46
 614              	.L66:
 615              	.LBE12:
 616              		.loc 1 94 0 discriminator 11
 617 00e0 0222     		movs	r2, #2
 618 00e2 0023     		movs	r3, #0
 619 00e4 2270     		strb	r2, [r4, #0]
 620 00e6 2361     		str	r3, [r4, #16]
 621 00e8 EDE7     		b	.L45
 622              	.L42:
ARM GAS  /tmp/ccFzS8Ux.s 			page 12


 623              		.loc 1 94 0 discriminator 7
 624 00ea 0222     		movs	r2, #2
 625 00ec 2361     		str	r3, [r4, #16]
 626 00ee 2270     		strb	r2, [r4, #0]
 627 00f0 E9E7     		b	.L45
 628              		.cfi_endproc
 629              	.LFE118:
 630              		.size	adc_lld_serve_rx_interrupt, .-adc_lld_serve_rx_interrupt
 631 00f2 00BFAFF3 		.section	.text.Vector88,"ax",%progbits
 631      0080AFF3 
 631      0080AFF3 
 631      0080
 632              		.align	2
 633              		.p2align 4,,15
 634              		.global	Vector88
 635              		.thumb
 636              		.thumb_func
 637              		.type	Vector88, %function
 638              	Vector88:
 639              	.LFB119:
 640              		.loc 1 111 0 is_stmt 1
 641              		.cfi_startproc
 642              		@ args = 0, pretend = 0, frame = 0
 643              		@ frame_needed = 0, uses_anonymous_args = 0
 644              		.loc 1 117 0
 645 0000 4FF40053 		mov	r3, #8192
 646 0004 C4F20103 		movt	r3, 16385
 647              		.loc 1 118 0
 648 0008 0021     		movs	r1, #0
 649              		.loc 1 117 0
 650 000a 1A68     		ldr	r2, [r3, #0]
 651              	.LVL46:
 652              		.loc 1 111 0
 653 000c 10B5     		push	{r4, lr}
 654              	.LCFI6:
 655              		.cfi_def_cfa_offset 8
 656              		.cfi_offset 4, -8
 657              		.cfi_offset 14, -4
 658              		.loc 1 118 0
 659 000e 1960     		str	r1, [r3, #0]
 660              		.loc 1 121 0
 661 0010 9106     		lsls	r1, r2, #26
 662 0012 27D5     		bpl	.L68
 663              		.loc 1 121 0 is_stmt 0 discriminator 1
 664 0014 154C     		ldr	r4, .L85
 665 0016 E36A     		ldr	r3, [r4, #44]
 666 0018 1B68     		ldr	r3, [r3, #0]
 667 001a 5B68     		ldr	r3, [r3, #4]
 668 001c 13B3     		cbz	r3, .L68
 669              		.loc 1 124 0 is_stmt 1
 670 001e 2369     		ldr	r3, [r4, #16]
 671 0020 03B3     		cbz	r3, .L68
 672              		.loc 1 125 0
 673 0022 2046     		mov	r0, r4
 674 0024 FFF7FEFF 		bl	adc_lld_stop_conversion
 675              	.LVL47:
 676 0028 2369     		ldr	r3, [r4, #16]
ARM GAS  /tmp/ccFzS8Ux.s 			page 13


 677 002a 9B68     		ldr	r3, [r3, #8]
 678 002c 4BB1     		cbz	r3, .L70
 679              		.loc 1 125 0 is_stmt 0 discriminator 1
 680 002e 0522     		movs	r2, #5
 681 0030 2270     		strb	r2, [r4, #0]
 682 0032 2046     		mov	r0, r4
 683 0034 0121     		movs	r1, #1
 684 0036 9847     		blx	r3
 685              	.LVL48:
 686 0038 2378     		ldrb	r3, [r4, #0]	@ zero_extendqisi2
 687 003a 052B     		cmp	r3, #5
 688 003c 04BF     		itt	eq
 689 003e 0223     		moveq	r3, #2
 690 0040 2370     		strbeq	r3, [r4, #0]
 691              	.L70:
 692              		.loc 1 125 0 discriminator 2
 693 0042 0022     		movs	r2, #0
 694 0044 2261     		str	r2, [r4, #16]
 695 0046 0949     		ldr	r1, .L85
 696              	.LBB13:
 697 0048 2023     		movs	r3, #32
 698              	.LVL49:
 699              	@ 125 "/home/felix/Documents/ChibiOS/os/hal/platforms/STM32F4xx/adc_lld.c" 1
 700 004a 83F31188 		msr     BASEPRI, r3
 701              	@ 0 "" 2
 702              	.LVL50:
 703              		.thumb
 704              	.LBE13:
 705 004e 6069     		ldr	r0, [r4, #20]
 706 0050 28B1     		cbz	r0, .L72
 707              	.LVL51:
 708              	.LBB14:
 709              		.loc 1 125 0 discriminator 4
 710 0052 4FF0FF33 		mov	r3, #-1
 711              	.LVL52:
 712 0056 4362     		str	r3, [r0, #36]
 713 0058 4A61     		str	r2, [r1, #20]
 714 005a FFF7FEFF 		bl	chSchReadyI
 715              	.LVL53:
 716              	.L72:
 717              	.LBE14:
 718              	.LBB15:
 719              		.loc 1 125 0 discriminator 5
 720 005e 0023     		movs	r3, #0
 721              	.LVL54:
 722              	@ 125 "/home/felix/Documents/ChibiOS/os/hal/platforms/STM32F4xx/adc_lld.c" 1
 723 0060 83F31188 		msr     BASEPRI, r3
 724              	@ 0 "" 2
 725              	.LVL55:
 726              		.thumb
 727              	.L68:
 728              	.LBE15:
 729              		.loc 1 159 0 is_stmt 1
 730 0064 BDE81040 		pop	{r4, lr}
 731              		.loc 1 158 0
 732 0068 FFF7FEBF 		b	_port_irq_epilogue
 733              	.LVL56:
ARM GAS  /tmp/ccFzS8Ux.s 			page 14


 734              	.L86:
 735              		.align	2
 736              	.L85:
 737 006c 00000000 		.word	.LANCHOR0
 738              		.cfi_endproc
 739              	.LFE119:
 740              		.size	Vector88, .-Vector88
 741              		.section	.text.adcSTM32EnableTSVREFE,"ax",%progbits
 742              		.align	2
 743              		.p2align 4,,15
 744              		.global	adcSTM32EnableTSVREFE
 745              		.thumb
 746              		.thumb_func
 747              		.type	adcSTM32EnableTSVREFE, %function
 748              	adcSTM32EnableTSVREFE:
 749              	.LFB125:
 750              		.loc 1 379 0
 751              		.cfi_startproc
 752              		@ args = 0, pretend = 0, frame = 0
 753              		@ frame_needed = 0, uses_anonymous_args = 0
 754              		@ link register save eliminated.
 755              		.loc 1 381 0
 756 0000 4FF40C53 		mov	r3, #8960
 757 0004 C4F20103 		movt	r3, 16385
 758 0008 5A68     		ldr	r2, [r3, #4]
 759 000a 42F40002 		orr	r2, r2, #8388608
 760 000e 5A60     		str	r2, [r3, #4]
 761 0010 7047     		bx	lr
 762              		.cfi_endproc
 763              	.LFE125:
 764              		.size	adcSTM32EnableTSVREFE, .-adcSTM32EnableTSVREFE
 765 0012 00BFAFF3 		.section	.text.adcSTM32DisableTSVREFE,"ax",%progbits
 765      0080AFF3 
 765      0080AFF3 
 765      0080
 766              		.align	2
 767              		.p2align 4,,15
 768              		.global	adcSTM32DisableTSVREFE
 769              		.thumb
 770              		.thumb_func
 771              		.type	adcSTM32DisableTSVREFE, %function
 772              	adcSTM32DisableTSVREFE:
 773              	.LFB126:
 774              		.loc 1 390 0
 775              		.cfi_startproc
 776              		@ args = 0, pretend = 0, frame = 0
 777              		@ frame_needed = 0, uses_anonymous_args = 0
 778              		@ link register save eliminated.
 779              		.loc 1 392 0
 780 0000 4FF40C53 		mov	r3, #8960
 781 0004 C4F20103 		movt	r3, 16385
 782 0008 5A68     		ldr	r2, [r3, #4]
 783 000a 22F40002 		bic	r2, r2, #8388608
 784 000e 5A60     		str	r2, [r3, #4]
 785 0010 7047     		bx	lr
 786              		.cfi_endproc
 787              	.LFE126:
ARM GAS  /tmp/ccFzS8Ux.s 			page 15


 788              		.size	adcSTM32DisableTSVREFE, .-adcSTM32DisableTSVREFE
 789 0012 00BFAFF3 		.section	.text.adcSTM32EnableVBATE,"ax",%progbits
 789      0080AFF3 
 789      0080AFF3 
 789      0080
 790              		.align	2
 791              		.p2align 4,,15
 792              		.global	adcSTM32EnableVBATE
 793              		.thumb
 794              		.thumb_func
 795              		.type	adcSTM32EnableVBATE, %function
 796              	adcSTM32EnableVBATE:
 797              	.LFB127:
 798              		.loc 1 401 0
 799              		.cfi_startproc
 800              		@ args = 0, pretend = 0, frame = 0
 801              		@ frame_needed = 0, uses_anonymous_args = 0
 802              		@ link register save eliminated.
 803              		.loc 1 403 0
 804 0000 4FF40C53 		mov	r3, #8960
 805 0004 C4F20103 		movt	r3, 16385
 806 0008 5A68     		ldr	r2, [r3, #4]
 807 000a 42F48002 		orr	r2, r2, #4194304
 808 000e 5A60     		str	r2, [r3, #4]
 809 0010 7047     		bx	lr
 810              		.cfi_endproc
 811              	.LFE127:
 812              		.size	adcSTM32EnableVBATE, .-adcSTM32EnableVBATE
 813 0012 00BFAFF3 		.section	.text.adcSTM32DisableVBATE,"ax",%progbits
 813      0080AFF3 
 813      0080AFF3 
 813      0080
 814              		.align	2
 815              		.p2align 4,,15
 816              		.global	adcSTM32DisableVBATE
 817              		.thumb
 818              		.thumb_func
 819              		.type	adcSTM32DisableVBATE, %function
 820              	adcSTM32DisableVBATE:
 821              	.LFB128:
 822              		.loc 1 412 0
 823              		.cfi_startproc
 824              		@ args = 0, pretend = 0, frame = 0
 825              		@ frame_needed = 0, uses_anonymous_args = 0
 826              		@ link register save eliminated.
 827              		.loc 1 414 0
 828 0000 4FF40C53 		mov	r3, #8960
 829 0004 C4F20103 		movt	r3, 16385
 830 0008 5A68     		ldr	r2, [r3, #4]
 831 000a 22F48002 		bic	r2, r2, #4194304
 832 000e 5A60     		str	r2, [r3, #4]
 833 0010 7047     		bx	lr
 834              		.cfi_endproc
 835              	.LFE128:
 836              		.size	adcSTM32DisableVBATE, .-adcSTM32DisableVBATE
 837              		.global	ADCD1
 838 0012 00BFAFF3 		.section	.bss.ADCD1,"aw",%nobits
ARM GAS  /tmp/ccFzS8Ux.s 			page 16


 838      0080AFF3 
 838      0080AFF3 
 838      0080
 839              		.align	2
 840              		.set	.LANCHOR0,. + 0
 841              		.type	ADCD1, %object
 842              		.size	ADCD1, 52
 843              	ADCD1:
 844 0000 00000000 		.space	52
 844      00000000 
 844      00000000 
 844      00000000 
 844      00000000 
 845              		.text
 846              	.Letext0:
 847              		.file 2 "/opt/tools_arm/lib/gcc/arm-none-eabi/4.7.3/include/stddef.h"
 848              		.file 3 "/opt/tools_arm/lib/gcc/arm-none-eabi/4.7.3/../../../../arm-none-eabi/include/stdint.h"
 849              		.file 4 "/home/felix/Documents/ChibiOS/os/ports/GCC/ARMCMx/chtypes.h"
 850              		.file 5 "/home/felix/Documents/ChibiOS/os/kernel/include/chlists.h"
 851              		.file 6 "/home/felix/Documents/ChibiOS/os/kernel/include/chthreads.h"
 852              		.file 7 "/home/felix/Documents/ChibiOS/os/ports/GCC/ARMCMx/chcore_v7m.h"
 853              		.file 8 "/home/felix/Documents/ChibiOS/os/kernel/include/chmtx.h"
 854              		.file 9 "/home/felix/Documents/ChibiOS/os/hal/platforms/STM32F4xx/stm32f4xx.h"
 855              		.file 10 "/home/felix/Documents/ChibiOS/os/hal/platforms/STM32F4xx/stm32_dma.h"
 856              		.file 11 "/home/felix/Documents/ChibiOS/os/hal/include/adc.h"
 857              		.file 12 "/home/felix/Documents/ChibiOS/os/hal/platforms/STM32F4xx/adc_lld.h"
 858              		.file 13 "/home/felix/Documents/ChibiOS/os/ports/common/ARMCMx/CMSIS/include/core_cm4.h"
 859              		.file 14 "/home/felix/Documents/ChibiOS/os/ports/common/ARMCMx/nvic.h"
 860              		.file 15 "/home/felix/Documents/ChibiOS/os/kernel/include/chschd.h"