ARM GAS  /tmp/ccFzS8Ux.s 			page 1


   1              		.syntax unified
   2              		.cpu cortex-m4
   3              		.fpu softvfp
   4              		.eabi_attribute 20, 1
   5              		.eabi_attribute 21, 1
   6              		.eabi_attribute 23, 3
   7              		.eabi_attribute 24, 1
   8              		.eabi_attribute 25, 1
   9              		.eabi_attribute 26, 1
  10              		.eabi_attribute 30, 2
  11              		.eabi_attribute 34, 1
  12              		.eabi_attribute 18, 4
  13              		.thumb
  14              		.file	"adc_lld.c"
  15              		.text
  16              	.Ltext0:
  17              		.cfi_sections	.debug_frame
  18              		.section	.text.adc_lld_init,"ax",%progbits
  19              		.align	2
  20              		.p2align 4,,15
  21              		.global	adc_lld_init
  22              		.thumb
  23              		.thumb_func
  24              		.type	adc_lld_init, %function
  25              	adc_lld_init:
  26              	.LFB120:
  27              		.file 1 "/home/felix/Documents/ChibiOS/os/hal/platforms/STM32F4xx/adc_lld.c"
  28              		.loc 1 171 0
  29              		.cfi_startproc
  30              		@ args = 0, pretend = 0, frame = 0
  31              		@ frame_needed = 0, uses_anonymous_args = 0
  32 0000 38B5     		push	{r3, r4, r5, lr}
  33              	.LCFI0:
  34              		.cfi_def_cfa_offset 16
  35              		.cfi_offset 3, -16
  36              		.cfi_offset 4, -12
  37              		.cfi_offset 5, -8
  38              		.cfi_offset 14, -4
  39              		.loc 1 175 0
  40 0002 40F20004 		movw	r4, #:lower16:.LANCHOR0
  41 0006 C0F20004 		movt	r4, #:upper16:.LANCHOR0
  42 000a 2046     		mov	r0, r4
  43 000c FFF7FEFF 		bl	adcObjectInit
  44              	.LVL0:
  45              		.loc 1 177 0
  46 0010 084D     		ldr	r5, .L2
  47              		.loc 1 176 0
  48 0012 4FF40052 		mov	r2, #8192
  49              		.loc 1 178 0
  50 0016 42F61643 		movw	r3, #11286
  51              		.loc 1 176 0
  52 001a C4F20102 		movt	r2, 16385
  53              		.loc 1 178 0
  54 001e C0F20203 		movt	r3, 2
  55              		.loc 1 214 0
  56 0022 1220     		movs	r0, #18
  57 0024 6021     		movs	r1, #96
ARM GAS  /tmp/ccFzS8Ux.s 			page 2


  58              		.loc 1 176 0
  59 0026 A262     		str	r2, [r4, #40]
  60              		.loc 1 177 0
  61 0028 E562     		str	r5, [r4, #44]
  62              		.loc 1 178 0
  63 002a 2363     		str	r3, [r4, #48]
  64              		.loc 1 215 0
  65 002c BDE83840 		pop	{r3, r4, r5, lr}
  66              		.loc 1 214 0
  67 0030 FFF7FEBF 		b	nvicEnableVector
  68              	.LVL1:
  69              	.L3:
  70              		.align	2
  71              	.L2:
  72 0034 90000000 		.word	_stm32_dma_streams+144
  73              		.cfi_endproc
  74              	.LFE120:
  75              		.size	adc_lld_init, .-adc_lld_init
  76 0038 AFF30080 		.section	.text.adc_lld_start,"ax",%progbits
  76      AFF30080 
  77              		.align	2
  78              		.p2align 4,,15
  79              		.global	adc_lld_start
  80              		.thumb
  81              		.thumb_func
  82              		.type	adc_lld_start, %function
  83              	adc_lld_start:
  84              	.LFB121:
  85              		.loc 1 224 0
  86              		.cfi_startproc
  87              		@ args = 0, pretend = 0, frame = 0
  88              		@ frame_needed = 0, uses_anonymous_args = 0
  89              	.LVL2:
  90              		.loc 1 227 0
  91 0000 0378     		ldrb	r3, [r0, #0]	@ zero_extendqisi2
  92 0002 012B     		cmp	r3, #1
  93              		.loc 1 224 0
  94 0004 10B5     		push	{r4, lr}
  95              	.LCFI1:
  96              		.cfi_def_cfa_offset 8
  97              		.cfi_offset 4, -8
  98              		.cfi_offset 14, -4
  99              		.loc 1 224 0
 100 0006 0446     		mov	r4, r0
 101              		.loc 1 227 0
 102 0008 00D0     		beq	.L8
 103 000a 10BD     		pop	{r4, pc}
 104              	.L8:
 105              		.loc 1 229 0
 106 000c 144B     		ldr	r3, .L10
 107 000e 9842     		cmp	r0, r3
 108 0010 10D0     		beq	.L9
 109              	.LVL3:
 110              	.L6:
 111              		.loc 1 269 0
 112 0012 4FF40C52 		mov	r2, #8960
 113 0016 C4F20102 		movt	r2, 16385
ARM GAS  /tmp/ccFzS8Ux.s 			page 3


 114              		.loc 1 274 0
 115 001a A36A     		ldr	r3, [r4, #40]
 116              		.loc 1 269 0
 117 001c 5468     		ldr	r4, [r2, #4]
 118              	.LVL4:
 119 001e 04F44004 		and	r4, r4, #12582912
 120              		.loc 1 274 0
 121 0022 0021     		movs	r1, #0
 122              		.loc 1 269 0
 123 0024 44F48034 		orr	r4, r4, #65536
 124              		.loc 1 276 0
 125 0028 0120     		movs	r0, #1
 126              		.loc 1 269 0
 127 002a 5460     		str	r4, [r2, #4]
 128              		.loc 1 274 0
 129 002c 5960     		str	r1, [r3, #4]
 130              		.loc 1 275 0
 131 002e 9960     		str	r1, [r3, #8]
 132              		.loc 1 276 0
 133 0030 9860     		str	r0, [r3, #8]
 134 0032 10BD     		pop	{r4, pc}
 135              	.LVL5:
 136              	.L9:
 137              	.LBB2:
 138              		.loc 1 231 0
 139 0034 0B4A     		ldr	r2, .L10+4
 140 0036 C06A     		ldr	r0, [r0, #44]
 141              	.LVL6:
 142 0038 0621     		movs	r1, #6
 143 003a 2346     		mov	r3, r4
 144 003c FFF7FEFF 		bl	dmaStreamAllocate
 145              	.LVL7:
 146              		.loc 1 236 0
 147 0040 E36A     		ldr	r3, [r4, #44]
 148 0042 42F24C02 		movw	r2, #8268
 149 0046 1968     		ldr	r1, [r3, #0]
 150              		.loc 1 237 0
 151 0048 4FF46053 		mov	r3, #14336
 152              		.loc 1 236 0
 153 004c C4F20102 		movt	r2, 16385
 154              		.loc 1 237 0
 155 0050 C4F20203 		movt	r3, 16386
 156              		.loc 1 236 0
 157 0054 8A60     		str	r2, [r1, #8]
 158              		.loc 1 237 0
 159 0056 5A6C     		ldr	r2, [r3, #68]
 160 0058 42F48072 		orr	r2, r2, #256
 161 005c 5A64     		str	r2, [r3, #68]
 162 005e D8E7     		b	.L6
 163              	.L11:
 164              		.align	2
 165              	.L10:
 166 0060 00000000 		.word	.LANCHOR0
 167 0064 00000000 		.word	adc_lld_serve_rx_interrupt
 168              	.LBE2:
 169              		.cfi_endproc
 170              	.LFE121:
ARM GAS  /tmp/ccFzS8Ux.s 			page 4


 171              		.size	adc_lld_start, .-adc_lld_start
 172 0068 AFF30080 		.section	.text.adc_lld_stop,"ax",%progbits
 172      AFF30080 
 173              		.align	2
 174              		.p2align 4,,15
 175              		.global	adc_lld_stop
 176              		.thumb
 177              		.thumb_func
 178              		.type	adc_lld_stop, %function
 179              	adc_lld_stop:
 180              	.LFB122:
 181              		.loc 1 287 0
 182              		.cfi_startproc
 183              		@ args = 0, pretend = 0, frame = 0
 184              		@ frame_needed = 0, uses_anonymous_args = 0
 185              	.LVL8:
 186              		.loc 1 290 0
 187 0000 0378     		ldrb	r3, [r0, #0]	@ zero_extendqisi2
 188 0002 022B     		cmp	r3, #2
 189              		.loc 1 287 0
 190 0004 10B5     		push	{r4, lr}
 191              	.LCFI2:
 192              		.cfi_def_cfa_offset 8
 193              		.cfi_offset 4, -8
 194              		.cfi_offset 14, -4
 195              		.loc 1 287 0
 196 0006 0446     		mov	r4, r0
 197              		.loc 1 290 0
 198 0008 00D0     		beq	.L16
 199 000a 10BD     		pop	{r4, pc}
 200              	.L16:
 201              		.loc 1 291 0
 202 000c C06A     		ldr	r0, [r0, #44]
 203              	.LVL9:
 204 000e FFF7FEFF 		bl	dmaStreamRelease
 205              	.LVL10:
 206              		.loc 1 296 0
 207 0012 0849     		ldr	r1, .L17
 208              		.loc 1 292 0
 209 0014 A36A     		ldr	r3, [r4, #40]
 210 0016 0022     		movs	r2, #0
 211              		.loc 1 296 0
 212 0018 8C42     		cmp	r4, r1
 213              		.loc 1 292 0
 214 001a 5A60     		str	r2, [r3, #4]
 215              		.loc 1 293 0
 216 001c 9A60     		str	r2, [r3, #8]
 217              		.loc 1 297 0
 218 001e 01BF     		itttt	eq
 219 0020 4FF46053 		moveq	r3, #14336
 220 0024 C4F20203 		movteq	r3, 16386
 221 0028 5A6C     		ldreq	r2, [r3, #68]
 222 002a 22F48072 		biceq	r2, r2, #256
 223 002e 08BF     		it	eq
 224 0030 5A64     		streq	r2, [r3, #68]
 225 0032 10BD     		pop	{r4, pc}
 226              	.L18:
ARM GAS  /tmp/ccFzS8Ux.s 			page 5


 227              		.align	2
 228              	.L17:
 229 0034 00000000 		.word	.LANCHOR0
 230              		.cfi_endproc
 231              	.LFE122:
 232              		.size	adc_lld_stop, .-adc_lld_stop
 233 0038 AFF30080 		.section	.text.adc_lld_start_conversion,"ax",%progbits
 233      AFF30080 
 234              		.align	2
 235              		.p2align 4,,15
 236              		.global	adc_lld_start_conversion
 237              		.thumb
 238              		.thumb_func
 239              		.type	adc_lld_start_conversion, %function
 240              	adc_lld_start_conversion:
 241              	.LFB123:
 242              		.loc 1 319 0
 243              		.cfi_startproc
 244              		@ args = 0, pretend = 0, frame = 0
 245              		@ frame_needed = 0, uses_anonymous_args = 0
 246              		@ link register save eliminated.
 247              	.LVL11:
 248              		.loc 1 321 0
 249 0000 0369     		ldr	r3, [r0, #16]
 250              	.LVL12:
 251              		.loc 1 324 0
 252 0002 026B     		ldr	r2, [r0, #48]
 253              	.LVL13:
 254              		.loc 1 325 0
 255 0004 1978     		ldrb	r1, [r3, #0]	@ zero_extendqisi2
 256              		.loc 1 319 0
 257 0006 2DE9F007 		push	{r4, r5, r6, r7, r8, r9, sl}
 258              	.LCFI3:
 259              		.cfi_def_cfa_offset 28
 260              		.cfi_offset 4, -28
 261              		.cfi_offset 5, -24
 262              		.cfi_offset 6, -20
 263              		.cfi_offset 7, -16
 264              		.cfi_offset 8, -12
 265              		.cfi_offset 9, -8
 266              		.cfi_offset 10, -4
 267              		.loc 1 325 0
 268 000a 09B1     		cbz	r1, .L20
 269              		.loc 1 326 0
 270 000c 42F48072 		orr	r2, r2, #256
 271              	.LVL14:
 272              	.L20:
 273              		.loc 1 328 0
 274 0010 C468     		ldr	r4, [r0, #12]
 275              		.loc 1 333 0
 276 0012 C16A     		ldr	r1, [r0, #44]
 277              		.loc 1 334 0
 278 0014 5E88     		ldrh	r6, [r3, #2]
 279              		.loc 1 333 0
 280 0016 8568     		ldr	r5, [r0, #8]
 281 0018 0968     		ldr	r1, [r1, #0]
 282              		.loc 1 349 0
ARM GAS  /tmp/ccFzS8Ux.s 			page 6


 283 001a D3F80CC0 		ldr	ip, [r3, #12]
 284              		.loc 1 341 0
 285 001e D3F81480 		ldr	r8, [r3, #20]
 286              		.loc 1 333 0
 287 0022 CD60     		str	r5, [r1, #12]
 288              		.loc 1 328 0
 289 0024 012C     		cmp	r4, #1
 290              		.loc 1 331 0
 291 0026 88BF     		it	hi
 292 0028 42F00802 		orrhi	r2, r2, #8
 293              	.LVL15:
 294              		.loc 1 334 0
 295 002c 04FB06F4 		mul	r4, r4, r6
 296 0030 4C60     		str	r4, [r1, #4]
 297              		.loc 1 342 0
 298 0032 9F69     		ldr	r7, [r3, #24]
 299              		.loc 1 336 0
 300 0034 0A60     		str	r2, [r1, #0]
 301              		.loc 1 343 0
 302 0036 DE69     		ldr	r6, [r3, #28]
 303              		.loc 1 344 0
 304 0038 1D6A     		ldr	r5, [r3, #32]
 305              		.loc 1 345 0
 306 003a 5C6A     		ldr	r4, [r3, #36]
 307              		.loc 1 350 0
 308 003c 1B69     		ldr	r3, [r3, #16]
 309              	.LVL16:
 310              		.loc 1 337 0
 311 003e D1F800A0 		ldr	sl, [r1, #0]
 312              		.loc 1 340 0
 313 0042 826A     		ldr	r2, [r0, #40]
 314              	.LVL17:
 315              		.loc 1 350 0
 316 0044 13F0804F 		tst	r3, #1073741824
 317              		.loc 1 349 0
 318 0048 4CF08060 		orr	r0, ip, #67108864
 319              	.LVL18:
 320              		.loc 1 352 0
 321 004c 43F44073 		orr	r3, r3, #768
 322              		.loc 1 337 0
 323 0050 4AF0010A 		orr	sl, sl, #1
 324              		.loc 1 340 0
 325 0054 4FF00009 		mov	r9, #0
 326              		.loc 1 349 0
 327 0058 40F48070 		orr	r0, r0, #256
 328              		.loc 1 352 0
 329 005c 14BF     		ite	ne
 330 005e 43F00303 		orrne	r3, r3, #3
 331              		.loc 1 355 0
 332 0062 43F00103 		orreq	r3, r3, #1
 333              		.loc 1 337 0
 334 0066 C1F800A0 		str	sl, [r1, #0]
 335              		.loc 1 340 0
 336 006a C2F80090 		str	r9, [r2, #0]
 337              		.loc 1 341 0
 338 006e C2F80C80 		str	r8, [r2, #12]
 339              		.loc 1 342 0
ARM GAS  /tmp/ccFzS8Ux.s 			page 7


 340 0072 1761     		str	r7, [r2, #16]
 341              		.loc 1 343 0
 342 0074 D662     		str	r6, [r2, #44]
 343              		.loc 1 344 0
 344 0076 1563     		str	r5, [r2, #48]
 345              		.loc 1 345 0
 346 0078 5463     		str	r4, [r2, #52]
 347              		.loc 1 349 0
 348 007a 5060     		str	r0, [r2, #4]
 349              		.loc 1 354 0
 350 007c 9360     		str	r3, [r2, #8]
 351              		.loc 1 356 0
 352 007e BDE8F007 		pop	{r4, r5, r6, r7, r8, r9, sl}
 353 0082 7047     		bx	lr
 354              		.cfi_endproc
 355              	.LFE123:
 356              		.size	adc_lld_start_conversion, .-adc_lld_start_conversion
 357 0084 AFF30080 		.section	.text.adc_lld_stop_conversion,"ax",%progbits
 357      AFF30080 
 357      AFF30080 
 358              		.align	2
 359              		.p2align 4,,15
 360              		.global	adc_lld_stop_conversion
 361              		.thumb
 362              		.thumb_func
 363              		.type	adc_lld_stop_conversion, %function
 364              	adc_lld_stop_conversion:
 365              	.LFB124:
 366              		.loc 1 365 0
 367              		.cfi_startproc
 368              		@ args = 0, pretend = 0, frame = 0
 369              		@ frame_needed = 0, uses_anonymous_args = 0
 370              		@ link register save eliminated.
 371              	.LVL19:
 372              		.loc 1 367 0
 373 0000 C16A     		ldr	r1, [r0, #44]
 374 0002 0A68     		ldr	r2, [r1, #0]
 375 0004 1368     		ldr	r3, [r2, #0]
 376 0006 23F01F03 		bic	r3, r3, #31
 377              		.loc 1 365 0
 378 000a 10B4     		push	{r4}
 379              	.LCFI4:
 380              		.cfi_def_cfa_offset 4
 381              		.cfi_offset 4, -4
 382              		.loc 1 367 0
 383 000c 1360     		str	r3, [r2, #0]
 384              	.L28:
 385              		.loc 1 367 0 is_stmt 0 discriminator 1
 386 000e 1368     		ldr	r3, [r2, #0]
 387 0010 13F00103 		ands	r3, r3, #1
 388 0014 FBD1     		bne	.L28
 389              		.loc 1 367 0 discriminator 2
 390 0016 0C7A     		ldrb	r4, [r1, #8]	@ zero_extendqisi2
 391              		.loc 1 368 0 is_stmt 1 discriminator 2
 392 0018 826A     		ldr	r2, [r0, #40]
 393              		.loc 1 367 0 discriminator 2
 394 001a 4868     		ldr	r0, [r1, #4]
ARM GAS  /tmp/ccFzS8Ux.s 			page 8


 395              	.LVL20:
 396 001c 3D21     		movs	r1, #61
 397 001e 01FA04F4 		lsl	r4, r1, r4
 398              		.loc 1 370 0 discriminator 2
 399 0022 0121     		movs	r1, #1
 400              		.loc 1 367 0 discriminator 2
 401 0024 0460     		str	r4, [r0, #0]
 402              		.loc 1 368 0 discriminator 2
 403 0026 5360     		str	r3, [r2, #4]
 404              		.loc 1 369 0 discriminator 2
 405 0028 9360     		str	r3, [r2, #8]
 406              		.loc 1 370 0 discriminator 2
 407 002a 9160     		str	r1, [r2, #8]
 408              		.loc 1 371 0 discriminator 2
 409 002c 10BC     		pop	{r4}
 410 002e 7047     		bx	lr
 411              		.cfi_endproc
 412              	.LFE124:
 413              		.size	adc_lld_stop_conversion, .-adc_lld_stop_conversion
 414              		.section	.text.adc_lld_serve_rx_interrupt,"ax",%progbits
 415              		.align	2
 416              		.p2align 4,,15
 417              		.thumb
 418              		.thumb_func
 419              		.type	adc_lld_serve_rx_interrupt, %function
 420              	adc_lld_serve_rx_interrupt:
 421              	.LFB118:
 422              		.loc 1 76 0
 423              		.cfi_startproc
 424              		@ args = 0, pretend = 0, frame = 0
 425              		@ frame_needed = 0, uses_anonymous_args = 0
 426              	.LVL21:
 427              		.loc 1 79 0
 428 0000 11F00C0F 		tst	r1, #12
 429              		.loc 1 76 0
 430 0004 38B5     		push	{r3, r4, r5, lr}
 431              	.LCFI5:
 432              		.cfi_def_cfa_offset 16
 433              		.cfi_offset 3, -16
 434              		.cfi_offset 4, -12
 435              		.cfi_offset 5, -8
 436              		.cfi_offset 14, -4
 437              		.loc 1 76 0
 438 0006 0D46     		mov	r5, r1
 439 0008 0446     		mov	r4, r0
 440              		.loc 1 79 0
 441 000a 22D1     		bne	.L65
 442              		.loc 1 87 0
 443 000c 0369     		ldr	r3, [r0, #16]
 444 000e 002B     		cmp	r3, #0
 445 0010 3FD0     		beq	.L30
 446              		.loc 1 88 0
 447 0012 CA06     		lsls	r2, r1, #27
 448 0014 05D5     		bpl	.L38
 449              		.loc 1 90 0
 450 0016 5B68     		ldr	r3, [r3, #4]
 451 0018 1BB1     		cbz	r3, .L38
ARM GAS  /tmp/ccFzS8Ux.s 			page 9


 452              		.loc 1 90 0 is_stmt 0 discriminator 1
 453 001a C268     		ldr	r2, [r0, #12]
 454 001c 8168     		ldr	r1, [r0, #8]
 455              	.LVL22:
 456 001e 5208     		lsrs	r2, r2, #1
 457 0020 9847     		blx	r3
 458              	.LVL23:
 459              	.L38:
 460              		.loc 1 92 0 is_stmt 1
 461 0022 AB06     		lsls	r3, r5, #26
 462 0024 35D5     		bpl	.L30
 463              		.loc 1 94 0
 464 0026 2369     		ldr	r3, [r4, #16]
 465 0028 1A78     		ldrb	r2, [r3, #0]	@ zero_extendqisi2
 466 002a 002A     		cmp	r2, #0
 467 002c 32D0     		beq	.L40
 468              		.loc 1 94 0 is_stmt 0 discriminator 1
 469 002e 5D68     		ldr	r5, [r3, #4]
 470              	.LVL24:
 471 0030 002D     		cmp	r5, #0
 472 0032 2ED0     		beq	.L30
 473              		.loc 1 94 0 discriminator 3
 474 0034 E268     		ldr	r2, [r4, #12]
 475 0036 012A     		cmp	r2, #1
 476              	.LBB3:
 477 0038 83BF     		ittte	hi
 478 003a 5988     		ldrhhi	r1, [r3, #2]
 479 003c A368     		ldrhi	r3, [r4, #8]
 480 003e 5208     		lsrhi	r2, r2, #1
 481              	.LVL25:
 482              	.LBE3:
 483 0040 2046     		movls	r0, r4
 484              	.LBB4:
 485 0042 83BF     		ittte	hi
 486 0044 5143     		mulhi	r1, r1, r2
 487 0046 03EB4101 		addhi	r1, r3, r1, lsl #1
 488 004a 2046     		movhi	r0, r4
 489              	.LBE4:
 490 004c 8168     		ldrls	r1, [r0, #8]
 491 004e A847     		blx	r5
 492              	.LVL26:
 493 0050 38BD     		pop	{r3, r4, r5, pc}
 494              	.LVL27:
 495              	.L65:
 496              		.loc 1 82 0 is_stmt 1
 497 0052 FFF7FEFF 		bl	adc_lld_stop_conversion
 498              	.LVL28:
 499 0056 2369     		ldr	r3, [r4, #16]
 500 0058 9B68     		ldr	r3, [r3, #8]
 501 005a 4BB1     		cbz	r3, .L33
 502              		.loc 1 82 0 is_stmt 0 discriminator 1
 503 005c 0522     		movs	r2, #5
 504 005e 2270     		strb	r2, [r4, #0]
 505 0060 2046     		mov	r0, r4
 506 0062 0021     		movs	r1, #0
 507 0064 9847     		blx	r3
 508              	.LVL29:
ARM GAS  /tmp/ccFzS8Ux.s 			page 10


 509 0066 2378     		ldrb	r3, [r4, #0]	@ zero_extendqisi2
 510 0068 052B     		cmp	r3, #5
 511 006a 04BF     		itt	eq
 512 006c 0223     		moveq	r3, #2
 513 006e 2370     		strbeq	r3, [r4, #0]
 514              	.L33:
 515              		.loc 1 82 0 discriminator 2
 516 0070 0022     		movs	r2, #0
 517 0072 2261     		str	r2, [r4, #16]
 518              	.LBB5:
 519 0074 2023     		movs	r3, #32
 520              	.LVL30:
 521              	@ 82 "/home/felix/Documents/ChibiOS/os/hal/platforms/STM32F4xx/adc_lld.c" 1
 522 0076 83F31188 		msr     BASEPRI, r3
 523              	@ 0 "" 2
 524              	.LVL31:
 525              		.thumb
 526              	.LBE5:
 527 007a 6369     		ldr	r3, [r4, #20]
 528              	.LVL32:
 529 007c 33B1     		cbz	r3, .L46
 530              	.LVL33:
 531              	.LBB6:
 532              		.loc 1 82 0 discriminator 4
 533 007e 4FF0FF31 		mov	r1, #-1
 534 0082 6261     		str	r2, [r4, #20]
 535 0084 1846     		mov	r0, r3
 536 0086 5962     		str	r1, [r3, #36]
 537 0088 FFF7FEFF 		bl	chSchReadyI
 538              	.LVL34:
 539              	.L46:
 540              	.LBE6:
 541              	.LBB7:
 542              		.loc 1 94 0 is_stmt 1 discriminator 14
 543 008c 0023     		movs	r3, #0
 544              	.LVL35:
 545              	@ 94 "/home/felix/Documents/ChibiOS/os/hal/platforms/STM32F4xx/adc_lld.c" 1
 546 008e 83F31188 		msr     BASEPRI, r3
 547              	@ 0 "" 2
 548              	.LVL36:
 549              		.thumb
 550              	.L30:
 551 0092 38BD     		pop	{r3, r4, r5, pc}
 552              	.LVL37:
 553              	.L40:
 554              	.LBE7:
 555              		.loc 1 94 0 is_stmt 0 discriminator 2
 556 0094 2046     		mov	r0, r4
 557 0096 FFF7FEFF 		bl	adc_lld_stop_conversion
 558              	.LVL38:
 559 009a 2169     		ldr	r1, [r4, #16]
 560 009c 4B68     		ldr	r3, [r1, #4]
 561 009e 23B3     		cbz	r3, .L42
 562              		.loc 1 94 0 discriminator 6
 563 00a0 E268     		ldr	r2, [r4, #12]
 564 00a2 0420     		movs	r0, #4
 565 00a4 012A     		cmp	r2, #1
ARM GAS  /tmp/ccFzS8Ux.s 			page 11


 566 00a6 2070     		strb	r0, [r4, #0]
 567              	.LBB8:
 568 00a8 85BF     		ittet	hi
 569 00aa 4888     		ldrhhi	r0, [r1, #2]
 570 00ac A168     		ldrhi	r1, [r4, #8]
 571              	.LBE8:
 572 00ae A168     		ldrls	r1, [r4, #8]
 573              	.LBB9:
 574 00b0 5208     		lsrhi	r2, r2, #1
 575              	.LVL39:
 576 00b2 85BF     		ittet	hi
 577 00b4 5043     		mulhi	r0, r0, r2
 578 00b6 01EB4001 		addhi	r1, r1, r0, lsl #1
 579              	.LBE9:
 580 00ba 2046     		movls	r0, r4
 581              	.LBB10:
 582 00bc 2046     		movhi	r0, r4
 583              	.LBE10:
 584 00be 9847     		blx	r3
 585              	.LVL40:
 586 00c0 2378     		ldrb	r3, [r4, #0]	@ zero_extendqisi2
 587 00c2 042B     		cmp	r3, #4
 588 00c4 0CD0     		beq	.L66
 589              	.L45:
 590              	.LBB11:
 591              		.loc 1 94 0 discriminator 12
 592 00c6 2023     		movs	r3, #32
 593              	.LVL41:
 594              	@ 94 "/home/felix/Documents/ChibiOS/os/hal/platforms/STM32F4xx/adc_lld.c" 1
 595 00c8 83F31188 		msr     BASEPRI, r3
 596              	@ 0 "" 2
 597              	.LVL42:
 598              		.thumb
 599              	.LBE11:
 600 00cc 6369     		ldr	r3, [r4, #20]
 601              	.LVL43:
 602 00ce 002B     		cmp	r3, #0
 603 00d0 DCD0     		beq	.L46
 604              	.LVL44:
 605              	.LBB12:
 606              		.loc 1 94 0 discriminator 13
 607 00d2 0022     		movs	r2, #0
 608 00d4 6261     		str	r2, [r4, #20]
 609 00d6 1846     		mov	r0, r3
 610 00d8 5A62     		str	r2, [r3, #36]
 611 00da FFF7FEFF 		bl	chSchReadyI
 612              	.LVL45:
 613 00de D5E7     		b	.L46
 614              	.L66:
 615              	.LBE12:
 616              		.loc 1 94 0 discriminator 11
 617 00e0 0222     		movs	r2, #2
 618 00e2 0023     		movs	r3, #0
 619 00e4 2270     		strb	r2, [r4, #0]
 620 00e6 2361     		str	r3, [r4, #16]
 621 00e8 EDE7     		b	.L45
 622              	.L42:
ARM GAS  /tmp/ccFzS8Ux.s 			page 12


 623              		.loc 1 94 0 discriminator 7
 624 00ea 0222     		movs	r2, #2
 625 00ec 2361     		str	r3, [r4, #16]
 626 00ee 2270     		strb	r2, [r4, #0]
 627 00f0 E9E7     		b	.L45
 628              		.cfi_endproc
 629              	.LFE118:
 630              		.size	adc_lld_serve_rx_interrupt, .-adc_lld_serve_rx_interrupt
 631 00f2 00BFAFF3 		.section	.text.Vector88,"ax",%progbits
 631      0080AFF3 
 631      0080AFF3 
 631      0080
 632              		.align	2
 633              		.p2align 4,,15
 634              		.global	Vector88
 635              		.thumb
 636              		.thumb_func
 637              		.type	Vector88, %function
 638              	Vector88:
 639              	.LFB119:
 640              		.loc 1 111 0 is_stmt 1
 641              		.cfi_startproc
 642              		@ args = 0, pretend = 0, frame = 0
 643              		@ frame_needed = 0, uses_anonymous_args = 0
 644              		.loc 1 117 0
 645 0000 4FF40053 		mov	r3, #8192
 646 0004 C4F20103 		movt	r3, 16385
 647              		.loc 1 118 0
 648 0008 0021     		movs	r1, #0
 649              		.loc 1 117 0
 650 000a 1A68     		ldr	r2, [r3, #0]
 651              	.LVL46:
 652              		.loc 1 111 0
 653 000c 10B5     		push	{r4, lr}
 654              	.LCFI6:
 655              		.cfi_def_cfa_offset 8
 656              		.cfi_offset 4, -8
 657              		.cfi_offset 14, -4
 658              		.loc 1 118 0
 659 000e 1960     		str	r1, [r3, #0]
 660              		.loc 1 121 0
 661 0010 9106     		lsls	r1, r2, #26
 662 0012 27D5     		bpl	.L68
 663              		.loc 1 121 0 is_stmt 0 discriminator 1
 664 0014 154C     		ldr	r4, .L85
 665 0016 E36A     		ldr	r3, [r4, #44]
 666 0018 1B68     		ldr	r3, [r3, #0]
 667 001a 5B68     		ldr	r3, [r3, #4]
 668 001c 13B3     		cbz	r3, .L68
 669              		.loc 1 124 0 is_stmt 1
 670 001e 2369     		ldr	r3, [r4, #16]
 671 0020 03B3     		cbz	r3, .L68
 672              		.loc 1 125 0
 673 0022 2046     		mov	r0, r4
 674 0024 FFF7FEFF 		bl	adc_lld_stop_conversion
 675              	.LVL47:
 676 0028 2369     		ldr	r3, [r4, #16]
ARM GAS  /tmp/ccFzS8Ux.s 			page 13


 677 002a 9B68     		ldr	r3, [r3, #8]
 678 002c 4BB1     		cbz	r3, .L70
 679              		.loc 1 125 0 is_stmt 0 discriminator 1
 680 002e 0522     		movs	r2, #5
 681 0030 2270     		strb	r2, [r4, #0]
 682 0032 2046     		mov	r0, r4
 683 0034 0121     		movs	r1, #1
 684 0036 9847     		blx	r3
 685              	.LVL48:
 686 0038 2378     		ldrb	r3, [r4, #0]	@ zero_extendqisi2
 687 003a 052B     		cmp	r3, #5
 688 003c 04BF     		itt	eq
 689 003e 0223     		moveq	r3, #2
 690 0040 2370     		strbeq	r3, [r4, #0]
 691              	.L70:
 692              		.loc 1 125 0 discriminator 2
 693 0042 0022     		movs	r2, #0
 694 0044 2261     		str	r2, [r4, #16]
 695 0046 0949     		ldr	r1, .L85
 696              	.LBB13:
 697 0048 2023     		movs	r3, #32
 698              	.LVL49:
 699              	@ 125 "/home/felix/Documents/ChibiOS/os/hal/platforms/STM32F4xx/adc_lld.c" 1
 700 004a 83F31188 		msr     BASEPRI, r3
 701              	@ 0 "" 2
 702              	.LVL50:
 703              		.thumb
 704              	.LBE13:
 705 004e 6069     		ldr	r0, [r4, #20]
 706 0050 28B1     		cbz	r0, .L72
 707              	.LVL51:
 708              	.LBB14:
 709              		.loc 1 125 0 discriminator 4
 710 0052 4FF0FF33 		mov	r3, #-1
 711              	.LVL52:
 712 0056 4362     		str	r3, [r0, #36]
 713 0058 4A61     		str	r2, [r1, #20]
 714 005a FFF7FEFF 		bl	chSchReadyI
 715              	.LVL53:
 716              	.L72:
 717              	.LBE14:
 718              	.LBB15:
 719              		.loc 1 125 0 discriminator 5
 720 005e 0023     		movs	r3, #0
 721              	.LVL54:
 722              	@ 125 "/home/felix/Documents/ChibiOS/os/hal/platforms/STM32F4xx/adc_lld.c" 1
 723 0060 83F31188 		msr     BASEPRI, r3
 724              	@ 0 "" 2
 725              	.LVL55:
 726              		.thumb
 727              	.L68:
 728              	.LBE15:
 729              		.loc 1 159 0 is_stmt 1
 730 0064 BDE81040 		pop	{r4, lr}
 731              		.loc 1 158 0
 732 0068 FFF7FEBF 		b	_port_irq_epilogue
 733              	.LVL56:
ARM GAS  /tmp/ccFzS8Ux.s 			page 14


 734              	.L86:
 735              		.align	2
 736              	.L85:
 737 006c 00000000 		.word	.LANCHOR0
 738              		.cfi_endproc
 739              	.LFE119:
 740              		.size	Vector88, .-Vector88
 741              		.section	.text.adcSTM32EnableTSVREFE,"ax",%progbits
 742              		.align	2
 743              		.p2align 4,,15
 744              		.global	adcSTM32EnableTSVREFE
 745              		.thumb
 746              		.thumb_func
 747              		.type	adcSTM32EnableTSVREFE, %function
 748              	adcSTM32EnableTSVREFE:
 749              	.LFB125:
 750              		.loc 1 379 0
 751              		.cfi_startproc
 752              		@ args = 0, pretend = 0, frame = 0
 753              		@ frame_needed = 0, uses_anonymous_args = 0
 754              		@ link register save eliminated.
 755              		.loc 1 381 0
 756 0000 4FF40C53 		mov	r3, #8960
 757 0004 C4F20103 		movt	r3, 16385
 758 0008 5A68     		ldr	r2, [r3, #4]
 759 000a 42F40002 		orr	r2, r2, #8388608
 760 000e 5A60     		str	r2, [r3, #4]
 761 0010 7047     		bx	lr
 762              		.cfi_endproc
 763              	.LFE125:
 764              		.size	adcSTM32EnableTSVREFE, .-adcSTM32EnableTSVREFE
 765 0012 00BFAFF3 		.section	.text.adcSTM32DisableTSVREFE,"ax",%progbits
 765      0080AFF3 
 765      0080AFF3 
 765      0080
 766              		.align	2
 767              		.p2align 4,,15
 768              		.global	adcSTM32DisableTSVREFE
 769              		.thumb
 770              		.thumb_func
 771              		.type	adcSTM32DisableTSVREFE, %function
 772              	adcSTM32DisableTSVREFE:
 773              	.LFB126:
 774              		.loc 1 390 0
 775              		.cfi_startproc
 776              		@ args = 0, pretend = 0, frame = 0
 777              		@ frame_needed = 0, uses_anonymous_args = 0
 778              		@ link register save eliminated.
 779              		.loc 1 392 0
 780 0000 4FF40C53 		mov	r3, #8960
 781 0004 C4F20103 		movt	r3, 16385
 782 0008 5A68     		ldr	r2, [r3, #4]
 783 000a 22F40002 		bic	r2, r2, #8388608
 784 000e 5A60     		str	r2, [r3, #4]
 785 0010 7047     		bx	lr
 786              		.cfi_endproc
 787              	.LFE126:
ARM GAS  /tmp/ccFzS8Ux.s 			page 15


 788              		.size	adcSTM32DisableTSVREFE, .-adcSTM32DisableTSVREFE
 789 0012 00BFAFF3 		.section	.text.adcSTM32EnableVBATE,"ax",%progbits
 789      0080AFF3 
 789      0080AFF3 
 789      0080
 790              		.align	2
 791              		.p2align 4,,15
 792              		.global	adcSTM32EnableVBATE
 793              		.thumb
 794              		.thumb_func
 795              		.type	adcSTM32EnableVBATE, %function
 796              	adcSTM32EnableVBATE:
 797              	.LFB127:
 798              		.loc 1 401 0
 799              		.cfi_startproc
 800              		@ args = 0, pretend = 0, frame = 0
 801              		@ frame_needed = 0, uses_anonymous_args = 0
 802              		@ link register save eliminated.
 803              		.loc 1 403 0
 804 0000 4FF40C53 		mov	r3, #8960
 805 0004 C4F20103 		movt	r3, 16385
 806 0008 5A68     		ldr	r2, [r3, #4]
 807 000a 42F48002 		orr	r2, r2, #4194304
 808 000e 5A60     		str	r2, [r3, #4]
 809 0010 7047     		bx	lr
 810              		.cfi_endproc
 811              	.LFE127:
 812              		.size	adcSTM32EnableVBATE, .-adcSTM32EnableVBATE
 813 0012 00BFAFF3 		.section	.text.adcSTM32DisableVBATE,"ax",%progbits
 813      0080AFF3 
 813      0080AFF3 
 813      0080
 814              		.align	2
 815              		.p2align 4,,15
 816              		.global	adcSTM32DisableVBATE
 817              		.thumb
 818              		.thumb_func
 819              		.type	adcSTM32DisableVBATE, %function
 820              	adcSTM32DisableVBATE:
 821              	.LFB128:
 822              		.loc 1 412 0
 823              		.cfi_startproc
 824              		@ args = 0, pretend = 0, frame = 0
 825              		@ frame_needed = 0, uses_anonymous_args = 0
 826              		@ link register save eliminated.
 827              		.loc 1 414 0
 828 0000 4FF40C53 		mov	r3, #8960
 829 0004 C4F20103 		movt	r3, 16385
 830 0008 5A68     		ldr	r2, [r3, #4]
 831 000a 22F48002 		bic	r2, r2, #4194304
 832 000e 5A60     		str	r2, [r3, #4]
 833 0010 7047     		bx	lr
 834              		.cfi_endproc
 835              	.LFE128:
 836              		.size	adcSTM32DisableVBATE, .-adcSTM32DisableVBATE
 837              		.global	ADCD1
 838 0012 00BFAFF3 		.section	.bss.ADCD1,"aw",%nobits
ARM GAS  /tmp/ccFzS8Ux.s 			page 16


 838      0080AFF3 
 838      0080AFF3 
 838      0080
 839              		.align	2
 840              		.set	.LANCHOR0,. + 0
 841              		.type	ADCD1, %object
 842              		.size	ADCD1, 52
 843              	ADCD1:
 844 0000 00000000 		.space	52
 844      00000000 
 844      00000000 
 844      00000000 
 844      00000000 
 845              		.text
 846              	.Letext0:
 847              		.file 2 "/opt/tools_arm/lib/gcc/arm-none-eabi/4.7.3/include/stddef.h"
 848              		.file 3 "/opt/tools_arm/lib/gcc/arm-none-eabi/4.7.3/../../../../arm-none-eabi/include/stdint.h"
 849              		.file 4 "/home/felix/Documents/ChibiOS/os/ports/GCC/ARMCMx/chtypes.h"
 850              		.file 5 "/home/felix/Documents/ChibiOS/os/kernel/include/chlists.h"
 851              		.file 6 "/home/felix/Documents/ChibiOS/os/kernel/include/chthreads.h"
 852              		.file 7 "/home/felix/Documents/ChibiOS/os/ports/GCC/ARMCMx/chcore_v7m.h"
 853              		.file 8 "/home/felix/Documents/ChibiOS/os/kernel/include/chmtx.h"
 854              		.file 9 "/home/felix/Documents/ChibiOS/os/hal/platforms/STM32F4xx/stm32f4xx.h"
 855              		.file 10 "/home/felix/Documents/ChibiOS/os/hal/platforms/STM32F4xx/stm32_dma.h"
 856              		.file 11 "/home/felix/Documents/ChibiOS/os/hal/include/adc.h"
 857              		.file 12 "/home/felix/Documents/ChibiOS/os/hal/platforms/STM32F4xx/adc_lld.h"
 858              		.file 13 "/home/felix/Documents/ChibiOS/os/ports/common/ARMCMx/CMSIS/include/core_cm4.h"
 859              		.file 14 "/home/felix/Documents/ChibiOS/os/ports/common/ARMCMx/nvic.h"
 860              		.file 15 "/home/felix/Documents/ChibiOS/os/kernel/include/chschd.h"
 861              		.section	.debug_info,"",%progbits
 862              	.Ldebug_info0:
 863 0000 B9110000 		.4byte	0x11b9
 864 0004 0200     		.2byte	0x2
 865 0006 00000000 		.4byte	.Ldebug_abbrev0
 866 000a 04       		.byte	0x4
 867 000b 01       		.uleb128 0x1
 868 000c 0D040000 		.4byte	.LASF263
 869 0010 01       		.byte	0x1
 870 0011 900A0000 		.4byte	.LASF264
 871 0015 38000000 		.4byte	.Ldebug_ranges0+0x38
 872 0019 00000000 		.4byte	0
 873 001d 00000000 		.4byte	0
 874 0021 00000000 		.4byte	.Ldebug_line0
 875 0025 02       		.uleb128 0x2
 876 0026 04       		.byte	0x4
 877 0027 05       		.byte	0x5
 878 0028 696E7400 		.ascii	"int\000"
 879 002c 03       		.uleb128 0x3
 880 002d 05000000 		.4byte	.LASF2
 881 0031 02       		.byte	0x2
 882 0032 D5       		.byte	0xd5
 883 0033 37000000 		.4byte	0x37
 884 0037 04       		.uleb128 0x4
 885 0038 04       		.byte	0x4
 886 0039 07       		.byte	0x7
 887 003a E8060000 		.4byte	.LASF0
 888 003e 04       		.uleb128 0x4
ARM GAS  /tmp/ccFzS8Ux.s 			page 17


 889 003f 01       		.byte	0x1
 890 0040 06       		.byte	0x6
 891 0041 65020000 		.4byte	.LASF1
 892 0045 03       		.uleb128 0x3
 893 0046 7B020000 		.4byte	.LASF3
 894 004a 03       		.byte	0x3
 895 004b 2A       		.byte	0x2a
 896 004c 50000000 		.4byte	0x50
 897 0050 04       		.uleb128 0x4
 898 0051 01       		.byte	0x1
 899 0052 08       		.byte	0x8
 900 0053 BD020000 		.4byte	.LASF4
 901 0057 04       		.uleb128 0x4
 902 0058 02       		.byte	0x2
 903 0059 05       		.byte	0x5
 904 005a E2090000 		.4byte	.LASF5
 905 005e 03       		.uleb128 0x3
 906 005f 85080000 		.4byte	.LASF6
 907 0063 03       		.byte	0x3
 908 0064 36       		.byte	0x36
 909 0065 69000000 		.4byte	0x69
 910 0069 04       		.uleb128 0x4
 911 006a 02       		.byte	0x2
 912 006b 07       		.byte	0x7
 913 006c 550B0000 		.4byte	.LASF7
 914 0070 03       		.uleb128 0x3
 915 0071 8B000000 		.4byte	.LASF8
 916 0075 03       		.byte	0x3
 917 0076 4F       		.byte	0x4f
 918 0077 7B000000 		.4byte	0x7b
 919 007b 04       		.uleb128 0x4
 920 007c 04       		.byte	0x4
 921 007d 05       		.byte	0x5
 922 007e A9010000 		.4byte	.LASF9
 923 0082 03       		.uleb128 0x3
 924 0083 F70A0000 		.4byte	.LASF10
 925 0087 03       		.byte	0x3
 926 0088 50       		.byte	0x50
 927 0089 8D000000 		.4byte	0x8d
 928 008d 04       		.uleb128 0x4
 929 008e 04       		.byte	0x4
 930 008f 07       		.byte	0x7
 931 0090 EB040000 		.4byte	.LASF11
 932 0094 04       		.uleb128 0x4
 933 0095 08       		.byte	0x8
 934 0096 05       		.byte	0x5
 935 0097 1A060000 		.4byte	.LASF12
 936 009b 04       		.uleb128 0x4
 937 009c 08       		.byte	0x8
 938 009d 07       		.byte	0x7
 939 009e 66080000 		.4byte	.LASF13
 940 00a2 03       		.uleb128 0x3
 941 00a3 240A0000 		.4byte	.LASF14
 942 00a7 04       		.byte	0x4
 943 00a8 2B       		.byte	0x2b
 944 00a9 AD000000 		.4byte	0xad
 945 00ad 04       		.uleb128 0x4
ARM GAS  /tmp/ccFzS8Ux.s 			page 18


 946 00ae 01       		.byte	0x1
 947 00af 02       		.byte	0x2
 948 00b0 36030000 		.4byte	.LASF15
 949 00b4 03       		.uleb128 0x3
 950 00b5 51090000 		.4byte	.LASF16
 951 00b9 04       		.byte	0x4
 952 00ba 2C       		.byte	0x2c
 953 00bb 45000000 		.4byte	0x45
 954 00bf 03       		.uleb128 0x3
 955 00c0 DA010000 		.4byte	.LASF17
 956 00c4 04       		.byte	0x4
 957 00c5 2D       		.byte	0x2d
 958 00c6 45000000 		.4byte	0x45
 959 00ca 03       		.uleb128 0x3
 960 00cb 740A0000 		.4byte	.LASF18
 961 00cf 04       		.byte	0x4
 962 00d0 2E       		.byte	0x2e
 963 00d1 45000000 		.4byte	0x45
 964 00d5 03       		.uleb128 0x3
 965 00d6 AA080000 		.4byte	.LASF19
 966 00da 04       		.byte	0x4
 967 00db 2F       		.byte	0x2f
 968 00dc 45000000 		.4byte	0x45
 969 00e0 03       		.uleb128 0x3
 970 00e1 5B000000 		.4byte	.LASF20
 971 00e5 04       		.byte	0x4
 972 00e6 30       		.byte	0x30
 973 00e7 82000000 		.4byte	0x82
 974 00eb 03       		.uleb128 0x3
 975 00ec 8E080000 		.4byte	.LASF21
 976 00f0 04       		.byte	0x4
 977 00f1 31       		.byte	0x31
 978 00f2 70000000 		.4byte	0x70
 979 00f6 03       		.uleb128 0x3
 980 00f7 83020000 		.4byte	.LASF22
 981 00fb 04       		.byte	0x4
 982 00fc 33       		.byte	0x33
 983 00fd 82000000 		.4byte	0x82
 984 0101 03       		.uleb128 0x3
 985 0102 40000000 		.4byte	.LASF23
 986 0106 04       		.byte	0x4
 987 0107 35       		.byte	0x35
 988 0108 82000000 		.4byte	0x82
 989 010c 03       		.uleb128 0x3
 990 010d 480A0000 		.4byte	.LASF24
 991 0111 05       		.byte	0x5
 992 0112 2A       		.byte	0x2a
 993 0113 17010000 		.4byte	0x117
 994 0117 05       		.uleb128 0x5
 995 0118 480A0000 		.4byte	.LASF24
 996 011c 48       		.byte	0x48
 997 011d 06       		.byte	0x6
 998 011e 5E       		.byte	0x5e
 999 011f 3C020000 		.4byte	0x23c
 1000 0123 06       		.uleb128 0x6
 1001 0124 B2010000 		.4byte	.LASF25
 1002 0128 06       		.byte	0x6
ARM GAS  /tmp/ccFzS8Ux.s 			page 19


 1003 0129 5F       		.byte	0x5f
 1004 012a 61020000 		.4byte	0x261
 1005 012e 02       		.byte	0x2
 1006 012f 23       		.byte	0x23
 1007 0130 00       		.uleb128 0
 1008 0131 06       		.uleb128 0x6
 1009 0132 B9010000 		.4byte	.LASF26
 1010 0136 06       		.byte	0x6
 1011 0137 61       		.byte	0x61
 1012 0138 61020000 		.4byte	0x261
 1013 013c 02       		.byte	0x2
 1014 013d 23       		.byte	0x23
 1015 013e 04       		.uleb128 0x4
 1016 013f 06       		.uleb128 0x6
 1017 0140 82030000 		.4byte	.LASF27
 1018 0144 06       		.byte	0x6
 1019 0145 63       		.byte	0x63
 1020 0146 E0000000 		.4byte	0xe0
 1021 014a 02       		.byte	0x2
 1022 014b 23       		.byte	0x23
 1023 014c 08       		.uleb128 0x8
 1024 014d 06       		.uleb128 0x6
 1025 014e 55000000 		.4byte	.LASF28
 1026 0152 06       		.byte	0x6
 1027 0153 64       		.byte	0x64
 1028 0154 2F030000 		.4byte	0x32f
 1029 0158 02       		.byte	0x2
 1030 0159 23       		.byte	0x23
 1031 015a 0C       		.uleb128 0xc
 1032 015b 06       		.uleb128 0x6
 1033 015c A1010000 		.4byte	.LASF29
 1034 0160 06       		.byte	0x6
 1035 0161 66       		.byte	0x66
 1036 0162 61020000 		.4byte	0x261
 1037 0166 02       		.byte	0x2
 1038 0167 23       		.byte	0x23
 1039 0168 10       		.uleb128 0x10
 1040 0169 06       		.uleb128 0x6
 1041 016a 7D080000 		.4byte	.LASF30
 1042 016e 06       		.byte	0x6
 1043 016f 67       		.byte	0x67
 1044 0170 61020000 		.4byte	0x261
 1045 0174 02       		.byte	0x2
 1046 0175 23       		.byte	0x23
 1047 0176 14       		.uleb128 0x14
 1048 0177 06       		.uleb128 0x6
 1049 0178 DC0B0000 		.4byte	.LASF31
 1050 017c 06       		.byte	0x6
 1051 017d 6E       		.byte	0x6e
 1052 017e E0030000 		.4byte	0x3e0
 1053 0182 02       		.byte	0x2
 1054 0183 23       		.byte	0x23
 1055 0184 18       		.uleb128 0x18
 1056 0185 06       		.uleb128 0x6
 1057 0186 2B0C0000 		.4byte	.LASF32
 1058 018a 06       		.byte	0x6
 1059 018b 79       		.byte	0x79
ARM GAS  /tmp/ccFzS8Ux.s 			page 20


 1060 018c BF000000 		.4byte	0xbf
 1061 0190 02       		.byte	0x2
 1062 0191 23       		.byte	0x23
 1063 0192 1C       		.uleb128 0x1c
 1064 0193 06       		.uleb128 0x6
 1065 0194 D6060000 		.4byte	.LASF33
 1066 0198 06       		.byte	0x6
 1067 0199 7D       		.byte	0x7d
 1068 019a B4000000 		.4byte	0xb4
 1069 019e 02       		.byte	0x2
 1070 019f 23       		.byte	0x23
 1071 01a0 1D       		.uleb128 0x1d
 1072 01a1 06       		.uleb128 0x6
 1073 01a2 2B070000 		.4byte	.LASF34
 1074 01a6 06       		.byte	0x6
 1075 01a7 82       		.byte	0x82
 1076 01a8 CA000000 		.4byte	0xca
 1077 01ac 02       		.byte	0x2
 1078 01ad 23       		.byte	0x23
 1079 01ae 1E       		.uleb128 0x1e
 1080 01af 06       		.uleb128 0x6
 1081 01b0 71020000 		.4byte	.LASF35
 1082 01b4 06       		.byte	0x6
 1083 01b5 88       		.byte	0x88
 1084 01b6 D5000000 		.4byte	0xd5
 1085 01ba 02       		.byte	0x2
 1086 01bb 23       		.byte	0x23
 1087 01bc 1F       		.uleb128 0x1f
 1088 01bd 06       		.uleb128 0x6
 1089 01be CA070000 		.4byte	.LASF36
 1090 01c2 06       		.byte	0x6
 1091 01c3 8F       		.byte	0x8f
 1092 01c4 5E030000 		.4byte	0x35e
 1093 01c8 02       		.byte	0x2
 1094 01c9 23       		.byte	0x23
 1095 01ca 20       		.uleb128 0x20
 1096 01cb 07       		.uleb128 0x7
 1097 01cc 705F7500 		.ascii	"p_u\000"
 1098 01d0 06       		.byte	0x6
 1099 01d1 B4       		.byte	0xb4
 1100 01d2 AB030000 		.4byte	0x3ab
 1101 01d6 02       		.byte	0x2
 1102 01d7 23       		.byte	0x23
 1103 01d8 24       		.uleb128 0x24
 1104 01d9 06       		.uleb128 0x6
 1105 01da BB060000 		.4byte	.LASF37
 1106 01de 06       		.byte	0x6
 1107 01df B9       		.byte	0xb9
 1108 01e0 89020000 		.4byte	0x289
 1109 01e4 02       		.byte	0x2
 1110 01e5 23       		.byte	0x23
 1111 01e6 28       		.uleb128 0x28
 1112 01e7 06       		.uleb128 0x6
 1113 01e8 80000000 		.4byte	.LASF38
 1114 01ec 06       		.byte	0x6
 1115 01ed BF       		.byte	0xbf
 1116 01ee 67020000 		.4byte	0x267
ARM GAS  /tmp/ccFzS8Ux.s 			page 21


 1117 01f2 02       		.byte	0x2
 1118 01f3 23       		.byte	0x23
 1119 01f4 2C       		.uleb128 0x2c
 1120 01f5 06       		.uleb128 0x6
 1121 01f6 1B0C0000 		.4byte	.LASF39
 1122 01fa 06       		.byte	0x6
 1123 01fb C3       		.byte	0xc3
 1124 01fc EB000000 		.4byte	0xeb
 1125 0200 02       		.byte	0x2
 1126 0201 23       		.byte	0x23
 1127 0202 34       		.uleb128 0x34
 1128 0203 06       		.uleb128 0x6
 1129 0204 42040000 		.4byte	.LASF40
 1130 0208 06       		.byte	0x6
 1131 0209 C9       		.byte	0xc9
 1132 020a F6000000 		.4byte	0xf6
 1133 020e 02       		.byte	0x2
 1134 020f 23       		.byte	0x23
 1135 0210 38       		.uleb128 0x38
 1136 0211 06       		.uleb128 0x6
 1137 0212 EC010000 		.4byte	.LASF41
 1138 0216 06       		.byte	0x6
 1139 0217 D0       		.byte	0xd0
 1140 0218 F2030000 		.4byte	0x3f2
 1141 021c 02       		.byte	0x2
 1142 021d 23       		.byte	0x23
 1143 021e 3C       		.uleb128 0x3c
 1144 021f 06       		.uleb128 0x6
 1145 0220 F1070000 		.4byte	.LASF42
 1146 0224 06       		.byte	0x6
 1147 0225 D4       		.byte	0xd4
 1148 0226 E0000000 		.4byte	0xe0
 1149 022a 02       		.byte	0x2
 1150 022b 23       		.byte	0x23
 1151 022c 40       		.uleb128 0x40
 1152 022d 06       		.uleb128 0x6
 1153 022e 16070000 		.4byte	.LASF43
 1154 0232 06       		.byte	0x6
 1155 0233 DA       		.byte	0xda
 1156 0234 9F020000 		.4byte	0x29f
 1157 0238 02       		.byte	0x2
 1158 0239 23       		.byte	0x23
 1159 023a 44       		.uleb128 0x44
 1160 023b 00       		.byte	0
 1161 023c 08       		.uleb128 0x8
 1162 023d 08       		.byte	0x8
 1163 023e 05       		.byte	0x5
 1164 023f 61       		.byte	0x61
 1165 0240 61020000 		.4byte	0x261
 1166 0244 06       		.uleb128 0x6
 1167 0245 B2010000 		.4byte	.LASF25
 1168 0249 05       		.byte	0x5
 1169 024a 62       		.byte	0x62
 1170 024b 61020000 		.4byte	0x261
 1171 024f 02       		.byte	0x2
 1172 0250 23       		.byte	0x23
 1173 0251 00       		.uleb128 0
ARM GAS  /tmp/ccFzS8Ux.s 			page 22


 1174 0252 06       		.uleb128 0x6
 1175 0253 B9010000 		.4byte	.LASF26
 1176 0257 05       		.byte	0x5
 1177 0258 64       		.byte	0x64
 1178 0259 61020000 		.4byte	0x261
 1179 025d 02       		.byte	0x2
 1180 025e 23       		.byte	0x23
 1181 025f 04       		.uleb128 0x4
 1182 0260 00       		.byte	0
 1183 0261 09       		.uleb128 0x9
 1184 0262 04       		.byte	0x4
 1185 0263 0C010000 		.4byte	0x10c
 1186 0267 03       		.uleb128 0x3
 1187 0268 0E0B0000 		.4byte	.LASF44
 1188 026c 05       		.byte	0x5
 1189 026d 66       		.byte	0x66
 1190 026e 3C020000 		.4byte	0x23c
 1191 0272 08       		.uleb128 0x8
 1192 0273 04       		.byte	0x4
 1193 0274 05       		.byte	0x5
 1194 0275 6B       		.byte	0x6b
 1195 0276 89020000 		.4byte	0x289
 1196 027a 06       		.uleb128 0x6
 1197 027b B2010000 		.4byte	.LASF25
 1198 027f 05       		.byte	0x5
 1199 0280 6D       		.byte	0x6d
 1200 0281 61020000 		.4byte	0x261
 1201 0285 02       		.byte	0x2
 1202 0286 23       		.byte	0x23
 1203 0287 00       		.uleb128 0
 1204 0288 00       		.byte	0
 1205 0289 03       		.uleb128 0x3
 1206 028a 52070000 		.4byte	.LASF45
 1207 028e 05       		.byte	0x5
 1208 028f 70       		.byte	0x70
 1209 0290 72020000 		.4byte	0x272
 1210 0294 03       		.uleb128 0x3
 1211 0295 0E020000 		.4byte	.LASF46
 1212 0299 07       		.byte	0x7
 1213 029a E5       		.byte	0xe5
 1214 029b 9F020000 		.4byte	0x29f
 1215 029f 0A       		.uleb128 0xa
 1216 02a0 04       		.byte	0x4
 1217 02a1 0B       		.uleb128 0xb
 1218 02a2 3B040000 		.4byte	.LASF47
 1219 02a6 24       		.byte	0x24
 1220 02a7 07       		.byte	0x7
 1221 02a8 0C01     		.2byte	0x10c
 1222 02aa 2F030000 		.4byte	0x32f
 1223 02ae 0C       		.uleb128 0xc
 1224 02af 723400   		.ascii	"r4\000"
 1225 02b2 07       		.byte	0x7
 1226 02b3 1F01     		.2byte	0x11f
 1227 02b5 94020000 		.4byte	0x294
 1228 02b9 02       		.byte	0x2
 1229 02ba 23       		.byte	0x23
 1230 02bb 00       		.uleb128 0
ARM GAS  /tmp/ccFzS8Ux.s 			page 23


 1231 02bc 0C       		.uleb128 0xc
 1232 02bd 723500   		.ascii	"r5\000"
 1233 02c0 07       		.byte	0x7
 1234 02c1 2001     		.2byte	0x120
 1235 02c3 94020000 		.4byte	0x294
 1236 02c7 02       		.byte	0x2
 1237 02c8 23       		.byte	0x23
 1238 02c9 04       		.uleb128 0x4
 1239 02ca 0C       		.uleb128 0xc
 1240 02cb 723600   		.ascii	"r6\000"
 1241 02ce 07       		.byte	0x7
 1242 02cf 2101     		.2byte	0x121
 1243 02d1 94020000 		.4byte	0x294
 1244 02d5 02       		.byte	0x2
 1245 02d6 23       		.byte	0x23
 1246 02d7 08       		.uleb128 0x8
 1247 02d8 0C       		.uleb128 0xc
 1248 02d9 723700   		.ascii	"r7\000"
 1249 02dc 07       		.byte	0x7
 1250 02dd 2201     		.2byte	0x122
 1251 02df 94020000 		.4byte	0x294
 1252 02e3 02       		.byte	0x2
 1253 02e4 23       		.byte	0x23
 1254 02e5 0C       		.uleb128 0xc
 1255 02e6 0C       		.uleb128 0xc
 1256 02e7 723800   		.ascii	"r8\000"
 1257 02ea 07       		.byte	0x7
 1258 02eb 2301     		.2byte	0x123
 1259 02ed 94020000 		.4byte	0x294
 1260 02f1 02       		.byte	0x2
 1261 02f2 23       		.byte	0x23
 1262 02f3 10       		.uleb128 0x10
 1263 02f4 0C       		.uleb128 0xc
 1264 02f5 723900   		.ascii	"r9\000"
 1265 02f8 07       		.byte	0x7
 1266 02f9 2401     		.2byte	0x124
 1267 02fb 94020000 		.4byte	0x294
 1268 02ff 02       		.byte	0x2
 1269 0300 23       		.byte	0x23
 1270 0301 14       		.uleb128 0x14
 1271 0302 0C       		.uleb128 0xc
 1272 0303 72313000 		.ascii	"r10\000"
 1273 0307 07       		.byte	0x7
 1274 0308 2501     		.2byte	0x125
 1275 030a 94020000 		.4byte	0x294
 1276 030e 02       		.byte	0x2
 1277 030f 23       		.byte	0x23
 1278 0310 18       		.uleb128 0x18
 1279 0311 0C       		.uleb128 0xc
 1280 0312 72313100 		.ascii	"r11\000"
 1281 0316 07       		.byte	0x7
 1282 0317 2601     		.2byte	0x126
 1283 0319 94020000 		.4byte	0x294
 1284 031d 02       		.byte	0x2
 1285 031e 23       		.byte	0x23
 1286 031f 1C       		.uleb128 0x1c
 1287 0320 0C       		.uleb128 0xc
ARM GAS  /tmp/ccFzS8Ux.s 			page 24


 1288 0321 6C7200   		.ascii	"lr\000"
 1289 0324 07       		.byte	0x7
 1290 0325 2701     		.2byte	0x127
 1291 0327 94020000 		.4byte	0x294
 1292 032b 02       		.byte	0x2
 1293 032c 23       		.byte	0x23
 1294 032d 20       		.uleb128 0x20
 1295 032e 00       		.byte	0
 1296 032f 0B       		.uleb128 0xb
 1297 0330 8F020000 		.4byte	.LASF48
 1298 0334 04       		.byte	0x4
 1299 0335 07       		.byte	0x7
 1300 0336 3101     		.2byte	0x131
 1301 0338 4C030000 		.4byte	0x34c
 1302 033c 0C       		.uleb128 0xc
 1303 033d 72313300 		.ascii	"r13\000"
 1304 0341 07       		.byte	0x7
 1305 0342 3201     		.2byte	0x132
 1306 0344 4C030000 		.4byte	0x34c
 1307 0348 02       		.byte	0x2
 1308 0349 23       		.byte	0x23
 1309 034a 00       		.uleb128 0
 1310 034b 00       		.byte	0
 1311 034c 09       		.uleb128 0x9
 1312 034d 04       		.byte	0x4
 1313 034e A1020000 		.4byte	0x2a1
 1314 0352 0D       		.uleb128 0xd
 1315 0353 82000000 		.4byte	0x82
 1316 0357 04       		.uleb128 0x4
 1317 0358 04       		.byte	0x4
 1318 0359 07       		.byte	0x7
 1319 035a 29000000 		.4byte	.LASF49
 1320 035e 0D       		.uleb128 0xd
 1321 035f 01010000 		.4byte	0x101
 1322 0363 05       		.uleb128 0x5
 1323 0364 0A060000 		.4byte	.LASF50
 1324 0368 10       		.byte	0x10
 1325 0369 08       		.byte	0x8
 1326 036a 2C       		.byte	0x2c
 1327 036b 9A030000 		.4byte	0x39a
 1328 036f 06       		.uleb128 0x6
 1329 0370 4C060000 		.4byte	.LASF51
 1330 0374 08       		.byte	0x8
 1331 0375 2D       		.byte	0x2d
 1332 0376 67020000 		.4byte	0x267
 1333 037a 02       		.byte	0x2
 1334 037b 23       		.byte	0x23
 1335 037c 00       		.uleb128 0
 1336 037d 06       		.uleb128 0x6
 1337 037e 4E010000 		.4byte	.LASF52
 1338 0382 08       		.byte	0x8
 1339 0383 2F       		.byte	0x2f
 1340 0384 61020000 		.4byte	0x261
 1341 0388 02       		.byte	0x2
 1342 0389 23       		.byte	0x23
 1343 038a 08       		.uleb128 0x8
 1344 038b 06       		.uleb128 0x6
ARM GAS  /tmp/ccFzS8Ux.s 			page 25


 1345 038c E30B0000 		.4byte	.LASF53
 1346 0390 08       		.byte	0x8
 1347 0391 31       		.byte	0x31
 1348 0392 9A030000 		.4byte	0x39a
 1349 0396 02       		.byte	0x2
 1350 0397 23       		.byte	0x23
 1351 0398 0C       		.uleb128 0xc
 1352 0399 00       		.byte	0
 1353 039a 09       		.uleb128 0x9
 1354 039b 04       		.byte	0x4
 1355 039c 63030000 		.4byte	0x363
 1356 03a0 03       		.uleb128 0x3
 1357 03a1 0A060000 		.4byte	.LASF50
 1358 03a5 08       		.byte	0x8
 1359 03a6 33       		.byte	0x33
 1360 03a7 63030000 		.4byte	0x363
 1361 03ab 0E       		.uleb128 0xe
 1362 03ac 04       		.byte	0x4
 1363 03ad 06       		.byte	0x6
 1364 03ae 96       		.byte	0x96
 1365 03af E0030000 		.4byte	0x3e0
 1366 03b3 0F       		.uleb128 0xf
 1367 03b4 430B0000 		.4byte	.LASF54
 1368 03b8 06       		.byte	0x6
 1369 03b9 9D       		.byte	0x9d
 1370 03ba EB000000 		.4byte	0xeb
 1371 03be 0F       		.uleb128 0xf
 1372 03bf 62010000 		.4byte	.LASF55
 1373 03c3 06       		.byte	0x6
 1374 03c4 A4       		.byte	0xa4
 1375 03c5 EB000000 		.4byte	0xeb
 1376 03c9 0F       		.uleb128 0xf
 1377 03ca 91030000 		.4byte	.LASF56
 1378 03ce 06       		.byte	0x6
 1379 03cf AB       		.byte	0xab
 1380 03d0 9F020000 		.4byte	0x29f
 1381 03d4 0F       		.uleb128 0xf
 1382 03d5 7C010000 		.4byte	.LASF57
 1383 03d9 06       		.byte	0x6
 1384 03da B2       		.byte	0xb2
 1385 03db F6000000 		.4byte	0xf6
 1386 03df 00       		.byte	0
 1387 03e0 09       		.uleb128 0x9
 1388 03e1 04       		.byte	0x4
 1389 03e2 E6030000 		.4byte	0x3e6
 1390 03e6 10       		.uleb128 0x10
 1391 03e7 EB030000 		.4byte	0x3eb
 1392 03eb 04       		.uleb128 0x4
 1393 03ec 01       		.byte	0x1
 1394 03ed 08       		.byte	0x8
 1395 03ee 76030000 		.4byte	.LASF58
 1396 03f2 09       		.uleb128 0x9
 1397 03f3 04       		.byte	0x4
 1398 03f4 A0030000 		.4byte	0x3a0
 1399 03f8 11       		.uleb128 0x11
 1400 03f9 D1070000 		.4byte	.LASF265
 1401 03fd 01       		.byte	0x1
ARM GAS  /tmp/ccFzS8Ux.s 			page 26


 1402 03fe 09       		.byte	0x9
 1403 03ff 8C       		.byte	0x8c
 1404 0400 33060000 		.4byte	0x633
 1405 0404 12       		.uleb128 0x12
 1406 0405 CD040000 		.4byte	.LASF59
 1407 0409 72       		.sleb128 -14
 1408 040a 12       		.uleb128 0x12
 1409 040b 0C050000 		.4byte	.LASF60
 1410 040f 74       		.sleb128 -12
 1411 0410 12       		.uleb128 0x12
 1412 0411 D6050000 		.4byte	.LASF61
 1413 0415 75       		.sleb128 -11
 1414 0416 12       		.uleb128 0x12
 1415 0417 66030000 		.4byte	.LASF62
 1416 041b 76       		.sleb128 -10
 1417 041c 12       		.uleb128 0x12
 1418 041d 7C060000 		.4byte	.LASF63
 1419 0421 7B       		.sleb128 -5
 1420 0422 12       		.uleb128 0x12
 1421 0423 94090000 		.4byte	.LASF64
 1422 0427 7C       		.sleb128 -4
 1423 0428 12       		.uleb128 0x12
 1424 0429 8A0B0000 		.4byte	.LASF65
 1425 042d 7E       		.sleb128 -2
 1426 042e 12       		.uleb128 0x12
 1427 042f 36020000 		.4byte	.LASF66
 1428 0433 7F       		.sleb128 -1
 1429 0434 12       		.uleb128 0x12
 1430 0435 E1040000 		.4byte	.LASF67
 1431 0439 00       		.sleb128 0
 1432 043a 12       		.uleb128 0x12
 1433 043b 33090000 		.4byte	.LASF68
 1434 043f 01       		.sleb128 1
 1435 0440 12       		.uleb128 0x12
 1436 0441 22050000 		.4byte	.LASF69
 1437 0445 02       		.sleb128 2
 1438 0446 12       		.uleb128 0x12
 1439 0447 D30A0000 		.4byte	.LASF70
 1440 044b 03       		.sleb128 3
 1441 044c 12       		.uleb128 0x12
 1442 044d EA000000 		.4byte	.LASF71
 1443 0451 04       		.sleb128 4
 1444 0452 12       		.uleb128 0x12
 1445 0453 EC090000 		.4byte	.LASF72
 1446 0457 05       		.sleb128 5
 1447 0458 12       		.uleb128 0x12
 1448 0459 46090000 		.4byte	.LASF73
 1449 045d 06       		.sleb128 6
 1450 045e 12       		.uleb128 0x12
 1451 045f 6D040000 		.4byte	.LASF74
 1452 0463 07       		.sleb128 7
 1453 0464 12       		.uleb128 0x12
 1454 0465 BF080000 		.4byte	.LASF75
 1455 0469 08       		.sleb128 8
 1456 046a 12       		.uleb128 0x12
 1457 046b 7F0B0000 		.4byte	.LASF76
 1458 046f 09       		.sleb128 9
ARM GAS  /tmp/ccFzS8Ux.s 			page 27


 1459 0470 12       		.uleb128 0x12
 1460 0471 4A0B0000 		.4byte	.LASF77
 1461 0475 0A       		.sleb128 10
 1462 0476 12       		.uleb128 0x12
 1463 0477 07080000 		.4byte	.LASF78
 1464 047b 0B       		.sleb128 11
 1465 047c 12       		.uleb128 0x12
 1466 047d 6E070000 		.4byte	.LASF79
 1467 0481 0C       		.sleb128 12
 1468 0482 12       		.uleb128 0x12
 1469 0483 97020000 		.4byte	.LASF80
 1470 0487 0D       		.sleb128 13
 1471 0488 12       		.uleb128 0x12
 1472 0489 120A0000 		.4byte	.LASF81
 1473 048d 0E       		.sleb128 14
 1474 048e 12       		.uleb128 0x12
 1475 048f 59090000 		.4byte	.LASF82
 1476 0493 0F       		.sleb128 15
 1477 0494 12       		.uleb128 0x12
 1478 0495 85040000 		.4byte	.LASF83
 1479 0499 10       		.sleb128 16
 1480 049a 12       		.uleb128 0x12
 1481 049b D6070000 		.4byte	.LASF84
 1482 049f 11       		.sleb128 17
 1483 04a0 12       		.uleb128 0x12
 1484 04a1 F6080000 		.4byte	.LASF85
 1485 04a5 12       		.sleb128 18
 1486 04a6 12       		.uleb128 0x12
 1487 04a7 78040000 		.4byte	.LASF86
 1488 04ab 13       		.sleb128 19
 1489 04ac 12       		.uleb128 0x12
 1490 04ad 98030000 		.4byte	.LASF87
 1491 04b1 14       		.sleb128 20
 1492 04b2 12       		.uleb128 0x12
 1493 04b3 000B0000 		.4byte	.LASF88
 1494 04b7 15       		.sleb128 21
 1495 04b8 12       		.uleb128 0x12
 1496 04b9 32050000 		.4byte	.LASF89
 1497 04bd 16       		.sleb128 22
 1498 04be 12       		.uleb128 0x12
 1499 04bf 1B0B0000 		.4byte	.LASF90
 1500 04c3 17       		.sleb128 23
 1501 04c4 12       		.uleb128 0x12
 1502 04c5 F7050000 		.4byte	.LASF91
 1503 04c9 18       		.sleb128 24
 1504 04ca 12       		.uleb128 0x12
 1505 04cb 540A0000 		.4byte	.LASF92
 1506 04cf 19       		.sleb128 25
 1507 04d0 12       		.uleb128 0x12
 1508 04d1 F6010000 		.4byte	.LASF93
 1509 04d5 1A       		.sleb128 26
 1510 04d6 12       		.uleb128 0x12
 1511 04d7 52040000 		.4byte	.LASF94
 1512 04db 1B       		.sleb128 27
 1513 04dc 12       		.uleb128 0x12
 1514 04dd 0C010000 		.4byte	.LASF95
 1515 04e1 1C       		.sleb128 28
ARM GAS  /tmp/ccFzS8Ux.s 			page 28


 1516 04e2 12       		.uleb128 0x12
 1517 04e3 94080000 		.4byte	.LASF96
 1518 04e7 1D       		.sleb128 29
 1519 04e8 12       		.uleb128 0x12
 1520 04e9 C4030000 		.4byte	.LASF97
 1521 04ed 1E       		.sleb128 30
 1522 04ee 12       		.uleb128 0x12
 1523 04ef 00040000 		.4byte	.LASF98
 1524 04f3 1F       		.sleb128 31
 1525 04f4 12       		.uleb128 0x12
 1526 04f5 06030000 		.4byte	.LASF99
 1527 04f9 20       		.sleb128 32
 1528 04fa 12       		.uleb128 0x12
 1529 04fb 1E070000 		.4byte	.LASF100
 1530 04ff 21       		.sleb128 33
 1531 0500 12       		.uleb128 0x12
 1532 0501 84050000 		.4byte	.LASF101
 1533 0505 22       		.sleb128 34
 1534 0506 12       		.uleb128 0x12
 1535 0507 5A060000 		.4byte	.LASF102
 1536 050b 23       		.sleb128 35
 1537 050c 12       		.uleb128 0x12
 1538 050d 36060000 		.4byte	.LASF103
 1539 0511 24       		.sleb128 36
 1540 0512 12       		.uleb128 0x12
 1541 0513 9E080000 		.4byte	.LASF104
 1542 0517 25       		.sleb128 37
 1543 0518 12       		.uleb128 0x12
 1544 0519 CE030000 		.4byte	.LASF105
 1545 051d 26       		.sleb128 38
 1546 051e 12       		.uleb128 0x12
 1547 051f 43020000 		.4byte	.LASF106
 1548 0523 27       		.sleb128 39
 1549 0524 12       		.uleb128 0x12
 1550 0525 57080000 		.4byte	.LASF107
 1551 0529 28       		.sleb128 40
 1552 052a 12       		.uleb128 0x12
 1553 052b 31080000 		.4byte	.LASF108
 1554 052f 29       		.sleb128 41
 1555 0530 12       		.uleb128 0x12
 1556 0531 C5060000 		.4byte	.LASF109
 1557 0535 2A       		.sleb128 42
 1558 0536 12       		.uleb128 0x12
 1559 0537 83010000 		.4byte	.LASF110
 1560 053b 2B       		.sleb128 43
 1561 053c 12       		.uleb128 0x12
 1562 053d 0C000000 		.4byte	.LASF111
 1563 0541 2C       		.sleb128 44
 1564 0542 12       		.uleb128 0x12
 1565 0543 97040000 		.4byte	.LASF112
 1566 0547 2D       		.sleb128 45
 1567 0548 12       		.uleb128 0x12
 1568 0549 680B0000 		.4byte	.LASF113
 1569 054d 2E       		.sleb128 46
 1570 054e 12       		.uleb128 0x12
 1571 054f A90B0000 		.4byte	.LASF114
 1572 0553 2F       		.sleb128 47
ARM GAS  /tmp/ccFzS8Ux.s 			page 29


 1573 0554 12       		.uleb128 0x12
 1574 0555 3C090000 		.4byte	.LASF115
 1575 0559 30       		.sleb128 48
 1576 055a 12       		.uleb128 0x12
 1577 055b 750B0000 		.4byte	.LASF116
 1578 055f 31       		.sleb128 49
 1579 0560 12       		.uleb128 0x12
 1580 0561 50030000 		.4byte	.LASF117
 1581 0565 32       		.sleb128 50
 1582 0566 12       		.uleb128 0x12
 1583 0567 E0000000 		.4byte	.LASF118
 1584 056b 33       		.sleb128 51
 1585 056c 12       		.uleb128 0x12
 1586 056d A6060000 		.4byte	.LASF119
 1587 0571 34       		.sleb128 52
 1588 0572 12       		.uleb128 0x12
 1589 0573 EC050000 		.4byte	.LASF120
 1590 0577 35       		.sleb128 53
 1591 0578 12       		.uleb128 0x12
 1592 0579 F5060000 		.4byte	.LASF121
 1593 057d 36       		.sleb128 54
 1594 057e 12       		.uleb128 0x12
 1595 057f 10060000 		.4byte	.LASF122
 1596 0583 37       		.sleb128 55
 1597 0584 12       		.uleb128 0x12
 1598 0585 53050000 		.4byte	.LASF123
 1599 0589 38       		.sleb128 56
 1600 058a 12       		.uleb128 0x12
 1601 058b CE000000 		.4byte	.LASF124
 1602 058f 39       		.sleb128 57
 1603 0590 12       		.uleb128 0x12
 1604 0591 090C0000 		.4byte	.LASF125
 1605 0595 3A       		.sleb128 58
 1606 0596 12       		.uleb128 0x12
 1607 0597 80070000 		.4byte	.LASF126
 1608 059b 3B       		.sleb128 59
 1609 059c 12       		.uleb128 0x12
 1610 059d CB020000 		.4byte	.LASF127
 1611 05a1 3C       		.sleb128 60
 1612 05a2 12       		.uleb128 0x12
 1613 05a3 CD090000 		.4byte	.LASF128
 1614 05a7 3D       		.sleb128 61
 1615 05a8 12       		.uleb128 0x12
 1616 05a9 28060000 		.4byte	.LASF129
 1617 05ad 3E       		.sleb128 62
 1618 05ae 12       		.uleb128 0x12
 1619 05af 92070000 		.4byte	.LASF130
 1620 05b3 3F       		.sleb128 63
 1621 05b4 12       		.uleb128 0x12
 1622 05b5 34010000 		.4byte	.LASF131
 1623 05b9 C000     		.sleb128 64
 1624 05bb 12       		.uleb128 0x12
 1625 05bc E1080000 		.4byte	.LASF132
 1626 05c0 C100     		.sleb128 65
 1627 05c2 12       		.uleb128 0x12
 1628 05c3 1E030000 		.4byte	.LASF133
 1629 05c7 C200     		.sleb128 66
ARM GAS  /tmp/ccFzS8Ux.s 			page 30


 1630 05c9 12       		.uleb128 0x12
 1631 05ca C1040000 		.4byte	.LASF134
 1632 05ce C300     		.sleb128 67
 1633 05d0 12       		.uleb128 0x12
 1634 05d1 C8010000 		.4byte	.LASF135
 1635 05d5 C400     		.sleb128 68
 1636 05d7 12       		.uleb128 0x12
 1637 05d8 7A090000 		.4byte	.LASF136
 1638 05dc C500     		.sleb128 69
 1639 05de 12       		.uleb128 0x12
 1640 05df AF040000 		.4byte	.LASF137
 1641 05e3 C600     		.sleb128 70
 1642 05e5 12       		.uleb128 0x12
 1643 05e6 42010000 		.4byte	.LASF138
 1644 05ea C700     		.sleb128 71
 1645 05ec 12       		.uleb128 0x12
 1646 05ed A6090000 		.4byte	.LASF139
 1647 05f1 C800     		.sleb128 72
 1648 05f3 12       		.uleb128 0x12
 1649 05f4 40080000 		.4byte	.LASF140
 1650 05f8 C900     		.sleb128 73
 1651 05fa 12       		.uleb128 0x12
 1652 05fb 7C0A0000 		.4byte	.LASF141
 1653 05ff CA00     		.sleb128 74
 1654 0601 12       		.uleb128 0x12
 1655 0602 960B0000 		.4byte	.LASF142
 1656 0606 CB00     		.sleb128 75
 1657 0608 12       		.uleb128 0x12
 1658 0609 6B010000 		.4byte	.LASF143
 1659 060d CC00     		.sleb128 76
 1660 060f 12       		.uleb128 0x12
 1661 0610 40060000 		.4byte	.LASF144
 1662 0614 CD00     		.sleb128 77
 1663 0616 12       		.uleb128 0x12
 1664 0617 F5000000 		.4byte	.LASF145
 1665 061b CE00     		.sleb128 78
 1666 061d 12       		.uleb128 0x12
 1667 061e 4D080000 		.4byte	.LASF146
 1668 0622 CF00     		.sleb128 79
 1669 0624 12       		.uleb128 0x12
 1670 0625 5F040000 		.4byte	.LASF147
 1671 0629 D000     		.sleb128 80
 1672 062b 12       		.uleb128 0x12
 1673 062c 9D060000 		.4byte	.LASF148
 1674 0630 D100     		.sleb128 81
 1675 0632 00       		.byte	0
 1676 0633 13       		.uleb128 0x13
 1677 0634 82000000 		.4byte	0x82
 1678 0638 43060000 		.4byte	0x643
 1679 063c 14       		.uleb128 0x14
 1680 063d 57030000 		.4byte	0x357
 1681 0641 01       		.byte	0x1
 1682 0642 00       		.byte	0
 1683 0643 0D       		.uleb128 0xd
 1684 0644 70000000 		.4byte	0x70
 1685 0648 15       		.uleb128 0x15
 1686 0649 50       		.byte	0x50
ARM GAS  /tmp/ccFzS8Ux.s 			page 31


 1687 064a 09       		.byte	0x9
 1688 064b 2C01     		.2byte	0x12c
 1689 064d 7C070000 		.4byte	0x77c
 1690 0651 0C       		.uleb128 0xc
 1691 0652 535200   		.ascii	"SR\000"
 1692 0655 09       		.byte	0x9
 1693 0656 2E01     		.2byte	0x12e
 1694 0658 52030000 		.4byte	0x352
 1695 065c 02       		.byte	0x2
 1696 065d 23       		.byte	0x23
 1697 065e 00       		.uleb128 0
 1698 065f 0C       		.uleb128 0xc
 1699 0660 43523100 		.ascii	"CR1\000"
 1700 0664 09       		.byte	0x9
 1701 0665 2F01     		.2byte	0x12f
 1702 0667 52030000 		.4byte	0x352
 1703 066b 02       		.byte	0x2
 1704 066c 23       		.byte	0x23
 1705 066d 04       		.uleb128 0x4
 1706 066e 0C       		.uleb128 0xc
 1707 066f 43523200 		.ascii	"CR2\000"
 1708 0673 09       		.byte	0x9
 1709 0674 3001     		.2byte	0x130
 1710 0676 52030000 		.4byte	0x352
 1711 067a 02       		.byte	0x2
 1712 067b 23       		.byte	0x23
 1713 067c 08       		.uleb128 0x8
 1714 067d 16       		.uleb128 0x16
 1715 067e 65050000 		.4byte	.LASF149
 1716 0682 09       		.byte	0x9
 1717 0683 3101     		.2byte	0x131
 1718 0685 52030000 		.4byte	0x352
 1719 0689 02       		.byte	0x2
 1720 068a 23       		.byte	0x23
 1721 068b 0C       		.uleb128 0xc
 1722 068c 16       		.uleb128 0x16
 1723 068d 6B050000 		.4byte	.LASF150
 1724 0691 09       		.byte	0x9
 1725 0692 3201     		.2byte	0x132
 1726 0694 52030000 		.4byte	0x352
 1727 0698 02       		.byte	0x2
 1728 0699 23       		.byte	0x23
 1729 069a 10       		.uleb128 0x10
 1730 069b 16       		.uleb128 0x16
 1731 069c FA090000 		.4byte	.LASF151
 1732 06a0 09       		.byte	0x9
 1733 06a1 3301     		.2byte	0x133
 1734 06a3 52030000 		.4byte	0x352
 1735 06a7 02       		.byte	0x2
 1736 06a8 23       		.byte	0x23
 1737 06a9 14       		.uleb128 0x14
 1738 06aa 16       		.uleb128 0x16
 1739 06ab 000A0000 		.4byte	.LASF152
 1740 06af 09       		.byte	0x9
 1741 06b0 3401     		.2byte	0x134
 1742 06b2 52030000 		.4byte	0x352
 1743 06b6 02       		.byte	0x2
ARM GAS  /tmp/ccFzS8Ux.s 			page 32


 1744 06b7 23       		.byte	0x23
 1745 06b8 18       		.uleb128 0x18
 1746 06b9 16       		.uleb128 0x16
 1747 06ba 060A0000 		.4byte	.LASF153
 1748 06be 09       		.byte	0x9
 1749 06bf 3501     		.2byte	0x135
 1750 06c1 52030000 		.4byte	0x352
 1751 06c5 02       		.byte	0x2
 1752 06c6 23       		.byte	0x23
 1753 06c7 1C       		.uleb128 0x1c
 1754 06c8 16       		.uleb128 0x16
 1755 06c9 0C0A0000 		.4byte	.LASF154
 1756 06cd 09       		.byte	0x9
 1757 06ce 3601     		.2byte	0x136
 1758 06d0 52030000 		.4byte	0x352
 1759 06d4 02       		.byte	0x2
 1760 06d5 23       		.byte	0x23
 1761 06d6 20       		.uleb128 0x20
 1762 06d7 0C       		.uleb128 0xc
 1763 06d8 48545200 		.ascii	"HTR\000"
 1764 06dc 09       		.byte	0x9
 1765 06dd 3701     		.2byte	0x137
 1766 06df 52030000 		.4byte	0x352
 1767 06e3 02       		.byte	0x2
 1768 06e4 23       		.byte	0x23
 1769 06e5 24       		.uleb128 0x24
 1770 06e6 0C       		.uleb128 0xc
 1771 06e7 4C545200 		.ascii	"LTR\000"
 1772 06eb 09       		.byte	0x9
 1773 06ec 3801     		.2byte	0x138
 1774 06ee 52030000 		.4byte	0x352
 1775 06f2 02       		.byte	0x2
 1776 06f3 23       		.byte	0x23
 1777 06f4 28       		.uleb128 0x28
 1778 06f5 16       		.uleb128 0x16
 1779 06f6 71000000 		.4byte	.LASF155
 1780 06fa 09       		.byte	0x9
 1781 06fb 3901     		.2byte	0x139
 1782 06fd 52030000 		.4byte	0x352
 1783 0701 02       		.byte	0x2
 1784 0702 23       		.byte	0x23
 1785 0703 2C       		.uleb128 0x2c
 1786 0704 16       		.uleb128 0x16
 1787 0705 76000000 		.4byte	.LASF156
 1788 0709 09       		.byte	0x9
 1789 070a 3A01     		.2byte	0x13a
 1790 070c 52030000 		.4byte	0x352
 1791 0710 02       		.byte	0x2
 1792 0711 23       		.byte	0x23
 1793 0712 30       		.uleb128 0x30
 1794 0713 16       		.uleb128 0x16
 1795 0714 7B000000 		.4byte	.LASF157
 1796 0718 09       		.byte	0x9
 1797 0719 3B01     		.2byte	0x13b
 1798 071b 52030000 		.4byte	0x352
 1799 071f 02       		.byte	0x2
 1800 0720 23       		.byte	0x23
ARM GAS  /tmp/ccFzS8Ux.s 			page 33


 1801 0721 34       		.uleb128 0x34
 1802 0722 16       		.uleb128 0x16
 1803 0723 4F0A0000 		.4byte	.LASF158
 1804 0727 09       		.byte	0x9
 1805 0728 3C01     		.2byte	0x13c
 1806 072a 52030000 		.4byte	0x352
 1807 072e 02       		.byte	0x2
 1808 072f 23       		.byte	0x23
 1809 0730 38       		.uleb128 0x38
 1810 0731 16       		.uleb128 0x16
 1811 0732 390A0000 		.4byte	.LASF159
 1812 0736 09       		.byte	0x9
 1813 0737 3D01     		.2byte	0x13d
 1814 0739 52030000 		.4byte	0x352
 1815 073d 02       		.byte	0x2
 1816 073e 23       		.byte	0x23
 1817 073f 3C       		.uleb128 0x3c
 1818 0740 16       		.uleb128 0x16
 1819 0741 3E0A0000 		.4byte	.LASF160
 1820 0745 09       		.byte	0x9
 1821 0746 3E01     		.2byte	0x13e
 1822 0748 52030000 		.4byte	0x352
 1823 074c 02       		.byte	0x2
 1824 074d 23       		.byte	0x23
 1825 074e 40       		.uleb128 0x40
 1826 074f 16       		.uleb128 0x16
 1827 0750 430A0000 		.4byte	.LASF161
 1828 0754 09       		.byte	0x9
 1829 0755 3F01     		.2byte	0x13f
 1830 0757 52030000 		.4byte	0x352
 1831 075b 02       		.byte	0x2
 1832 075c 23       		.byte	0x23
 1833 075d 44       		.uleb128 0x44
 1834 075e 16       		.uleb128 0x16
 1835 075f 56010000 		.4byte	.LASF162
 1836 0763 09       		.byte	0x9
 1837 0764 4001     		.2byte	0x140
 1838 0766 52030000 		.4byte	0x352
 1839 076a 02       		.byte	0x2
 1840 076b 23       		.byte	0x23
 1841 076c 48       		.uleb128 0x48
 1842 076d 0C       		.uleb128 0xc
 1843 076e 445200   		.ascii	"DR\000"
 1844 0771 09       		.byte	0x9
 1845 0772 4101     		.2byte	0x141
 1846 0774 52030000 		.4byte	0x352
 1847 0778 02       		.byte	0x2
 1848 0779 23       		.byte	0x23
 1849 077a 4C       		.uleb128 0x4c
 1850 077b 00       		.byte	0
 1851 077c 17       		.uleb128 0x17
 1852 077d 2F040000 		.4byte	.LASF163
 1853 0781 09       		.byte	0x9
 1854 0782 4201     		.2byte	0x142
 1855 0784 48060000 		.4byte	0x648
 1856 0788 15       		.uleb128 0x15
 1857 0789 0C       		.byte	0xc
ARM GAS  /tmp/ccFzS8Ux.s 			page 34


 1858 078a 09       		.byte	0x9
 1859 078b 4401     		.2byte	0x144
 1860 078d BF070000 		.4byte	0x7bf
 1861 0791 0C       		.uleb128 0xc
 1862 0792 43535200 		.ascii	"CSR\000"
 1863 0796 09       		.byte	0x9
 1864 0797 4601     		.2byte	0x146
 1865 0799 52030000 		.4byte	0x352
 1866 079d 02       		.byte	0x2
 1867 079e 23       		.byte	0x23
 1868 079f 00       		.uleb128 0
 1869 07a0 0C       		.uleb128 0xc
 1870 07a1 43435200 		.ascii	"CCR\000"
 1871 07a5 09       		.byte	0x9
 1872 07a6 4701     		.2byte	0x147
 1873 07a8 52030000 		.4byte	0x352
 1874 07ac 02       		.byte	0x2
 1875 07ad 23       		.byte	0x23
 1876 07ae 04       		.uleb128 0x4
 1877 07af 0C       		.uleb128 0xc
 1878 07b0 43445200 		.ascii	"CDR\000"
 1879 07b4 09       		.byte	0x9
 1880 07b5 4801     		.2byte	0x148
 1881 07b7 52030000 		.4byte	0x352
 1882 07bb 02       		.byte	0x2
 1883 07bc 23       		.byte	0x23
 1884 07bd 08       		.uleb128 0x8
 1885 07be 00       		.byte	0
 1886 07bf 17       		.uleb128 0x17
 1887 07c0 C40B0000 		.4byte	.LASF164
 1888 07c4 09       		.byte	0x9
 1889 07c5 4A01     		.2byte	0x14a
 1890 07c7 88070000 		.4byte	0x788
 1891 07cb 15       		.uleb128 0x15
 1892 07cc 18       		.byte	0x18
 1893 07cd 09       		.byte	0x9
 1894 07ce D301     		.2byte	0x1d3
 1895 07d0 2E080000 		.4byte	0x82e
 1896 07d4 0C       		.uleb128 0xc
 1897 07d5 435200   		.ascii	"CR\000"
 1898 07d8 09       		.byte	0x9
 1899 07d9 D501     		.2byte	0x1d5
 1900 07db 52030000 		.4byte	0x352
 1901 07df 02       		.byte	0x2
 1902 07e0 23       		.byte	0x23
 1903 07e1 00       		.uleb128 0
 1904 07e2 16       		.uleb128 0x16
 1905 07e3 E10A0000 		.4byte	.LASF165
 1906 07e7 09       		.byte	0x9
 1907 07e8 D601     		.2byte	0x1d6
 1908 07ea 52030000 		.4byte	0x352
 1909 07ee 02       		.byte	0x2
 1910 07ef 23       		.byte	0x23
 1911 07f0 04       		.uleb128 0x4
 1912 07f1 0C       		.uleb128 0xc
 1913 07f2 50415200 		.ascii	"PAR\000"
 1914 07f6 09       		.byte	0x9
ARM GAS  /tmp/ccFzS8Ux.s 			page 35


 1915 07f7 D701     		.2byte	0x1d7
 1916 07f9 52030000 		.4byte	0x352
 1917 07fd 02       		.byte	0x2
 1918 07fe 23       		.byte	0x23
 1919 07ff 08       		.uleb128 0x8
 1920 0800 16       		.uleb128 0x16
 1921 0801 C8090000 		.4byte	.LASF166
 1922 0805 09       		.byte	0x9
 1923 0806 D801     		.2byte	0x1d8
 1924 0808 52030000 		.4byte	0x352
 1925 080c 02       		.byte	0x2
 1926 080d 23       		.byte	0x23
 1927 080e 0C       		.uleb128 0xc
 1928 080f 16       		.uleb128 0x16
 1929 0810 00000000 		.4byte	.LASF167
 1930 0814 09       		.byte	0x9
 1931 0815 D901     		.2byte	0x1d9
 1932 0817 52030000 		.4byte	0x352
 1933 081b 02       		.byte	0x2
 1934 081c 23       		.byte	0x23
 1935 081d 10       		.uleb128 0x10
 1936 081e 0C       		.uleb128 0xc
 1937 081f 46435200 		.ascii	"FCR\000"
 1938 0823 09       		.byte	0x9
 1939 0824 DA01     		.2byte	0x1da
 1940 0826 52030000 		.4byte	0x352
 1941 082a 02       		.byte	0x2
 1942 082b 23       		.byte	0x23
 1943 082c 14       		.uleb128 0x14
 1944 082d 00       		.byte	0
 1945 082e 17       		.uleb128 0x17
 1946 082f B7070000 		.4byte	.LASF168
 1947 0833 09       		.byte	0x9
 1948 0834 DB01     		.2byte	0x1db
 1949 0836 CB070000 		.4byte	0x7cb
 1950 083a 15       		.uleb128 0x15
 1951 083b 88       		.byte	0x88
 1952 083c 09       		.byte	0x9
 1953 083d DB02     		.2byte	0x2db
 1954 083f 070A0000 		.4byte	0xa07
 1955 0843 0C       		.uleb128 0xc
 1956 0844 435200   		.ascii	"CR\000"
 1957 0847 09       		.byte	0x9
 1958 0848 DD02     		.2byte	0x2dd
 1959 084a 52030000 		.4byte	0x352
 1960 084e 02       		.byte	0x2
 1961 084f 23       		.byte	0x23
 1962 0850 00       		.uleb128 0
 1963 0851 16       		.uleb128 0x16
 1964 0852 E4050000 		.4byte	.LASF169
 1965 0856 09       		.byte	0x9
 1966 0857 DE02     		.2byte	0x2de
 1967 0859 52030000 		.4byte	0x352
 1968 085d 02       		.byte	0x2
 1969 085e 23       		.byte	0x23
 1970 085f 04       		.uleb128 0x4
 1971 0860 16       		.uleb128 0x16
ARM GAS  /tmp/ccFzS8Ux.s 			page 36


 1972 0861 4D040000 		.4byte	.LASF170
 1973 0865 09       		.byte	0x9
 1974 0866 DF02     		.2byte	0x2df
 1975 0868 52030000 		.4byte	0x352
 1976 086c 02       		.byte	0x2
 1977 086d 23       		.byte	0x23
 1978 086e 08       		.uleb128 0x8
 1979 086f 0C       		.uleb128 0xc
 1980 0870 43495200 		.ascii	"CIR\000"
 1981 0874 09       		.byte	0x9
 1982 0875 E002     		.2byte	0x2e0
 1983 0877 52030000 		.4byte	0x352
 1984 087b 02       		.byte	0x2
 1985 087c 23       		.byte	0x23
 1986 087d 0C       		.uleb128 0xc
 1987 087e 16       		.uleb128 0x16
 1988 087f BB0B0000 		.4byte	.LASF171
 1989 0883 09       		.byte	0x9
 1990 0884 E102     		.2byte	0x2e1
 1991 0886 52030000 		.4byte	0x352
 1992 088a 02       		.byte	0x2
 1993 088b 23       		.byte	0x23
 1994 088c 10       		.uleb128 0x10
 1995 088d 16       		.uleb128 0x16
 1996 088e B8090000 		.4byte	.LASF172
 1997 0892 09       		.byte	0x9
 1998 0893 E202     		.2byte	0x2e2
 1999 0895 52030000 		.4byte	0x352
 2000 0899 02       		.byte	0x2
 2001 089a 23       		.byte	0x23
 2002 089b 14       		.uleb128 0x14
 2003 089c 16       		.uleb128 0x16
 2004 089d E8070000 		.4byte	.LASF173
 2005 08a1 09       		.byte	0x9
 2006 08a2 E302     		.2byte	0x2e3
 2007 08a4 52030000 		.4byte	0x352
 2008 08a8 02       		.byte	0x2
 2009 08a9 23       		.byte	0x23
 2010 08aa 18       		.uleb128 0x18
 2011 08ab 16       		.uleb128 0x16
 2012 08ac A9020000 		.4byte	.LASF174
 2013 08b0 09       		.byte	0x9
 2014 08b1 E402     		.2byte	0x2e4
 2015 08b3 82000000 		.4byte	0x82
 2016 08b7 02       		.byte	0x2
 2017 08b8 23       		.byte	0x23
 2018 08b9 1C       		.uleb128 0x1c
 2019 08ba 16       		.uleb128 0x16
 2020 08bb 19080000 		.4byte	.LASF175
 2021 08bf 09       		.byte	0x9
 2022 08c0 E502     		.2byte	0x2e5
 2023 08c2 52030000 		.4byte	0x352
 2024 08c6 02       		.byte	0x2
 2025 08c7 23       		.byte	0x23
 2026 08c8 20       		.uleb128 0x20
 2027 08c9 16       		.uleb128 0x16
 2028 08ca 88060000 		.4byte	.LASF176
ARM GAS  /tmp/ccFzS8Ux.s 			page 37


 2029 08ce 09       		.byte	0x9
 2030 08cf E602     		.2byte	0x2e6
 2031 08d1 52030000 		.4byte	0x352
 2032 08d5 02       		.byte	0x2
 2033 08d6 23       		.byte	0x23
 2034 08d7 24       		.uleb128 0x24
 2035 08d8 16       		.uleb128 0x16
 2036 08d9 B3020000 		.4byte	.LASF177
 2037 08dd 09       		.byte	0x9
 2038 08de E702     		.2byte	0x2e7
 2039 08e0 33060000 		.4byte	0x633
 2040 08e4 02       		.byte	0x2
 2041 08e5 23       		.byte	0x23
 2042 08e6 28       		.uleb128 0x28
 2043 08e7 16       		.uleb128 0x16
 2044 08e8 8C090000 		.4byte	.LASF178
 2045 08ec 09       		.byte	0x9
 2046 08ed E802     		.2byte	0x2e8
 2047 08ef 52030000 		.4byte	0x352
 2048 08f3 02       		.byte	0x2
 2049 08f4 23       		.byte	0x23
 2050 08f5 30       		.uleb128 0x30
 2051 08f6 16       		.uleb128 0x16
 2052 08f7 89030000 		.4byte	.LASF179
 2053 08fb 09       		.byte	0x9
 2054 08fc E902     		.2byte	0x2e9
 2055 08fe 52030000 		.4byte	0x352
 2056 0902 02       		.byte	0x2
 2057 0903 23       		.byte	0x23
 2058 0904 34       		.uleb128 0x34
 2059 0905 16       		.uleb128 0x16
 2060 0906 010C0000 		.4byte	.LASF180
 2061 090a 09       		.byte	0x9
 2062 090b EA02     		.2byte	0x2ea
 2063 090d 52030000 		.4byte	0x352
 2064 0911 02       		.byte	0x2
 2065 0912 23       		.byte	0x23
 2066 0913 38       		.uleb128 0x38
 2067 0914 16       		.uleb128 0x16
 2068 0915 3C030000 		.4byte	.LASF181
 2069 0919 09       		.byte	0x9
 2070 091a EB02     		.2byte	0x2eb
 2071 091c 82000000 		.4byte	0x82
 2072 0920 02       		.byte	0x2
 2073 0921 23       		.byte	0x23
 2074 0922 3C       		.uleb128 0x3c
 2075 0923 16       		.uleb128 0x16
 2076 0924 FD040000 		.4byte	.LASF182
 2077 0928 09       		.byte	0x9
 2078 0929 EC02     		.2byte	0x2ec
 2079 092b 52030000 		.4byte	0x352
 2080 092f 02       		.byte	0x2
 2081 0930 23       		.byte	0x23
 2082 0931 40       		.uleb128 0x40
 2083 0932 16       		.uleb128 0x16
 2084 0933 24020000 		.4byte	.LASF183
 2085 0937 09       		.byte	0x9
ARM GAS  /tmp/ccFzS8Ux.s 			page 38


 2086 0938 ED02     		.2byte	0x2ed
 2087 093a 52030000 		.4byte	0x352
 2088 093e 02       		.byte	0x2
 2089 093f 23       		.byte	0x23
 2090 0940 44       		.uleb128 0x44
 2091 0941 16       		.uleb128 0x16
 2092 0942 46030000 		.4byte	.LASF184
 2093 0946 09       		.byte	0x9
 2094 0947 EE02     		.2byte	0x2ee
 2095 0949 33060000 		.4byte	0x633
 2096 094d 02       		.byte	0x2
 2097 094e 23       		.byte	0x23
 2098 094f 48       		.uleb128 0x48
 2099 0950 16       		.uleb128 0x16
 2100 0951 2C020000 		.4byte	.LASF185
 2101 0955 09       		.byte	0x9
 2102 0956 EF02     		.2byte	0x2ef
 2103 0958 52030000 		.4byte	0x352
 2104 095c 02       		.byte	0x2
 2105 095d 23       		.byte	0x23
 2106 095e 50       		.uleb128 0x50
 2107 095f 16       		.uleb128 0x16
 2108 0960 97010000 		.4byte	.LASF186
 2109 0964 09       		.byte	0x9
 2110 0965 F002     		.2byte	0x2f0
 2111 0967 52030000 		.4byte	0x352
 2112 096b 02       		.byte	0x2
 2113 096c 23       		.byte	0x23
 2114 096d 54       		.uleb128 0x54
 2115 096e 16       		.uleb128 0x16
 2116 096f 15090000 		.4byte	.LASF187
 2117 0973 09       		.byte	0x9
 2118 0974 F102     		.2byte	0x2f1
 2119 0976 52030000 		.4byte	0x352
 2120 097a 02       		.byte	0x2
 2121 097b 23       		.byte	0x23
 2122 097c 58       		.uleb128 0x58
 2123 097d 16       		.uleb128 0x16
 2124 097e DD020000 		.4byte	.LASF188
 2125 0982 09       		.byte	0x9
 2126 0983 F202     		.2byte	0x2f2
 2127 0985 82000000 		.4byte	0x82
 2128 0989 02       		.byte	0x2
 2129 098a 23       		.byte	0x23
 2130 098b 5C       		.uleb128 0x5c
 2131 098c 16       		.uleb128 0x16
 2132 098d 64070000 		.4byte	.LASF189
 2133 0991 09       		.byte	0x9
 2134 0992 F302     		.2byte	0x2f3
 2135 0994 52030000 		.4byte	0x352
 2136 0998 02       		.byte	0x2
 2137 0999 23       		.byte	0x23
 2138 099a 60       		.uleb128 0x60
 2139 099b 16       		.uleb128 0x16
 2140 099c B1060000 		.4byte	.LASF190
 2141 09a0 09       		.byte	0x9
 2142 09a1 F402     		.2byte	0x2f4
ARM GAS  /tmp/ccFzS8Ux.s 			page 39


 2143 09a3 52030000 		.4byte	0x352
 2144 09a7 02       		.byte	0x2
 2145 09a8 23       		.byte	0x23
 2146 09a9 64       		.uleb128 0x64
 2147 09aa 16       		.uleb128 0x16
 2148 09ab E7020000 		.4byte	.LASF191
 2149 09af 09       		.byte	0x9
 2150 09b0 F502     		.2byte	0x2f5
 2151 09b2 33060000 		.4byte	0x633
 2152 09b6 02       		.byte	0x2
 2153 09b7 23       		.byte	0x23
 2154 09b8 68       		.uleb128 0x68
 2155 09b9 16       		.uleb128 0x16
 2156 09ba F3030000 		.4byte	.LASF192
 2157 09be 09       		.byte	0x9
 2158 09bf F602     		.2byte	0x2f6
 2159 09c1 52030000 		.4byte	0x352
 2160 09c5 02       		.byte	0x2
 2161 09c6 23       		.byte	0x23
 2162 09c7 70       		.uleb128 0x70
 2163 09c8 0C       		.uleb128 0xc
 2164 09c9 43535200 		.ascii	"CSR\000"
 2165 09cd 09       		.byte	0x9
 2166 09ce F702     		.2byte	0x2f7
 2167 09d0 52030000 		.4byte	0x352
 2168 09d4 02       		.byte	0x2
 2169 09d5 23       		.byte	0x23
 2170 09d6 74       		.uleb128 0x74
 2171 09d7 16       		.uleb128 0x16
 2172 09d8 F1020000 		.4byte	.LASF193
 2173 09dc 09       		.byte	0x9
 2174 09dd F802     		.2byte	0x2f8
 2175 09df 33060000 		.4byte	0x633
 2176 09e3 02       		.byte	0x2
 2177 09e4 23       		.byte	0x23
 2178 09e5 78       		.uleb128 0x78
 2179 09e6 16       		.uleb128 0x16
 2180 09e7 54060000 		.4byte	.LASF194
 2181 09eb 09       		.byte	0x9
 2182 09ec F902     		.2byte	0x2f9
 2183 09ee 52030000 		.4byte	0x352
 2184 09f2 03       		.byte	0x3
 2185 09f3 23       		.byte	0x23
 2186 09f4 8001     		.uleb128 0x80
 2187 09f6 16       		.uleb128 0x16
 2188 09f7 4A000000 		.4byte	.LASF195
 2189 09fb 09       		.byte	0x9
 2190 09fc FA02     		.2byte	0x2fa
 2191 09fe 52030000 		.4byte	0x352
 2192 0a02 03       		.byte	0x3
 2193 0a03 23       		.byte	0x23
 2194 0a04 8401     		.uleb128 0x84
 2195 0a06 00       		.byte	0
 2196 0a07 17       		.uleb128 0x17
 2197 0a08 D6090000 		.4byte	.LASF196
 2198 0a0c 09       		.byte	0x9
 2199 0a0d FB02     		.2byte	0x2fb
ARM GAS  /tmp/ccFzS8Ux.s 			page 40


 2200 0a0f 3A080000 		.4byte	0x83a
 2201 0a13 08       		.uleb128 0x8
 2202 0a14 0C       		.byte	0xc
 2203 0a15 0A       		.byte	0xa
 2204 0a16 DA       		.byte	0xda
 2205 0a17 620A0000 		.4byte	0xa62
 2206 0a1b 06       		.uleb128 0x6
 2207 0a1c DA030000 		.4byte	.LASF197
 2208 0a20 0A       		.byte	0xa
 2209 0a21 DB       		.byte	0xdb
 2210 0a22 620A0000 		.4byte	0xa62
 2211 0a26 02       		.byte	0x2
 2212 0a27 23       		.byte	0x23
 2213 0a28 00       		.uleb128 0
 2214 0a29 06       		.uleb128 0x6
 2215 0a2a D70B0000 		.4byte	.LASF198
 2216 0a2e 0A       		.byte	0xa
 2217 0a2f DC       		.byte	0xdc
 2218 0a30 680A0000 		.4byte	0xa68
 2219 0a34 02       		.byte	0x2
 2220 0a35 23       		.byte	0x23
 2221 0a36 04       		.uleb128 0x4
 2222 0a37 06       		.uleb128 0x6
 2223 0a38 7B030000 		.4byte	.LASF199
 2224 0a3c 0A       		.byte	0xa
 2225 0a3d DD       		.byte	0xdd
 2226 0a3e 45000000 		.4byte	0x45
 2227 0a42 02       		.byte	0x2
 2228 0a43 23       		.byte	0x23
 2229 0a44 08       		.uleb128 0x8
 2230 0a45 06       		.uleb128 0x6
 2231 0a46 DE060000 		.4byte	.LASF200
 2232 0a4a 0A       		.byte	0xa
 2233 0a4b DF       		.byte	0xdf
 2234 0a4c 45000000 		.4byte	0x45
 2235 0a50 02       		.byte	0x2
 2236 0a51 23       		.byte	0x23
 2237 0a52 09       		.uleb128 0x9
 2238 0a53 06       		.uleb128 0x6
 2239 0a54 EF080000 		.4byte	.LASF201
 2240 0a58 0A       		.byte	0xa
 2241 0a59 E0       		.byte	0xe0
 2242 0a5a 45000000 		.4byte	0x45
 2243 0a5e 02       		.byte	0x2
 2244 0a5f 23       		.byte	0x23
 2245 0a60 0A       		.uleb128 0xa
 2246 0a61 00       		.byte	0
 2247 0a62 09       		.uleb128 0x9
 2248 0a63 04       		.byte	0x4
 2249 0a64 2E080000 		.4byte	0x82e
 2250 0a68 09       		.uleb128 0x9
 2251 0a69 04       		.byte	0x4
 2252 0a6a 52030000 		.4byte	0x352
 2253 0a6e 03       		.uleb128 0x3
 2254 0a6f 71050000 		.4byte	.LASF202
 2255 0a73 0A       		.byte	0xa
 2256 0a74 E1       		.byte	0xe1
ARM GAS  /tmp/ccFzS8Ux.s 			page 41


 2257 0a75 130A0000 		.4byte	0xa13
 2258 0a79 03       		.uleb128 0x3
 2259 0a7a 22080000 		.4byte	.LASF203
 2260 0a7e 0A       		.byte	0xa
 2261 0a7f EA       		.byte	0xea
 2262 0a80 840A0000 		.4byte	0xa84
 2263 0a84 09       		.uleb128 0x9
 2264 0a85 04       		.byte	0x4
 2265 0a86 8A0A0000 		.4byte	0xa8a
 2266 0a8a 18       		.uleb128 0x18
 2267 0a8b 01       		.byte	0x1
 2268 0a8c 9B0A0000 		.4byte	0xa9b
 2269 0a90 19       		.uleb128 0x19
 2270 0a91 9F020000 		.4byte	0x29f
 2271 0a95 19       		.uleb128 0x19
 2272 0a96 82000000 		.4byte	0x82
 2273 0a9a 00       		.byte	0
 2274 0a9b 1A       		.uleb128 0x1a
 2275 0a9c 01       		.byte	0x1
 2276 0a9d 0B       		.byte	0xb
 2277 0a9e 55       		.byte	0x55
 2278 0a9f C80A0000 		.4byte	0xac8
 2279 0aa3 12       		.uleb128 0x12
 2280 0aa4 13030000 		.4byte	.LASF204
 2281 0aa8 00       		.sleb128 0
 2282 0aa9 12       		.uleb128 0x12
 2283 0aaa 71090000 		.4byte	.LASF205
 2284 0aae 01       		.sleb128 1
 2285 0aaf 12       		.uleb128 0x12
 2286 0ab0 2C030000 		.4byte	.LASF206
 2287 0ab4 02       		.sleb128 2
 2288 0ab5 12       		.uleb128 0x12
 2289 0ab6 FC070000 		.4byte	.LASF207
 2290 0aba 03       		.sleb128 3
 2291 0abb 12       		.uleb128 0x12
 2292 0abc A4050000 		.4byte	.LASF208
 2293 0ac0 04       		.sleb128 4
 2294 0ac1 12       		.uleb128 0x12
 2295 0ac2 A6030000 		.4byte	.LASF209
 2296 0ac6 05       		.sleb128 5
 2297 0ac7 00       		.byte	0
 2298 0ac8 03       		.uleb128 0x3
 2299 0ac9 93000000 		.4byte	.LASF210
 2300 0acd 0B       		.byte	0xb
 2301 0ace 5C       		.byte	0x5c
 2302 0acf 9B0A0000 		.4byte	0xa9b
 2303 0ad3 17       		.uleb128 0x17
 2304 0ad4 5A030000 		.4byte	.LASF211
 2305 0ad8 0C       		.byte	0xc
 2306 0ad9 2701     		.2byte	0x127
 2307 0adb 5E000000 		.4byte	0x5e
 2308 0adf 17       		.uleb128 0x17
 2309 0ae0 03070000 		.4byte	.LASF212
 2310 0ae4 0C       		.byte	0xc
 2311 0ae5 2C01     		.2byte	0x12c
 2312 0ae7 5E000000 		.4byte	0x5e
 2313 0aeb 1B       		.uleb128 0x1b
ARM GAS  /tmp/ccFzS8Ux.s 			page 42


 2314 0aec 01       		.byte	0x1
 2315 0aed 0C       		.byte	0xc
 2316 0aee 3301     		.2byte	0x133
 2317 0af0 010B0000 		.4byte	0xb01
 2318 0af4 12       		.uleb128 0x12
 2319 0af5 AF000000 		.4byte	.LASF213
 2320 0af9 00       		.sleb128 0
 2321 0afa 12       		.uleb128 0x12
 2322 0afb FF080000 		.4byte	.LASF214
 2323 0aff 01       		.sleb128 1
 2324 0b00 00       		.byte	0
 2325 0b01 17       		.uleb128 0x17
 2326 0b02 FB020000 		.4byte	.LASF215
 2327 0b06 0C       		.byte	0xc
 2328 0b07 3601     		.2byte	0x136
 2329 0b09 EB0A0000 		.4byte	0xaeb
 2330 0b0d 17       		.uleb128 0x17
 2331 0b0e CA080000 		.4byte	.LASF216
 2332 0b12 0C       		.byte	0xc
 2333 0b13 3B01     		.2byte	0x13b
 2334 0b15 190B0000 		.4byte	0xb19
 2335 0b19 0B       		.uleb128 0xb
 2336 0b1a CA080000 		.4byte	.LASF216
 2337 0b1e 34       		.byte	0x34
 2338 0b1f 0C       		.byte	0xc
 2339 0b20 9F01     		.2byte	0x19f
 2340 0b22 BD0B0000 		.4byte	0xbbd
 2341 0b26 16       		.uleb128 0x16
 2342 0b27 06010000 		.4byte	.LASF217
 2343 0b2b 0C       		.byte	0xc
 2344 0b2c A301     		.2byte	0x1a3
 2345 0b2e C80A0000 		.4byte	0xac8
 2346 0b32 02       		.byte	0x2
 2347 0b33 23       		.byte	0x23
 2348 0b34 00       		.uleb128 0
 2349 0b35 16       		.uleb128 0x16
 2350 0b36 FF000000 		.4byte	.LASF218
 2351 0b3a 0C       		.byte	0xc
 2352 0b3b A701     		.2byte	0x1a7
 2353 0b3d F40C0000 		.4byte	0xcf4
 2354 0b41 02       		.byte	0x2
 2355 0b42 23       		.byte	0x23
 2356 0b43 04       		.uleb128 0x4
 2357 0b44 16       		.uleb128 0x16
 2358 0b45 F8030000 		.4byte	.LASF219
 2359 0b49 0C       		.byte	0xc
 2360 0b4a AB01     		.2byte	0x1ab
 2361 0b4c EB0B0000 		.4byte	0xbeb
 2362 0b50 02       		.byte	0x2
 2363 0b51 23       		.byte	0x23
 2364 0b52 08       		.uleb128 0x8
 2365 0b53 16       		.uleb128 0x16
 2366 0b54 91060000 		.4byte	.LASF220
 2367 0b58 0C       		.byte	0xc
 2368 0b59 AF01     		.2byte	0x1af
 2369 0b5b 2C000000 		.4byte	0x2c
 2370 0b5f 02       		.byte	0x2
ARM GAS  /tmp/ccFzS8Ux.s 			page 43


 2371 0b60 23       		.byte	0x23
 2372 0b61 0C       		.uleb128 0xc
 2373 0b62 16       		.uleb128 0x16
 2374 0b63 B3090000 		.4byte	.LASF221
 2375 0b67 0C       		.byte	0xc
 2376 0b68 B301     		.2byte	0x1b3
 2377 0b6a FF0C0000 		.4byte	0xcff
 2378 0b6e 02       		.byte	0x2
 2379 0b6f 23       		.byte	0x23
 2380 0b70 10       		.uleb128 0x10
 2381 0b71 16       		.uleb128 0x16
 2382 0b72 C1090000 		.4byte	.LASF222
 2383 0b76 0C       		.byte	0xc
 2384 0b77 B801     		.2byte	0x1b8
 2385 0b79 61020000 		.4byte	0x261
 2386 0b7d 02       		.byte	0x2
 2387 0b7e 23       		.byte	0x23
 2388 0b7f 14       		.uleb128 0x14
 2389 0b80 16       		.uleb128 0x16
 2390 0b81 97060000 		.4byte	.LASF223
 2391 0b85 0C       		.byte	0xc
 2392 0b86 BF01     		.2byte	0x1bf
 2393 0b88 A0030000 		.4byte	0x3a0
 2394 0b8c 02       		.byte	0x2
 2395 0b8d 23       		.byte	0x23
 2396 0b8e 18       		.uleb128 0x18
 2397 0b8f 0C       		.uleb128 0xc
 2398 0b90 61646300 		.ascii	"adc\000"
 2399 0b94 0C       		.byte	0xc
 2400 0b95 CB01     		.2byte	0x1cb
 2401 0b97 0A0D0000 		.4byte	0xd0a
 2402 0b9b 02       		.byte	0x2
 2403 0b9c 23       		.byte	0x23
 2404 0b9d 28       		.uleb128 0x28
 2405 0b9e 16       		.uleb128 0x16
 2406 0b9f 05050000 		.4byte	.LASF224
 2407 0ba3 0C       		.byte	0xc
 2408 0ba4 CF01     		.2byte	0x1cf
 2409 0ba6 100D0000 		.4byte	0xd10
 2410 0baa 02       		.byte	0x2
 2411 0bab 23       		.byte	0x23
 2412 0bac 2C       		.uleb128 0x2c
 2413 0bad 16       		.uleb128 0x16
 2414 0bae C0010000 		.4byte	.LASF225
 2415 0bb2 0C       		.byte	0xc
 2416 0bb3 D301     		.2byte	0x1d3
 2417 0bb5 82000000 		.4byte	0x82
 2418 0bb9 02       		.byte	0x2
 2419 0bba 23       		.byte	0x23
 2420 0bbb 30       		.uleb128 0x30
 2421 0bbc 00       		.byte	0
 2422 0bbd 17       		.uleb128 0x17
 2423 0bbe 63000000 		.4byte	.LASF226
 2424 0bc2 0C       		.byte	0xc
 2425 0bc3 4501     		.2byte	0x145
 2426 0bc5 C90B0000 		.4byte	0xbc9
 2427 0bc9 09       		.uleb128 0x9
ARM GAS  /tmp/ccFzS8Ux.s 			page 44


 2428 0bca 04       		.byte	0x4
 2429 0bcb CF0B0000 		.4byte	0xbcf
 2430 0bcf 18       		.uleb128 0x18
 2431 0bd0 01       		.byte	0x1
 2432 0bd1 E50B0000 		.4byte	0xbe5
 2433 0bd5 19       		.uleb128 0x19
 2434 0bd6 E50B0000 		.4byte	0xbe5
 2435 0bda 19       		.uleb128 0x19
 2436 0bdb EB0B0000 		.4byte	0xbeb
 2437 0bdf 19       		.uleb128 0x19
 2438 0be0 2C000000 		.4byte	0x2c
 2439 0be4 00       		.byte	0
 2440 0be5 09       		.uleb128 0x9
 2441 0be6 04       		.byte	0x4
 2442 0be7 0D0B0000 		.4byte	0xb0d
 2443 0beb 09       		.uleb128 0x9
 2444 0bec 04       		.byte	0x4
 2445 0bed D30A0000 		.4byte	0xad3
 2446 0bf1 17       		.uleb128 0x17
 2447 0bf2 69060000 		.4byte	.LASF227
 2448 0bf6 0C       		.byte	0xc
 2449 0bf7 4E01     		.2byte	0x14e
 2450 0bf9 FD0B0000 		.4byte	0xbfd
 2451 0bfd 09       		.uleb128 0x9
 2452 0bfe 04       		.byte	0x4
 2453 0bff 030C0000 		.4byte	0xc03
 2454 0c03 18       		.uleb128 0x18
 2455 0c04 01       		.byte	0x1
 2456 0c05 140C0000 		.4byte	0xc14
 2457 0c09 19       		.uleb128 0x19
 2458 0c0a E50B0000 		.4byte	0xbe5
 2459 0c0e 19       		.uleb128 0x19
 2460 0c0f 010B0000 		.4byte	0xb01
 2461 0c13 00       		.byte	0
 2462 0c14 15       		.uleb128 0x15
 2463 0c15 28       		.byte	0x28
 2464 0c16 0C       		.byte	0xc
 2465 0c17 5801     		.2byte	0x158
 2466 0c19 C30C0000 		.4byte	0xcc3
 2467 0c1d 16       		.uleb128 0x16
 2468 0c1e BB030000 		.4byte	.LASF228
 2469 0c22 0C       		.byte	0xc
 2470 0c23 5C01     		.2byte	0x15c
 2471 0c25 A2000000 		.4byte	0xa2
 2472 0c29 02       		.byte	0x2
 2473 0c2a 23       		.byte	0x23
 2474 0c2b 00       		.uleb128 0
 2475 0c2c 16       		.uleb128 0x16
 2476 0c2d 32070000 		.4byte	.LASF229
 2477 0c31 0C       		.byte	0xc
 2478 0c32 6001     		.2byte	0x160
 2479 0c34 DF0A0000 		.4byte	0xadf
 2480 0c38 02       		.byte	0x2
 2481 0c39 23       		.byte	0x23
 2482 0c3a 02       		.uleb128 0x2
 2483 0c3b 16       		.uleb128 0x16
 2484 0c3c 5B010000 		.4byte	.LASF230
ARM GAS  /tmp/ccFzS8Ux.s 			page 45


 2485 0c40 0C       		.byte	0xc
 2486 0c41 6401     		.2byte	0x164
 2487 0c43 BD0B0000 		.4byte	0xbbd
 2488 0c47 02       		.byte	0x2
 2489 0c48 23       		.byte	0x23
 2490 0c49 04       		.uleb128 0x4
 2491 0c4a 16       		.uleb128 0x16
 2492 0c4b 2B010000 		.4byte	.LASF231
 2493 0c4f 0C       		.byte	0xc
 2494 0c50 6801     		.2byte	0x168
 2495 0c52 F10B0000 		.4byte	0xbf1
 2496 0c56 02       		.byte	0x2
 2497 0c57 23       		.byte	0x23
 2498 0c58 08       		.uleb128 0x8
 2499 0c59 0C       		.uleb128 0xc
 2500 0c5a 63723100 		.ascii	"cr1\000"
 2501 0c5e 0C       		.byte	0xc
 2502 0c5f 6F01     		.2byte	0x16f
 2503 0c61 82000000 		.4byte	0x82
 2504 0c65 02       		.byte	0x2
 2505 0c66 23       		.byte	0x23
 2506 0c67 0C       		.uleb128 0xc
 2507 0c68 0C       		.uleb128 0xc
 2508 0c69 63723200 		.ascii	"cr2\000"
 2509 0c6d 0C       		.byte	0xc
 2510 0c6e 7601     		.2byte	0x176
 2511 0c70 82000000 		.4byte	0x82
 2512 0c74 02       		.byte	0x2
 2513 0c75 23       		.byte	0x23
 2514 0c76 10       		.uleb128 0x10
 2515 0c77 16       		.uleb128 0x16
 2516 0c78 B1050000 		.4byte	.LASF232
 2517 0c7c 0C       		.byte	0xc
 2518 0c7d 7C01     		.2byte	0x17c
 2519 0c7f 82000000 		.4byte	0x82
 2520 0c83 02       		.byte	0x2
 2521 0c84 23       		.byte	0x23
 2522 0c85 14       		.uleb128 0x14
 2523 0c86 16       		.uleb128 0x16
 2524 0c87 B7050000 		.4byte	.LASF233
 2525 0c8b 0C       		.byte	0xc
 2526 0c8c 8201     		.2byte	0x182
 2527 0c8e 82000000 		.4byte	0x82
 2528 0c92 02       		.byte	0x2
 2529 0c93 23       		.byte	0x23
 2530 0c94 18       		.uleb128 0x18
 2531 0c95 16       		.uleb128 0x16
 2532 0c96 1F000000 		.4byte	.LASF234
 2533 0c9a 0C       		.byte	0xc
 2534 0c9b 8701     		.2byte	0x187
 2535 0c9d 82000000 		.4byte	0x82
 2536 0ca1 02       		.byte	0x2
 2537 0ca2 23       		.byte	0x23
 2538 0ca3 1C       		.uleb128 0x1c
 2539 0ca4 16       		.uleb128 0x16
 2540 0ca5 24000000 		.4byte	.LASF235
 2541 0ca9 0C       		.byte	0xc
ARM GAS  /tmp/ccFzS8Ux.s 			page 46


 2542 0caa 8C01     		.2byte	0x18c
 2543 0cac 82000000 		.4byte	0x82
 2544 0cb0 02       		.byte	0x2
 2545 0cb1 23       		.byte	0x23
 2546 0cb2 20       		.uleb128 0x20
 2547 0cb3 16       		.uleb128 0x16
 2548 0cb4 B6030000 		.4byte	.LASF236
 2549 0cb8 0C       		.byte	0xc
 2550 0cb9 9101     		.2byte	0x191
 2551 0cbb 82000000 		.4byte	0x82
 2552 0cbf 02       		.byte	0x2
 2553 0cc0 23       		.byte	0x23
 2554 0cc1 24       		.uleb128 0x24
 2555 0cc2 00       		.byte	0
 2556 0cc3 17       		.uleb128 0x17
 2557 0cc4 91050000 		.4byte	.LASF237
 2558 0cc8 0C       		.byte	0xc
 2559 0cc9 9201     		.2byte	0x192
 2560 0ccb 140C0000 		.4byte	0xc14
 2561 0ccf 15       		.uleb128 0x15
 2562 0cd0 04       		.byte	0x4
 2563 0cd1 0C       		.byte	0xc
 2564 0cd2 9801     		.2byte	0x198
 2565 0cd4 E80C0000 		.4byte	0xce8
 2566 0cd8 16       		.uleb128 0x16
 2567 0cd9 6B090000 		.4byte	.LASF238
 2568 0cdd 0C       		.byte	0xc
 2569 0cde 9901     		.2byte	0x199
 2570 0ce0 82000000 		.4byte	0x82
 2571 0ce4 02       		.byte	0x2
 2572 0ce5 23       		.byte	0x23
 2573 0ce6 00       		.uleb128 0
 2574 0ce7 00       		.byte	0
 2575 0ce8 17       		.uleb128 0x17
 2576 0ce9 210C0000 		.4byte	.LASF239
 2577 0ced 0C       		.byte	0xc
 2578 0cee 9A01     		.2byte	0x19a
 2579 0cf0 CF0C0000 		.4byte	0xccf
 2580 0cf4 09       		.uleb128 0x9
 2581 0cf5 04       		.byte	0x4
 2582 0cf6 FA0C0000 		.4byte	0xcfa
 2583 0cfa 10       		.uleb128 0x10
 2584 0cfb E80C0000 		.4byte	0xce8
 2585 0cff 09       		.uleb128 0x9
 2586 0d00 04       		.byte	0x4
 2587 0d01 050D0000 		.4byte	0xd05
 2588 0d05 10       		.uleb128 0x10
 2589 0d06 C30C0000 		.4byte	0xcc3
 2590 0d0a 09       		.uleb128 0x9
 2591 0d0b 04       		.byte	0x4
 2592 0d0c 7C070000 		.4byte	0x77c
 2593 0d10 09       		.uleb128 0x9
 2594 0d11 04       		.byte	0x4
 2595 0d12 160D0000 		.4byte	0xd16
 2596 0d16 10       		.uleb128 0x10
 2597 0d17 6E0A0000 		.4byte	0xa6e
 2598 0d1b 1C       		.uleb128 0x1c
ARM GAS  /tmp/ccFzS8Ux.s 			page 47


 2599 0d1c 01       		.byte	0x1
 2600 0d1d D4080000 		.4byte	.LASF240
 2601 0d21 01       		.byte	0x1
 2602 0d22 AB       		.byte	0xab
 2603 0d23 01       		.byte	0x1
 2604 0d24 00000000 		.4byte	.LFB120
 2605 0d28 38000000 		.4byte	.LFE120
 2606 0d2c 00000000 		.4byte	.LLST0
 2607 0d30 01       		.byte	0x1
 2608 0d31 600D0000 		.4byte	0xd60
 2609 0d35 1D       		.uleb128 0x1d
 2610 0d36 10000000 		.4byte	.LVL0
 2611 0d3a 2D110000 		.4byte	0x112d
 2612 0d3e 490D0000 		.4byte	0xd49
 2613 0d42 1E       		.uleb128 0x1e
 2614 0d43 01       		.byte	0x1
 2615 0d44 50       		.byte	0x50
 2616 0d45 02       		.byte	0x2
 2617 0d46 74       		.byte	0x74
 2618 0d47 00       		.sleb128 0
 2619 0d48 00       		.byte	0
 2620 0d49 1F       		.uleb128 0x1f
 2621 0d4a 34000000 		.4byte	.LVL1
 2622 0d4e 01       		.byte	0x1
 2623 0d4f 42110000 		.4byte	0x1142
 2624 0d53 1E       		.uleb128 0x1e
 2625 0d54 01       		.byte	0x1
 2626 0d55 51       		.byte	0x51
 2627 0d56 02       		.byte	0x2
 2628 0d57 08       		.byte	0x8
 2629 0d58 60       		.byte	0x60
 2630 0d59 1E       		.uleb128 0x1e
 2631 0d5a 01       		.byte	0x1
 2632 0d5b 50       		.byte	0x50
 2633 0d5c 01       		.byte	0x1
 2634 0d5d 42       		.byte	0x42
 2635 0d5e 00       		.byte	0
 2636 0d5f 00       		.byte	0
 2637 0d60 1C       		.uleb128 0x1c
 2638 0d61 01       		.byte	0x1
 2639 0d62 32000000 		.4byte	.LASF241
 2640 0d66 01       		.byte	0x1
 2641 0d67 E0       		.byte	0xe0
 2642 0d68 01       		.byte	0x1
 2643 0d69 00000000 		.4byte	.LFB121
 2644 0d6d 68000000 		.4byte	.LFE121
 2645 0d71 20000000 		.4byte	.LLST1
 2646 0d75 01       		.byte	0x1
 2647 0d76 BB0D0000 		.4byte	0xdbb
 2648 0d7a 20       		.uleb128 0x20
 2649 0d7b 64060000 		.4byte	.LASF243
 2650 0d7f 01       		.byte	0x1
 2651 0d80 E0       		.byte	0xe0
 2652 0d81 E50B0000 		.4byte	0xbe5
 2653 0d85 40000000 		.4byte	.LLST2
 2654 0d89 21       		.uleb128 0x21
 2655 0d8a 34000000 		.4byte	.LBB2
ARM GAS  /tmp/ccFzS8Ux.s 			page 48


 2656 0d8e 68000000 		.4byte	.LBE2
 2657 0d92 22       		.uleb128 0x22
 2658 0d93 6200     		.ascii	"b\000"
 2659 0d95 01       		.byte	0x1
 2660 0d96 E6       		.byte	0xe6
 2661 0d97 A2000000 		.4byte	0xa2
 2662 0d9b 23       		.uleb128 0x23
 2663 0d9c 40000000 		.4byte	.LVL7
 2664 0da0 5C110000 		.4byte	0x115c
 2665 0da4 1E       		.uleb128 0x1e
 2666 0da5 01       		.byte	0x1
 2667 0da6 53       		.byte	0x53
 2668 0da7 02       		.byte	0x2
 2669 0da8 74       		.byte	0x74
 2670 0da9 00       		.sleb128 0
 2671 0daa 1E       		.uleb128 0x1e
 2672 0dab 01       		.byte	0x1
 2673 0dac 52       		.byte	0x52
 2674 0dad 05       		.byte	0x5
 2675 0dae 03       		.byte	0x3
 2676 0daf 00000000 		.4byte	adc_lld_serve_rx_interrupt
 2677 0db3 1E       		.uleb128 0x1e
 2678 0db4 01       		.byte	0x1
 2679 0db5 51       		.byte	0x51
 2680 0db6 01       		.byte	0x1
 2681 0db7 36       		.byte	0x36
 2682 0db8 00       		.byte	0
 2683 0db9 00       		.byte	0
 2684 0dba 00       		.byte	0
 2685 0dbb 24       		.uleb128 0x24
 2686 0dbc 01       		.byte	0x1
 2687 0dbd 17020000 		.4byte	.LASF242
 2688 0dc1 01       		.byte	0x1
 2689 0dc2 1F01     		.2byte	0x11f
 2690 0dc4 01       		.byte	0x1
 2691 0dc5 00000000 		.4byte	.LFB122
 2692 0dc9 38000000 		.4byte	.LFE122
 2693 0dcd 82000000 		.4byte	.LLST3
 2694 0dd1 01       		.byte	0x1
 2695 0dd2 F00D0000 		.4byte	0xdf0
 2696 0dd6 25       		.uleb128 0x25
 2697 0dd7 64060000 		.4byte	.LASF243
 2698 0ddb 01       		.byte	0x1
 2699 0ddc 1F01     		.2byte	0x11f
 2700 0dde E50B0000 		.4byte	0xbe5
 2701 0de2 A2000000 		.4byte	.LLST4
 2702 0de6 26       		.uleb128 0x26
 2703 0de7 12000000 		.4byte	.LVL10
 2704 0deb 84110000 		.4byte	0x1184
 2705 0def 00       		.byte	0
 2706 0df0 24       		.uleb128 0x24
 2707 0df1 01       		.byte	0x1
 2708 0df2 BD050000 		.4byte	.LASF244
 2709 0df6 01       		.byte	0x1
 2710 0df7 3F01     		.2byte	0x13f
 2711 0df9 01       		.byte	0x1
 2712 0dfa 00000000 		.4byte	.LFB123
ARM GAS  /tmp/ccFzS8Ux.s 			page 49


 2713 0dfe 84000000 		.4byte	.LFE123
 2714 0e02 C0000000 		.4byte	.LLST5
 2715 0e06 01       		.byte	0x1
 2716 0e07 3C0E0000 		.4byte	0xe3c
 2717 0e0b 25       		.uleb128 0x25
 2718 0e0c 64060000 		.4byte	.LASF243
 2719 0e10 01       		.byte	0x1
 2720 0e11 3F01     		.2byte	0x13f
 2721 0e13 E50B0000 		.4byte	0xbe5
 2722 0e17 E0000000 		.4byte	.LLST6
 2723 0e1b 27       		.uleb128 0x27
 2724 0e1c F5090000 		.4byte	.LASF245
 2725 0e20 01       		.byte	0x1
 2726 0e21 4001     		.2byte	0x140
 2727 0e23 82000000 		.4byte	0x82
 2728 0e27 01010000 		.4byte	.LLST7
 2729 0e2b 27       		.uleb128 0x27
 2730 0e2c B3090000 		.4byte	.LASF221
 2731 0e30 01       		.byte	0x1
 2732 0e31 4101     		.2byte	0x141
 2733 0e33 FF0C0000 		.4byte	0xcff
 2734 0e37 20010000 		.4byte	.LLST8
 2735 0e3b 00       		.byte	0
 2736 0e3c 24       		.uleb128 0x24
 2737 0e3d 01       		.byte	0x1
 2738 0e3e 9F070000 		.4byte	.LASF246
 2739 0e42 01       		.byte	0x1
 2740 0e43 6D01     		.2byte	0x16d
 2741 0e45 01       		.byte	0x1
 2742 0e46 00000000 		.4byte	.LFB124
 2743 0e4a 30000000 		.4byte	.LFE124
 2744 0e4e 4E010000 		.4byte	.LLST9
 2745 0e52 01       		.byte	0x1
 2746 0e53 680E0000 		.4byte	0xe68
 2747 0e57 25       		.uleb128 0x25
 2748 0e58 64060000 		.4byte	.LASF243
 2749 0e5c 01       		.byte	0x1
 2750 0e5d 6D01     		.2byte	0x16d
 2751 0e5f E50B0000 		.4byte	0xbe5
 2752 0e63 6E010000 		.4byte	.LLST10
 2753 0e67 00       		.byte	0
 2754 0e68 28       		.uleb128 0x28
 2755 0e69 280B0000 		.4byte	.LASF266
 2756 0e6d 01       		.byte	0x1
 2757 0e6e 4C       		.byte	0x4c
 2758 0e6f 01       		.byte	0x1
 2759 0e70 00000000 		.4byte	.LFB118
 2760 0e74 F2000000 		.4byte	.LFE118
 2761 0e78 8F010000 		.4byte	.LLST11
 2762 0e7c 01       		.byte	0x1
 2763 0e7d D70F0000 		.4byte	0xfd7
 2764 0e81 20       		.uleb128 0x20
 2765 0e82 64060000 		.4byte	.LASF243
 2766 0e86 01       		.byte	0x1
 2767 0e87 4C       		.byte	0x4c
 2768 0e88 E50B0000 		.4byte	0xbe5
 2769 0e8c AF010000 		.4byte	.LLST12
ARM GAS  /tmp/ccFzS8Ux.s 			page 50


 2770 0e90 20       		.uleb128 0x20
 2771 0e91 B0030000 		.4byte	.LASF247
 2772 0e95 01       		.byte	0x1
 2773 0e96 4C       		.byte	0x4c
 2774 0e97 82000000 		.4byte	0x82
 2775 0e9b E3010000 		.4byte	.LLST13
 2776 0e9f 29       		.uleb128 0x29
 2777 0ea0 00000000 		.4byte	.Ldebug_ranges0+0
 2778 0ea4 C70E0000 		.4byte	0xec7
 2779 0ea8 2A       		.uleb128 0x2a
 2780 0ea9 10090000 		.4byte	.LASF248
 2781 0ead 01       		.byte	0x1
 2782 0eae 5E       		.byte	0x5e
 2783 0eaf 2C000000 		.4byte	0x2c
 2784 0eb3 3E020000 		.4byte	.LLST14
 2785 0eb7 2A       		.uleb128 0x2a
 2786 0eb8 B4080000 		.4byte	.LASF249
 2787 0ebc 01       		.byte	0x1
 2788 0ebd 5E       		.byte	0x5e
 2789 0ebe 2C000000 		.4byte	0x2c
 2790 0ec2 51020000 		.4byte	.LLST15
 2791 0ec6 00       		.byte	0
 2792 0ec7 2B       		.uleb128 0x2b
 2793 0ec8 74000000 		.4byte	.LBB5
 2794 0ecc 7A000000 		.4byte	.LBE5
 2795 0ed0 E40E0000 		.4byte	0xee4
 2796 0ed4 2C       		.uleb128 0x2c
 2797 0ed5 746D7000 		.ascii	"tmp\000"
 2798 0ed9 01       		.byte	0x1
 2799 0eda 52       		.byte	0x52
 2800 0edb 82000000 		.4byte	0x82
 2801 0edf 72020000 		.4byte	.LLST16
 2802 0ee3 00       		.byte	0
 2803 0ee4 2B       		.uleb128 0x2b
 2804 0ee5 7E000000 		.4byte	.LBB6
 2805 0ee9 8C000000 		.4byte	.LBE6
 2806 0eed 090F0000 		.4byte	0xf09
 2807 0ef1 2C       		.uleb128 0x2c
 2808 0ef2 747000   		.ascii	"tp\000"
 2809 0ef5 01       		.byte	0x1
 2810 0ef6 52       		.byte	0x52
 2811 0ef7 61020000 		.4byte	0x261
 2812 0efb 85020000 		.4byte	.LLST17
 2813 0eff 26       		.uleb128 0x26
 2814 0f00 8C000000 		.4byte	.LVL34
 2815 0f04 99110000 		.4byte	0x1199
 2816 0f08 00       		.byte	0
 2817 0f09 2B       		.uleb128 0x2b
 2818 0f0a 8C000000 		.4byte	.LBB7
 2819 0f0e 94000000 		.4byte	.LBE7
 2820 0f12 260F0000 		.4byte	0xf26
 2821 0f16 2C       		.uleb128 0x2c
 2822 0f17 746D7000 		.ascii	"tmp\000"
 2823 0f1b 01       		.byte	0x1
 2824 0f1c 5E       		.byte	0x5e
 2825 0f1d 82000000 		.4byte	0x82
 2826 0f21 98020000 		.4byte	.LLST18
ARM GAS  /tmp/ccFzS8Ux.s 			page 51


 2827 0f25 00       		.byte	0
 2828 0f26 29       		.uleb128 0x29
 2829 0f27 18000000 		.4byte	.Ldebug_ranges0+0x18
 2830 0f2b 4E0F0000 		.4byte	0xf4e
 2831 0f2f 2A       		.uleb128 0x2a
 2832 0f30 10090000 		.4byte	.LASF248
 2833 0f34 01       		.byte	0x1
 2834 0f35 5E       		.byte	0x5e
 2835 0f36 2C000000 		.4byte	0x2c
 2836 0f3a AB020000 		.4byte	.LLST19
 2837 0f3e 2A       		.uleb128 0x2a
 2838 0f3f B4080000 		.4byte	.LASF249
 2839 0f43 01       		.byte	0x1
 2840 0f44 5E       		.byte	0x5e
 2841 0f45 2C000000 		.4byte	0x2c
 2842 0f49 BE020000 		.4byte	.LLST20
 2843 0f4d 00       		.byte	0
 2844 0f4e 2B       		.uleb128 0x2b
 2845 0f4f C6000000 		.4byte	.LBB11
 2846 0f53 CC000000 		.4byte	.LBE11
 2847 0f57 6B0F0000 		.4byte	0xf6b
 2848 0f5b 2C       		.uleb128 0x2c
 2849 0f5c 746D7000 		.ascii	"tmp\000"
 2850 0f60 01       		.byte	0x1
 2851 0f61 5E       		.byte	0x5e
 2852 0f62 82000000 		.4byte	0x82
 2853 0f66 DF020000 		.4byte	.LLST21
 2854 0f6a 00       		.byte	0
 2855 0f6b 2B       		.uleb128 0x2b
 2856 0f6c D2000000 		.4byte	.LBB12
 2857 0f70 E0000000 		.4byte	.LBE12
 2858 0f74 900F0000 		.4byte	0xf90
 2859 0f78 2C       		.uleb128 0x2c
 2860 0f79 747000   		.ascii	"tp\000"
 2861 0f7c 01       		.byte	0x1
 2862 0f7d 5E       		.byte	0x5e
 2863 0f7e 61020000 		.4byte	0x261
 2864 0f82 F2020000 		.4byte	.LLST22
 2865 0f86 26       		.uleb128 0x26
 2866 0f87 DE000000 		.4byte	.LVL45
 2867 0f8b 99110000 		.4byte	0x1199
 2868 0f8f 00       		.byte	0
 2869 0f90 2D       		.uleb128 0x2d
 2870 0f91 22000000 		.4byte	.LVL23
 2871 0f95 A00F0000 		.4byte	0xfa0
 2872 0f99 1E       		.uleb128 0x1e
 2873 0f9a 01       		.byte	0x1
 2874 0f9b 50       		.byte	0x50
 2875 0f9c 02       		.byte	0x2
 2876 0f9d 74       		.byte	0x74
 2877 0f9e 00       		.sleb128 0
 2878 0f9f 00       		.byte	0
 2879 0fa0 2E       		.uleb128 0x2e
 2880 0fa1 50000000 		.4byte	.LVL26
 2881 0fa5 02       		.byte	0x2
 2882 0fa6 75       		.byte	0x75
 2883 0fa7 00       		.sleb128 0
ARM GAS  /tmp/ccFzS8Ux.s 			page 52


 2884 0fa8 26       		.uleb128 0x26
 2885 0fa9 56000000 		.4byte	.LVL28
 2886 0fad 3C0E0000 		.4byte	0xe3c
 2887 0fb1 2D       		.uleb128 0x2d
 2888 0fb2 66000000 		.4byte	.LVL29
 2889 0fb6 C60F0000 		.4byte	0xfc6
 2890 0fba 1E       		.uleb128 0x1e
 2891 0fbb 01       		.byte	0x1
 2892 0fbc 51       		.byte	0x51
 2893 0fbd 01       		.byte	0x1
 2894 0fbe 30       		.byte	0x30
 2895 0fbf 1E       		.uleb128 0x1e
 2896 0fc0 01       		.byte	0x1
 2897 0fc1 50       		.byte	0x50
 2898 0fc2 02       		.byte	0x2
 2899 0fc3 74       		.byte	0x74
 2900 0fc4 00       		.sleb128 0
 2901 0fc5 00       		.byte	0
 2902 0fc6 23       		.uleb128 0x23
 2903 0fc7 9A000000 		.4byte	.LVL38
 2904 0fcb 3C0E0000 		.4byte	0xe3c
 2905 0fcf 1E       		.uleb128 0x1e
 2906 0fd0 01       		.byte	0x1
 2907 0fd1 50       		.byte	0x50
 2908 0fd2 02       		.byte	0x2
 2909 0fd3 74       		.byte	0x74
 2910 0fd4 00       		.sleb128 0
 2911 0fd5 00       		.byte	0
 2912 0fd6 00       		.byte	0
 2913 0fd7 1C       		.uleb128 0x1c
 2914 0fd8 01       		.byte	0x1
 2915 0fd9 E3010000 		.4byte	.LASF250
 2916 0fdd 01       		.byte	0x1
 2917 0fde 6F       		.byte	0x6f
 2918 0fdf 01       		.byte	0x1
 2919 0fe0 00000000 		.4byte	.LFB119
 2920 0fe4 70000000 		.4byte	.LFE119
 2921 0fe8 05030000 		.4byte	.LLST23
 2922 0fec 01       		.byte	0x1
 2923 0fed 92100000 		.4byte	0x1092
 2924 0ff1 2C       		.uleb128 0x2c
 2925 0ff2 737200   		.ascii	"sr\000"
 2926 0ff5 01       		.byte	0x1
 2927 0ff6 70       		.byte	0x70
 2928 0ff7 82000000 		.4byte	0x82
 2929 0ffb 25030000 		.4byte	.LLST24
 2930 0fff 2B       		.uleb128 0x2b
 2931 1000 48000000 		.4byte	.LBB13
 2932 1004 4E000000 		.4byte	.LBE13
 2933 1008 1C100000 		.4byte	0x101c
 2934 100c 2C       		.uleb128 0x2c
 2935 100d 746D7000 		.ascii	"tmp\000"
 2936 1011 01       		.byte	0x1
 2937 1012 7D       		.byte	0x7d
 2938 1013 82000000 		.4byte	0x82
 2939 1017 38030000 		.4byte	.LLST25
 2940 101b 00       		.byte	0
ARM GAS  /tmp/ccFzS8Ux.s 			page 53


 2941 101c 2B       		.uleb128 0x2b
 2942 101d 52000000 		.4byte	.LBB14
 2943 1021 5E000000 		.4byte	.LBE14
 2944 1025 41100000 		.4byte	0x1041
 2945 1029 2C       		.uleb128 0x2c
 2946 102a 747000   		.ascii	"tp\000"
 2947 102d 01       		.byte	0x1
 2948 102e 7D       		.byte	0x7d
 2949 102f 61020000 		.4byte	0x261
 2950 1033 56030000 		.4byte	.LLST26
 2951 1037 26       		.uleb128 0x26
 2952 1038 5E000000 		.4byte	.LVL53
 2953 103c 99110000 		.4byte	0x1199
 2954 1040 00       		.byte	0
 2955 1041 2B       		.uleb128 0x2b
 2956 1042 5E000000 		.4byte	.LBB15
 2957 1046 64000000 		.4byte	.LBE15
 2958 104a 5E100000 		.4byte	0x105e
 2959 104e 2C       		.uleb128 0x2c
 2960 104f 746D7000 		.ascii	"tmp\000"
 2961 1053 01       		.byte	0x1
 2962 1054 7D       		.byte	0x7d
 2963 1055 82000000 		.4byte	0x82
 2964 1059 69030000 		.4byte	.LLST27
 2965 105d 00       		.byte	0
 2966 105e 1D       		.uleb128 0x1d
 2967 105f 28000000 		.4byte	.LVL47
 2968 1063 3C0E0000 		.4byte	0xe3c
 2969 1067 72100000 		.4byte	0x1072
 2970 106b 1E       		.uleb128 0x1e
 2971 106c 01       		.byte	0x1
 2972 106d 50       		.byte	0x50
 2973 106e 02       		.byte	0x2
 2974 106f 74       		.byte	0x74
 2975 1070 00       		.sleb128 0
 2976 1071 00       		.byte	0
 2977 1072 2D       		.uleb128 0x2d
 2978 1073 38000000 		.4byte	.LVL48
 2979 1077 87100000 		.4byte	0x1087
 2980 107b 1E       		.uleb128 0x1e
 2981 107c 01       		.byte	0x1
 2982 107d 51       		.byte	0x51
 2983 107e 01       		.byte	0x1
 2984 107f 31       		.byte	0x31
 2985 1080 1E       		.uleb128 0x1e
 2986 1081 01       		.byte	0x1
 2987 1082 50       		.byte	0x50
 2988 1083 02       		.byte	0x2
 2989 1084 74       		.byte	0x74
 2990 1085 00       		.sleb128 0
 2991 1086 00       		.byte	0
 2992 1087 2F       		.uleb128 0x2f
 2993 1088 6C000000 		.4byte	.LVL56
 2994 108c 01       		.byte	0x1
 2995 108d B1110000 		.4byte	0x11b1
 2996 1091 00       		.byte	0
 2997 1092 30       		.uleb128 0x30
ARM GAS  /tmp/ccFzS8Ux.s 			page 54


 2998 1093 01       		.byte	0x1
 2999 1094 4F020000 		.4byte	.LASF251
 3000 1098 01       		.byte	0x1
 3001 1099 7B01     		.2byte	0x17b
 3002 109b 01       		.byte	0x1
 3003 109c 00000000 		.4byte	.LFB125
 3004 10a0 12000000 		.4byte	.LFE125
 3005 10a4 02       		.byte	0x2
 3006 10a5 7D       		.byte	0x7d
 3007 10a6 00       		.sleb128 0
 3008 10a7 01       		.byte	0x1
 3009 10a8 30       		.uleb128 0x30
 3010 10a9 01       		.byte	0x1
 3011 10aa EA0B0000 		.4byte	.LASF252
 3012 10ae 01       		.byte	0x1
 3013 10af 8601     		.2byte	0x186
 3014 10b1 01       		.byte	0x1
 3015 10b2 00000000 		.4byte	.LFB126
 3016 10b6 12000000 		.4byte	.LFE126
 3017 10ba 02       		.byte	0x2
 3018 10bb 7D       		.byte	0x7d
 3019 10bc 00       		.sleb128 0
 3020 10bd 01       		.byte	0x1
 3021 10be 30       		.uleb128 0x30
 3022 10bf 01       		.byte	0x1
 3023 10c0 1F090000 		.4byte	.LASF253
 3024 10c4 01       		.byte	0x1
 3025 10c5 9101     		.2byte	0x191
 3026 10c7 01       		.byte	0x1
 3027 10c8 00000000 		.4byte	.LFB127
 3028 10cc 12000000 		.4byte	.LFE127
 3029 10d0 02       		.byte	0x2
 3030 10d1 7D       		.byte	0x7d
 3031 10d2 00       		.sleb128 0
 3032 10d3 01       		.byte	0x1
 3033 10d4 30       		.uleb128 0x30
 3034 10d5 01       		.byte	0x1
 3035 10d6 16010000 		.4byte	.LASF254
 3036 10da 01       		.byte	0x1
 3037 10db 9C01     		.2byte	0x19c
 3038 10dd 01       		.byte	0x1
 3039 10de 00000000 		.4byte	.LFB128
 3040 10e2 12000000 		.4byte	.LFE128
 3041 10e6 02       		.byte	0x2
 3042 10e7 7D       		.byte	0x7d
 3043 10e8 00       		.sleb128 0
 3044 10e9 01       		.byte	0x1
 3045 10ea 31       		.uleb128 0x31
 3046 10eb 670A0000 		.4byte	.LASF255
 3047 10ef 0D       		.byte	0xd
 3048 10f0 9806     		.2byte	0x698
 3049 10f2 43060000 		.4byte	0x643
 3050 10f6 01       		.byte	0x1
 3051 10f7 01       		.byte	0x1
 3052 10f8 13       		.uleb128 0x13
 3053 10f9 6E0A0000 		.4byte	0xa6e
 3054 10fd 08110000 		.4byte	0x1108
ARM GAS  /tmp/ccFzS8Ux.s 			page 55


 3055 1101 14       		.uleb128 0x14
 3056 1102 57030000 		.4byte	0x357
 3057 1106 0F       		.byte	0xf
 3058 1107 00       		.byte	0
 3059 1108 31       		.uleb128 0x31
 3060 1109 40050000 		.4byte	.LASF256
 3061 110d 0A       		.byte	0xa
 3062 110e BB01     		.2byte	0x1bb
 3063 1110 16110000 		.4byte	0x1116
 3064 1114 01       		.byte	0x1
 3065 1115 01       		.byte	0x1
 3066 1116 10       		.uleb128 0x10
 3067 1117 F8100000 		.4byte	0x10f8
 3068 111b 32       		.uleb128 0x32
 3069 111c 5E070000 		.4byte	.LASF257
 3070 1120 01       		.byte	0x1
 3071 1121 31       		.byte	0x31
 3072 1122 0D0B0000 		.4byte	0xb0d
 3073 1126 01       		.byte	0x1
 3074 1127 05       		.byte	0x5
 3075 1128 03       		.byte	0x3
 3076 1129 00000000 		.4byte	ADCD1
 3077 112d 33       		.uleb128 0x33
 3078 112e 01       		.byte	0x1
 3079 112f 2B0A0000 		.4byte	.LASF258
 3080 1133 0B       		.byte	0xb
 3081 1134 2501     		.2byte	0x125
 3082 1136 01       		.byte	0x1
 3083 1137 01       		.byte	0x1
 3084 1138 42110000 		.4byte	0x1142
 3085 113c 19       		.uleb128 0x19
 3086 113d E50B0000 		.4byte	0xbe5
 3087 1141 00       		.byte	0
 3088 1142 33       		.uleb128 0x33
 3089 1143 01       		.byte	0x1
 3090 1144 E60A0000 		.4byte	.LASF259
 3091 1148 0E       		.byte	0xe
 3092 1149 2301     		.2byte	0x123
 3093 114b 01       		.byte	0x1
 3094 114c 01       		.byte	0x1
 3095 114d 5C110000 		.4byte	0x115c
 3096 1151 19       		.uleb128 0x19
 3097 1152 82000000 		.4byte	0x82
 3098 1156 19       		.uleb128 0x19
 3099 1157 82000000 		.4byte	0x82
 3100 115b 00       		.byte	0
 3101 115c 34       		.uleb128 0x34
 3102 115d 01       		.byte	0x1
 3103 115e E1030000 		.4byte	.LASF261
 3104 1162 0A       		.byte	0xa
 3105 1163 C201     		.2byte	0x1c2
 3106 1165 01       		.byte	0x1
 3107 1166 A2000000 		.4byte	0xa2
 3108 116a 01       		.byte	0x1
 3109 116b 84110000 		.4byte	0x1184
 3110 116f 19       		.uleb128 0x19
 3111 1170 100D0000 		.4byte	0xd10
ARM GAS  /tmp/ccFzS8Ux.s 			page 56


 3112 1174 19       		.uleb128 0x19
 3113 1175 82000000 		.4byte	0x82
 3114 1179 19       		.uleb128 0x19
 3115 117a 790A0000 		.4byte	0xa79
 3116 117e 19       		.uleb128 0x19
 3117 117f 9F020000 		.4byte	0x29f
 3118 1183 00       		.byte	0
 3119 1184 33       		.uleb128 0x33
 3120 1185 01       		.byte	0x1
 3121 1186 9E000000 		.4byte	.LASF260
 3122 118a 0A       		.byte	0xa
 3123 118b C601     		.2byte	0x1c6
 3124 118d 01       		.byte	0x1
 3125 118e 01       		.byte	0x1
 3126 118f 99110000 		.4byte	0x1199
 3127 1193 19       		.uleb128 0x19
 3128 1194 100D0000 		.4byte	0xd10
 3129 1198 00       		.byte	0
 3130 1199 35       		.uleb128 0x35
 3131 119a 01       		.byte	0x1
 3132 119b C2000000 		.4byte	.LASF262
 3133 119f 0F       		.byte	0xf
 3134 11a0 90       		.byte	0x90
 3135 11a1 01       		.byte	0x1
 3136 11a2 61020000 		.4byte	0x261
 3137 11a6 01       		.byte	0x1
 3138 11a7 B1110000 		.4byte	0x11b1
 3139 11ab 19       		.uleb128 0x19
 3140 11ac 61020000 		.4byte	0x261
 3141 11b0 00       		.byte	0
 3142 11b1 36       		.uleb128 0x36
 3143 11b2 01       		.byte	0x1
 3144 11b3 3F070000 		.4byte	.LASF267
 3145 11b7 07       		.byte	0x7
 3146 11b8 0302     		.2byte	0x203
 3147 11ba 01       		.byte	0x1
 3148 11bb 01       		.byte	0x1
 3149 11bc 00       		.byte	0
 3150              		.section	.debug_abbrev,"",%progbits
 3151              	.Ldebug_abbrev0:
 3152 0000 01       		.uleb128 0x1
 3153 0001 11       		.uleb128 0x11
 3154 0002 01       		.byte	0x1
 3155 0003 25       		.uleb128 0x25
 3156 0004 0E       		.uleb128 0xe
 3157 0005 13       		.uleb128 0x13
 3158 0006 0B       		.uleb128 0xb
 3159 0007 03       		.uleb128 0x3
 3160 0008 0E       		.uleb128 0xe
 3161 0009 55       		.uleb128 0x55
 3162 000a 06       		.uleb128 0x6
 3163 000b 11       		.uleb128 0x11
 3164 000c 01       		.uleb128 0x1
 3165 000d 52       		.uleb128 0x52
 3166 000e 01       		.uleb128 0x1
 3167 000f 10       		.uleb128 0x10
 3168 0010 06       		.uleb128 0x6
ARM GAS  /tmp/ccFzS8Ux.s 			page 57


 3169 0011 00       		.byte	0
 3170 0012 00       		.byte	0
 3171 0013 02       		.uleb128 0x2
 3172 0014 24       		.uleb128 0x24
 3173 0015 00       		.byte	0
 3174 0016 0B       		.uleb128 0xb
 3175 0017 0B       		.uleb128 0xb
 3176 0018 3E       		.uleb128 0x3e
 3177 0019 0B       		.uleb128 0xb
 3178 001a 03       		.uleb128 0x3
 3179 001b 08       		.uleb128 0x8
 3180 001c 00       		.byte	0
 3181 001d 00       		.byte	0
 3182 001e 03       		.uleb128 0x3
 3183 001f 16       		.uleb128 0x16
 3184 0020 00       		.byte	0
 3185 0021 03       		.uleb128 0x3
 3186 0022 0E       		.uleb128 0xe
 3187 0023 3A       		.uleb128 0x3a
 3188 0024 0B       		.uleb128 0xb
 3189 0025 3B       		.uleb128 0x3b
 3190 0026 0B       		.uleb128 0xb
 3191 0027 49       		.uleb128 0x49
 3192 0028 13       		.uleb128 0x13
 3193 0029 00       		.byte	0
 3194 002a 00       		.byte	0
 3195 002b 04       		.uleb128 0x4
 3196 002c 24       		.uleb128 0x24
 3197 002d 00       		.byte	0
 3198 002e 0B       		.uleb128 0xb
 3199 002f 0B       		.uleb128 0xb
 3200 0030 3E       		.uleb128 0x3e
 3201 0031 0B       		.uleb128 0xb
 3202 0032 03       		.uleb128 0x3
 3203 0033 0E       		.uleb128 0xe
 3204 0034 00       		.byte	0
 3205 0035 00       		.byte	0
 3206 0036 05       		.uleb128 0x5
 3207 0037 13       		.uleb128 0x13
 3208 0038 01       		.byte	0x1
 3209 0039 03       		.uleb128 0x3
 3210 003a 0E       		.uleb128 0xe
 3211 003b 0B       		.uleb128 0xb
 3212 003c 0B       		.uleb128 0xb
 3213 003d 3A       		.uleb128 0x3a
 3214 003e 0B       		.uleb128 0xb
 3215 003f 3B       		.uleb128 0x3b
 3216 0040 0B       		.uleb128 0xb
 3217 0041 01       		.uleb128 0x1
 3218 0042 13       		.uleb128 0x13
 3219 0043 00       		.byte	0
 3220 0044 00       		.byte	0
 3221 0045 06       		.uleb128 0x6
 3222 0046 0D       		.uleb128 0xd
 3223 0047 00       		.byte	0
 3224 0048 03       		.uleb128 0x3
 3225 0049 0E       		.uleb128 0xe
ARM GAS  /tmp/ccFzS8Ux.s 			page 58


 3226 004a 3A       		.uleb128 0x3a
 3227 004b 0B       		.uleb128 0xb
 3228 004c 3B       		.uleb128 0x3b
 3229 004d 0B       		.uleb128 0xb
 3230 004e 49       		.uleb128 0x49
 3231 004f 13       		.uleb128 0x13
 3232 0050 38       		.uleb128 0x38
 3233 0051 0A       		.uleb128 0xa
 3234 0052 00       		.byte	0
 3235 0053 00       		.byte	0
 3236 0054 07       		.uleb128 0x7
 3237 0055 0D       		.uleb128 0xd
 3238 0056 00       		.byte	0
 3239 0057 03       		.uleb128 0x3
 3240 0058 08       		.uleb128 0x8
 3241 0059 3A       		.uleb128 0x3a
 3242 005a 0B       		.uleb128 0xb
 3243 005b 3B       		.uleb128 0x3b
 3244 005c 0B       		.uleb128 0xb
 3245 005d 49       		.uleb128 0x49
 3246 005e 13       		.uleb128 0x13
 3247 005f 38       		.uleb128 0x38
 3248 0060 0A       		.uleb128 0xa
 3249 0061 00       		.byte	0
 3250 0062 00       		.byte	0
 3251 0063 08       		.uleb128 0x8
 3252 0064 13       		.uleb128 0x13
 3253 0065 01       		.byte	0x1
 3254 0066 0B       		.uleb128 0xb
 3255 0067 0B       		.uleb128 0xb
 3256 0068 3A       		.uleb128 0x3a
 3257 0069 0B       		.uleb128 0xb
 3258 006a 3B       		.uleb128 0x3b
 3259 006b 0B       		.uleb128 0xb
 3260 006c 01       		.uleb128 0x1
 3261 006d 13       		.uleb128 0x13
 3262 006e 00       		.byte	0
 3263 006f 00       		.byte	0
 3264 0070 09       		.uleb128 0x9
 3265 0071 0F       		.uleb128 0xf
 3266 0072 00       		.byte	0
 3267 0073 0B       		.uleb128 0xb
 3268 0074 0B       		.uleb128 0xb
 3269 0075 49       		.uleb128 0x49
 3270 0076 13       		.uleb128 0x13
 3271 0077 00       		.byte	0
 3272 0078 00       		.byte	0
 3273 0079 0A       		.uleb128 0xa
 3274 007a 0F       		.uleb128 0xf
 3275 007b 00       		.byte	0
 3276 007c 0B       		.uleb128 0xb
 3277 007d 0B       		.uleb128 0xb
 3278 007e 00       		.byte	0
 3279 007f 00       		.byte	0
 3280 0080 0B       		.uleb128 0xb
 3281 0081 13       		.uleb128 0x13
 3282 0082 01       		.byte	0x1
ARM GAS  /tmp/ccFzS8Ux.s 			page 59


 3283 0083 03       		.uleb128 0x3
 3284 0084 0E       		.uleb128 0xe
 3285 0085 0B       		.uleb128 0xb
 3286 0086 0B       		.uleb128 0xb
 3287 0087 3A       		.uleb128 0x3a
 3288 0088 0B       		.uleb128 0xb
 3289 0089 3B       		.uleb128 0x3b
 3290 008a 05       		.uleb128 0x5
 3291 008b 01       		.uleb128 0x1
 3292 008c 13       		.uleb128 0x13
 3293 008d 00       		.byte	0
 3294 008e 00       		.byte	0
 3295 008f 0C       		.uleb128 0xc
 3296 0090 0D       		.uleb128 0xd
 3297 0091 00       		.byte	0
 3298 0092 03       		.uleb128 0x3
 3299 0093 08       		.uleb128 0x8
 3300 0094 3A       		.uleb128 0x3a
 3301 0095 0B       		.uleb128 0xb
 3302 0096 3B       		.uleb128 0x3b
 3303 0097 05       		.uleb128 0x5
 3304 0098 49       		.uleb128 0x49
 3305 0099 13       		.uleb128 0x13
 3306 009a 38       		.uleb128 0x38
 3307 009b 0A       		.uleb128 0xa
 3308 009c 00       		.byte	0
 3309 009d 00       		.byte	0
 3310 009e 0D       		.uleb128 0xd
 3311 009f 35       		.uleb128 0x35
 3312 00a0 00       		.byte	0
 3313 00a1 49       		.uleb128 0x49
 3314 00a2 13       		.uleb128 0x13
 3315 00a3 00       		.byte	0
 3316 00a4 00       		.byte	0
 3317 00a5 0E       		.uleb128 0xe
 3318 00a6 17       		.uleb128 0x17
 3319 00a7 01       		.byte	0x1
 3320 00a8 0B       		.uleb128 0xb
 3321 00a9 0B       		.uleb128 0xb
 3322 00aa 3A       		.uleb128 0x3a
 3323 00ab 0B       		.uleb128 0xb
 3324 00ac 3B       		.uleb128 0x3b
 3325 00ad 0B       		.uleb128 0xb
 3326 00ae 01       		.uleb128 0x1
 3327 00af 13       		.uleb128 0x13
 3328 00b0 00       		.byte	0
 3329 00b1 00       		.byte	0
 3330 00b2 0F       		.uleb128 0xf
 3331 00b3 0D       		.uleb128 0xd
 3332 00b4 00       		.byte	0
 3333 00b5 03       		.uleb128 0x3
 3334 00b6 0E       		.uleb128 0xe
 3335 00b7 3A       		.uleb128 0x3a
 3336 00b8 0B       		.uleb128 0xb
 3337 00b9 3B       		.uleb128 0x3b
 3338 00ba 0B       		.uleb128 0xb
 3339 00bb 49       		.uleb128 0x49
ARM GAS  /tmp/ccFzS8Ux.s 			page 60


 3340 00bc 13       		.uleb128 0x13
 3341 00bd 00       		.byte	0
 3342 00be 00       		.byte	0
 3343 00bf 10       		.uleb128 0x10
 3344 00c0 26       		.uleb128 0x26
 3345 00c1 00       		.byte	0
 3346 00c2 49       		.uleb128 0x49
 3347 00c3 13       		.uleb128 0x13
 3348 00c4 00       		.byte	0
 3349 00c5 00       		.byte	0
 3350 00c6 11       		.uleb128 0x11
 3351 00c7 04       		.uleb128 0x4
 3352 00c8 01       		.byte	0x1
 3353 00c9 03       		.uleb128 0x3
 3354 00ca 0E       		.uleb128 0xe
 3355 00cb 0B       		.uleb128 0xb
 3356 00cc 0B       		.uleb128 0xb
 3357 00cd 3A       		.uleb128 0x3a
 3358 00ce 0B       		.uleb128 0xb
 3359 00cf 3B       		.uleb128 0x3b
 3360 00d0 0B       		.uleb128 0xb
 3361 00d1 01       		.uleb128 0x1
 3362 00d2 13       		.uleb128 0x13
 3363 00d3 00       		.byte	0
 3364 00d4 00       		.byte	0
 3365 00d5 12       		.uleb128 0x12
 3366 00d6 28       		.uleb128 0x28
 3367 00d7 00       		.byte	0
 3368 00d8 03       		.uleb128 0x3
 3369 00d9 0E       		.uleb128 0xe
 3370 00da 1C       		.uleb128 0x1c
 3371 00db 0D       		.uleb128 0xd
 3372 00dc 00       		.byte	0
 3373 00dd 00       		.byte	0
 3374 00de 13       		.uleb128 0x13
 3375 00df 01       		.uleb128 0x1
 3376 00e0 01       		.byte	0x1
 3377 00e1 49       		.uleb128 0x49
 3378 00e2 13       		.uleb128 0x13
 3379 00e3 01       		.uleb128 0x1
 3380 00e4 13       		.uleb128 0x13
 3381 00e5 00       		.byte	0
 3382 00e6 00       		.byte	0
 3383 00e7 14       		.uleb128 0x14
 3384 00e8 21       		.uleb128 0x21
 3385 00e9 00       		.byte	0
 3386 00ea 49       		.uleb128 0x49
 3387 00eb 13       		.uleb128 0x13
 3388 00ec 2F       		.uleb128 0x2f
 3389 00ed 0B       		.uleb128 0xb
 3390 00ee 00       		.byte	0
 3391 00ef 00       		.byte	0
 3392 00f0 15       		.uleb128 0x15
 3393 00f1 13       		.uleb128 0x13
 3394 00f2 01       		.byte	0x1
 3395 00f3 0B       		.uleb128 0xb
 3396 00f4 0B       		.uleb128 0xb
ARM GAS  /tmp/ccFzS8Ux.s 			page 61


 3397 00f5 3A       		.uleb128 0x3a
 3398 00f6 0B       		.uleb128 0xb
 3399 00f7 3B       		.uleb128 0x3b
 3400 00f8 05       		.uleb128 0x5
 3401 00f9 01       		.uleb128 0x1
 3402 00fa 13       		.uleb128 0x13
 3403 00fb 00       		.byte	0
 3404 00fc 00       		.byte	0
 3405 00fd 16       		.uleb128 0x16
 3406 00fe 0D       		.uleb128 0xd
 3407 00ff 00       		.byte	0
 3408 0100 03       		.uleb128 0x3
 3409 0101 0E       		.uleb128 0xe
 3410 0102 3A       		.uleb128 0x3a
 3411 0103 0B       		.uleb128 0xb
 3412 0104 3B       		.uleb128 0x3b
 3413 0105 05       		.uleb128 0x5
 3414 0106 49       		.uleb128 0x49
 3415 0107 13       		.uleb128 0x13
 3416 0108 38       		.uleb128 0x38
 3417 0109 0A       		.uleb128 0xa
 3418 010a 00       		.byte	0
 3419 010b 00       		.byte	0
 3420 010c 17       		.uleb128 0x17
 3421 010d 16       		.uleb128 0x16
 3422 010e 00       		.byte	0
 3423 010f 03       		.uleb128 0x3
 3424 0110 0E       		.uleb128 0xe
 3425 0111 3A       		.uleb128 0x3a
 3426 0112 0B       		.uleb128 0xb
 3427 0113 3B       		.uleb128 0x3b
 3428 0114 05       		.uleb128 0x5
 3429 0115 49       		.uleb128 0x49
 3430 0116 13       		.uleb128 0x13
 3431 0117 00       		.byte	0
 3432 0118 00       		.byte	0
 3433 0119 18       		.uleb128 0x18
 3434 011a 15       		.uleb128 0x15
 3435 011b 01       		.byte	0x1
 3436 011c 27       		.uleb128 0x27
 3437 011d 0C       		.uleb128 0xc
 3438 011e 01       		.uleb128 0x1
 3439 011f 13       		.uleb128 0x13
 3440 0120 00       		.byte	0
 3441 0121 00       		.byte	0
 3442 0122 19       		.uleb128 0x19
 3443 0123 05       		.uleb128 0x5
 3444 0124 00       		.byte	0
 3445 0125 49       		.uleb128 0x49
 3446 0126 13       		.uleb128 0x13
 3447 0127 00       		.byte	0
 3448 0128 00       		.byte	0
 3449 0129 1A       		.uleb128 0x1a
 3450 012a 04       		.uleb128 0x4
 3451 012b 01       		.byte	0x1
 3452 012c 0B       		.uleb128 0xb
 3453 012d 0B       		.uleb128 0xb
ARM GAS  /tmp/ccFzS8Ux.s 			page 62


 3454 012e 3A       		.uleb128 0x3a
 3455 012f 0B       		.uleb128 0xb
 3456 0130 3B       		.uleb128 0x3b
 3457 0131 0B       		.uleb128 0xb
 3458 0132 01       		.uleb128 0x1
 3459 0133 13       		.uleb128 0x13
 3460 0134 00       		.byte	0
 3461 0135 00       		.byte	0
 3462 0136 1B       		.uleb128 0x1b
 3463 0137 04       		.uleb128 0x4
 3464 0138 01       		.byte	0x1
 3465 0139 0B       		.uleb128 0xb
 3466 013a 0B       		.uleb128 0xb
 3467 013b 3A       		.uleb128 0x3a
 3468 013c 0B       		.uleb128 0xb
 3469 013d 3B       		.uleb128 0x3b
 3470 013e 05       		.uleb128 0x5
 3471 013f 01       		.uleb128 0x1
 3472 0140 13       		.uleb128 0x13
 3473 0141 00       		.byte	0
 3474 0142 00       		.byte	0
 3475 0143 1C       		.uleb128 0x1c
 3476 0144 2E       		.uleb128 0x2e
 3477 0145 01       		.byte	0x1
 3478 0146 3F       		.uleb128 0x3f
 3479 0147 0C       		.uleb128 0xc
 3480 0148 03       		.uleb128 0x3
 3481 0149 0E       		.uleb128 0xe
 3482 014a 3A       		.uleb128 0x3a
 3483 014b 0B       		.uleb128 0xb
 3484 014c 3B       		.uleb128 0x3b
 3485 014d 0B       		.uleb128 0xb
 3486 014e 27       		.uleb128 0x27
 3487 014f 0C       		.uleb128 0xc
 3488 0150 11       		.uleb128 0x11
 3489 0151 01       		.uleb128 0x1
 3490 0152 12       		.uleb128 0x12
 3491 0153 01       		.uleb128 0x1
 3492 0154 40       		.uleb128 0x40
 3493 0155 06       		.uleb128 0x6
 3494 0156 9742     		.uleb128 0x2117
 3495 0158 0C       		.uleb128 0xc
 3496 0159 01       		.uleb128 0x1
 3497 015a 13       		.uleb128 0x13
 3498 015b 00       		.byte	0
 3499 015c 00       		.byte	0
 3500 015d 1D       		.uleb128 0x1d
 3501 015e 898201   		.uleb128 0x4109
 3502 0161 01       		.byte	0x1
 3503 0162 11       		.uleb128 0x11
 3504 0163 01       		.uleb128 0x1
 3505 0164 31       		.uleb128 0x31
 3506 0165 13       		.uleb128 0x13
 3507 0166 01       		.uleb128 0x1
 3508 0167 13       		.uleb128 0x13
 3509 0168 00       		.byte	0
 3510 0169 00       		.byte	0
ARM GAS  /tmp/ccFzS8Ux.s 			page 63


 3511 016a 1E       		.uleb128 0x1e
 3512 016b 8A8201   		.uleb128 0x410a
 3513 016e 00       		.byte	0
 3514 016f 02       		.uleb128 0x2
 3515 0170 0A       		.uleb128 0xa
 3516 0171 9142     		.uleb128 0x2111
 3517 0173 0A       		.uleb128 0xa
 3518 0174 00       		.byte	0
 3519 0175 00       		.byte	0
 3520 0176 1F       		.uleb128 0x1f
 3521 0177 898201   		.uleb128 0x4109
 3522 017a 01       		.byte	0x1
 3523 017b 11       		.uleb128 0x11
 3524 017c 01       		.uleb128 0x1
 3525 017d 9542     		.uleb128 0x2115
 3526 017f 0C       		.uleb128 0xc
 3527 0180 31       		.uleb128 0x31
 3528 0181 13       		.uleb128 0x13
 3529 0182 00       		.byte	0
 3530 0183 00       		.byte	0
 3531 0184 20       		.uleb128 0x20
 3532 0185 05       		.uleb128 0x5
 3533 0186 00       		.byte	0
 3534 0187 03       		.uleb128 0x3
 3535 0188 0E       		.uleb128 0xe
 3536 0189 3A       		.uleb128 0x3a
 3537 018a 0B       		.uleb128 0xb
 3538 018b 3B       		.uleb128 0x3b
 3539 018c 0B       		.uleb128 0xb
 3540 018d 49       		.uleb128 0x49
 3541 018e 13       		.uleb128 0x13
 3542 018f 02       		.uleb128 0x2
 3543 0190 06       		.uleb128 0x6
 3544 0191 00       		.byte	0
 3545 0192 00       		.byte	0
 3546 0193 21       		.uleb128 0x21
 3547 0194 0B       		.uleb128 0xb
 3548 0195 01       		.byte	0x1
 3549 0196 11       		.uleb128 0x11
 3550 0197 01       		.uleb128 0x1
 3551 0198 12       		.uleb128 0x12
 3552 0199 01       		.uleb128 0x1
 3553 019a 00       		.byte	0
 3554 019b 00       		.byte	0
 3555 019c 22       		.uleb128 0x22
 3556 019d 34       		.uleb128 0x34
 3557 019e 00       		.byte	0
 3558 019f 03       		.uleb128 0x3
 3559 01a0 08       		.uleb128 0x8
 3560 01a1 3A       		.uleb128 0x3a
 3561 01a2 0B       		.uleb128 0xb
 3562 01a3 3B       		.uleb128 0x3b
 3563 01a4 0B       		.uleb128 0xb
 3564 01a5 49       		.uleb128 0x49
 3565 01a6 13       		.uleb128 0x13
 3566 01a7 00       		.byte	0
 3567 01a8 00       		.byte	0
ARM GAS  /tmp/ccFzS8Ux.s 			page 64


 3568 01a9 23       		.uleb128 0x23
 3569 01aa 898201   		.uleb128 0x4109
 3570 01ad 01       		.byte	0x1
 3571 01ae 11       		.uleb128 0x11
 3572 01af 01       		.uleb128 0x1
 3573 01b0 31       		.uleb128 0x31
 3574 01b1 13       		.uleb128 0x13
 3575 01b2 00       		.byte	0
 3576 01b3 00       		.byte	0
 3577 01b4 24       		.uleb128 0x24
 3578 01b5 2E       		.uleb128 0x2e
 3579 01b6 01       		.byte	0x1
 3580 01b7 3F       		.uleb128 0x3f
 3581 01b8 0C       		.uleb128 0xc
 3582 01b9 03       		.uleb128 0x3
 3583 01ba 0E       		.uleb128 0xe
 3584 01bb 3A       		.uleb128 0x3a
 3585 01bc 0B       		.uleb128 0xb
 3586 01bd 3B       		.uleb128 0x3b
 3587 01be 05       		.uleb128 0x5
 3588 01bf 27       		.uleb128 0x27
 3589 01c0 0C       		.uleb128 0xc
 3590 01c1 11       		.uleb128 0x11
 3591 01c2 01       		.uleb128 0x1
 3592 01c3 12       		.uleb128 0x12
 3593 01c4 01       		.uleb128 0x1
 3594 01c5 40       		.uleb128 0x40
 3595 01c6 06       		.uleb128 0x6
 3596 01c7 9742     		.uleb128 0x2117
 3597 01c9 0C       		.uleb128 0xc
 3598 01ca 01       		.uleb128 0x1
 3599 01cb 13       		.uleb128 0x13
 3600 01cc 00       		.byte	0
 3601 01cd 00       		.byte	0
 3602 01ce 25       		.uleb128 0x25
 3603 01cf 05       		.uleb128 0x5
 3604 01d0 00       		.byte	0
 3605 01d1 03       		.uleb128 0x3
 3606 01d2 0E       		.uleb128 0xe
 3607 01d3 3A       		.uleb128 0x3a
 3608 01d4 0B       		.uleb128 0xb
 3609 01d5 3B       		.uleb128 0x3b
 3610 01d6 05       		.uleb128 0x5
 3611 01d7 49       		.uleb128 0x49
 3612 01d8 13       		.uleb128 0x13
 3613 01d9 02       		.uleb128 0x2
 3614 01da 06       		.uleb128 0x6
 3615 01db 00       		.byte	0
 3616 01dc 00       		.byte	0
 3617 01dd 26       		.uleb128 0x26
 3618 01de 898201   		.uleb128 0x4109
 3619 01e1 00       		.byte	0
 3620 01e2 11       		.uleb128 0x11
 3621 01e3 01       		.uleb128 0x1
 3622 01e4 31       		.uleb128 0x31
 3623 01e5 13       		.uleb128 0x13
 3624 01e6 00       		.byte	0
ARM GAS  /tmp/ccFzS8Ux.s 			page 65


 3625 01e7 00       		.byte	0
 3626 01e8 27       		.uleb128 0x27
 3627 01e9 34       		.uleb128 0x34
 3628 01ea 00       		.byte	0
 3629 01eb 03       		.uleb128 0x3
 3630 01ec 0E       		.uleb128 0xe
 3631 01ed 3A       		.uleb128 0x3a
 3632 01ee 0B       		.uleb128 0xb
 3633 01ef 3B       		.uleb128 0x3b
 3634 01f0 05       		.uleb128 0x5
 3635 01f1 49       		.uleb128 0x49
 3636 01f2 13       		.uleb128 0x13
 3637 01f3 02       		.uleb128 0x2
 3638 01f4 06       		.uleb128 0x6
 3639 01f5 00       		.byte	0
 3640 01f6 00       		.byte	0
 3641 01f7 28       		.uleb128 0x28
 3642 01f8 2E       		.uleb128 0x2e
 3643 01f9 01       		.byte	0x1
 3644 01fa 03       		.uleb128 0x3
 3645 01fb 0E       		.uleb128 0xe
 3646 01fc 3A       		.uleb128 0x3a
 3647 01fd 0B       		.uleb128 0xb
 3648 01fe 3B       		.uleb128 0x3b
 3649 01ff 0B       		.uleb128 0xb
 3650 0200 27       		.uleb128 0x27
 3651 0201 0C       		.uleb128 0xc
 3652 0202 11       		.uleb128 0x11
 3653 0203 01       		.uleb128 0x1
 3654 0204 12       		.uleb128 0x12
 3655 0205 01       		.uleb128 0x1
 3656 0206 40       		.uleb128 0x40
 3657 0207 06       		.uleb128 0x6
 3658 0208 9642     		.uleb128 0x2116
 3659 020a 0C       		.uleb128 0xc
 3660 020b 01       		.uleb128 0x1
 3661 020c 13       		.uleb128 0x13
 3662 020d 00       		.byte	0
 3663 020e 00       		.byte	0
 3664 020f 29       		.uleb128 0x29
 3665 0210 0B       		.uleb128 0xb
 3666 0211 01       		.byte	0x1
 3667 0212 55       		.uleb128 0x55
 3668 0213 06       		.uleb128 0x6
 3669 0214 01       		.uleb128 0x1
 3670 0215 13       		.uleb128 0x13
 3671 0216 00       		.byte	0
 3672 0217 00       		.byte	0
 3673 0218 2A       		.uleb128 0x2a
 3674 0219 34       		.uleb128 0x34
 3675 021a 00       		.byte	0
 3676 021b 03       		.uleb128 0x3
 3677 021c 0E       		.uleb128 0xe
 3678 021d 3A       		.uleb128 0x3a
 3679 021e 0B       		.uleb128 0xb
 3680 021f 3B       		.uleb128 0x3b
 3681 0220 0B       		.uleb128 0xb
ARM GAS  /tmp/ccFzS8Ux.s 			page 66


 3682 0221 49       		.uleb128 0x49
 3683 0222 13       		.uleb128 0x13
 3684 0223 02       		.uleb128 0x2
 3685 0224 06       		.uleb128 0x6
 3686 0225 00       		.byte	0
 3687 0226 00       		.byte	0
 3688 0227 2B       		.uleb128 0x2b
 3689 0228 0B       		.uleb128 0xb
 3690 0229 01       		.byte	0x1
 3691 022a 11       		.uleb128 0x11
 3692 022b 01       		.uleb128 0x1
 3693 022c 12       		.uleb128 0x12
 3694 022d 01       		.uleb128 0x1
 3695 022e 01       		.uleb128 0x1
 3696 022f 13       		.uleb128 0x13
 3697 0230 00       		.byte	0
 3698 0231 00       		.byte	0
 3699 0232 2C       		.uleb128 0x2c
 3700 0233 34       		.uleb128 0x34
 3701 0234 00       		.byte	0
 3702 0235 03       		.uleb128 0x3
 3703 0236 08       		.uleb128 0x8
 3704 0237 3A       		.uleb128 0x3a
 3705 0238 0B       		.uleb128 0xb
 3706 0239 3B       		.uleb128 0x3b
 3707 023a 0B       		.uleb128 0xb
 3708 023b 49       		.uleb128 0x49
 3709 023c 13       		.uleb128 0x13
 3710 023d 02       		.uleb128 0x2
 3711 023e 06       		.uleb128 0x6
 3712 023f 00       		.byte	0
 3713 0240 00       		.byte	0
 3714 0241 2D       		.uleb128 0x2d
 3715 0242 898201   		.uleb128 0x4109
 3716 0245 01       		.byte	0x1
 3717 0246 11       		.uleb128 0x11
 3718 0247 01       		.uleb128 0x1
 3719 0248 01       		.uleb128 0x1
 3720 0249 13       		.uleb128 0x13
 3721 024a 00       		.byte	0
 3722 024b 00       		.byte	0
 3723 024c 2E       		.uleb128 0x2e
 3724 024d 898201   		.uleb128 0x4109
 3725 0250 00       		.byte	0
 3726 0251 11       		.uleb128 0x11
 3727 0252 01       		.uleb128 0x1
 3728 0253 9342     		.uleb128 0x2113
 3729 0255 0A       		.uleb128 0xa
 3730 0256 00       		.byte	0
 3731 0257 00       		.byte	0
 3732 0258 2F       		.uleb128 0x2f
 3733 0259 898201   		.uleb128 0x4109
 3734 025c 00       		.byte	0
 3735 025d 11       		.uleb128 0x11
 3736 025e 01       		.uleb128 0x1
 3737 025f 9542     		.uleb128 0x2115
 3738 0261 0C       		.uleb128 0xc
ARM GAS  /tmp/ccFzS8Ux.s 			page 67


 3739 0262 31       		.uleb128 0x31
 3740 0263 13       		.uleb128 0x13
 3741 0264 00       		.byte	0
 3742 0265 00       		.byte	0
 3743 0266 30       		.uleb128 0x30
 3744 0267 2E       		.uleb128 0x2e
 3745 0268 00       		.byte	0
 3746 0269 3F       		.uleb128 0x3f
 3747 026a 0C       		.uleb128 0xc
 3748 026b 03       		.uleb128 0x3
 3749 026c 0E       		.uleb128 0xe
 3750 026d 3A       		.uleb128 0x3a
 3751 026e 0B       		.uleb128 0xb
 3752 026f 3B       		.uleb128 0x3b
 3753 0270 05       		.uleb128 0x5
 3754 0271 27       		.uleb128 0x27
 3755 0272 0C       		.uleb128 0xc
 3756 0273 11       		.uleb128 0x11
 3757 0274 01       		.uleb128 0x1
 3758 0275 12       		.uleb128 0x12
 3759 0276 01       		.uleb128 0x1
 3760 0277 40       		.uleb128 0x40
 3761 0278 0A       		.uleb128 0xa
 3762 0279 9742     		.uleb128 0x2117
 3763 027b 0C       		.uleb128 0xc
 3764 027c 00       		.byte	0
 3765 027d 00       		.byte	0
 3766 027e 31       		.uleb128 0x31
 3767 027f 34       		.uleb128 0x34
 3768 0280 00       		.byte	0
 3769 0281 03       		.uleb128 0x3
 3770 0282 0E       		.uleb128 0xe
 3771 0283 3A       		.uleb128 0x3a
 3772 0284 0B       		.uleb128 0xb
 3773 0285 3B       		.uleb128 0x3b
 3774 0286 05       		.uleb128 0x5
 3775 0287 49       		.uleb128 0x49
 3776 0288 13       		.uleb128 0x13
 3777 0289 3F       		.uleb128 0x3f
 3778 028a 0C       		.uleb128 0xc
 3779 028b 3C       		.uleb128 0x3c
 3780 028c 0C       		.uleb128 0xc
 3781 028d 00       		.byte	0
 3782 028e 00       		.byte	0
 3783 028f 32       		.uleb128 0x32
 3784 0290 34       		.uleb128 0x34
 3785 0291 00       		.byte	0
 3786 0292 03       		.uleb128 0x3
 3787 0293 0E       		.uleb128 0xe
 3788 0294 3A       		.uleb128 0x3a
 3789 0295 0B       		.uleb128 0xb
 3790 0296 3B       		.uleb128 0x3b
 3791 0297 0B       		.uleb128 0xb
 3792 0298 49       		.uleb128 0x49
 3793 0299 13       		.uleb128 0x13
 3794 029a 3F       		.uleb128 0x3f
 3795 029b 0C       		.uleb128 0xc
ARM GAS  /tmp/ccFzS8Ux.s 			page 68


 3796 029c 02       		.uleb128 0x2
 3797 029d 0A       		.uleb128 0xa
 3798 029e 00       		.byte	0
 3799 029f 00       		.byte	0
 3800 02a0 33       		.uleb128 0x33
 3801 02a1 2E       		.uleb128 0x2e
 3802 02a2 01       		.byte	0x1
 3803 02a3 3F       		.uleb128 0x3f
 3804 02a4 0C       		.uleb128 0xc
 3805 02a5 03       		.uleb128 0x3
 3806 02a6 0E       		.uleb128 0xe
 3807 02a7 3A       		.uleb128 0x3a
 3808 02a8 0B       		.uleb128 0xb
 3809 02a9 3B       		.uleb128 0x3b
 3810 02aa 05       		.uleb128 0x5
 3811 02ab 27       		.uleb128 0x27
 3812 02ac 0C       		.uleb128 0xc
 3813 02ad 3C       		.uleb128 0x3c
 3814 02ae 0C       		.uleb128 0xc
 3815 02af 01       		.uleb128 0x1
 3816 02b0 13       		.uleb128 0x13
 3817 02b1 00       		.byte	0
 3818 02b2 00       		.byte	0
 3819 02b3 34       		.uleb128 0x34
 3820 02b4 2E       		.uleb128 0x2e
 3821 02b5 01       		.byte	0x1
 3822 02b6 3F       		.uleb128 0x3f
 3823 02b7 0C       		.uleb128 0xc
 3824 02b8 03       		.uleb128 0x3
 3825 02b9 0E       		.uleb128 0xe
 3826 02ba 3A       		.uleb128 0x3a
 3827 02bb 0B       		.uleb128 0xb
 3828 02bc 3B       		.uleb128 0x3b
 3829 02bd 05       		.uleb128 0x5
 3830 02be 27       		.uleb128 0x27
 3831 02bf 0C       		.uleb128 0xc
 3832 02c0 49       		.uleb128 0x49
 3833 02c1 13       		.uleb128 0x13
 3834 02c2 3C       		.uleb128 0x3c
 3835 02c3 0C       		.uleb128 0xc
 3836 02c4 01       		.uleb128 0x1
 3837 02c5 13       		.uleb128 0x13
 3838 02c6 00       		.byte	0
 3839 02c7 00       		.byte	0
 3840 02c8 35       		.uleb128 0x35
 3841 02c9 2E       		.uleb128 0x2e
 3842 02ca 01       		.byte	0x1
 3843 02cb 3F       		.uleb128 0x3f
 3844 02cc 0C       		.uleb128 0xc
 3845 02cd 03       		.uleb128 0x3
 3846 02ce 0E       		.uleb128 0xe
 3847 02cf 3A       		.uleb128 0x3a
 3848 02d0 0B       		.uleb128 0xb
 3849 02d1 3B       		.uleb128 0x3b
 3850 02d2 0B       		.uleb128 0xb
 3851 02d3 27       		.uleb128 0x27
 3852 02d4 0C       		.uleb128 0xc
ARM GAS  /tmp/ccFzS8Ux.s 			page 69


 3853 02d5 49       		.uleb128 0x49
 3854 02d6 13       		.uleb128 0x13
 3855 02d7 3C       		.uleb128 0x3c
 3856 02d8 0C       		.uleb128 0xc
 3857 02d9 01       		.uleb128 0x1
 3858 02da 13       		.uleb128 0x13
 3859 02db 00       		.byte	0
 3860 02dc 00       		.byte	0
 3861 02dd 36       		.uleb128 0x36
 3862 02de 2E       		.uleb128 0x2e
 3863 02df 00       		.byte	0
 3864 02e0 3F       		.uleb128 0x3f
 3865 02e1 0C       		.uleb128 0xc
 3866 02e2 03       		.uleb128 0x3
 3867 02e3 0E       		.uleb128 0xe
 3868 02e4 3A       		.uleb128 0x3a
 3869 02e5 0B       		.uleb128 0xb
 3870 02e6 3B       		.uleb128 0x3b
 3871 02e7 05       		.uleb128 0x5
 3872 02e8 27       		.uleb128 0x27
 3873 02e9 0C       		.uleb128 0xc
 3874 02ea 3C       		.uleb128 0x3c
 3875 02eb 0C       		.uleb128 0xc
 3876 02ec 00       		.byte	0
 3877 02ed 00       		.byte	0
 3878 02ee 00       		.byte	0
 3879              		.section	.debug_loc,"",%progbits
 3880              	.Ldebug_loc0:
 3881              	.LLST0:
 3882 0000 00000000 		.4byte	.LFB120
 3883 0004 02000000 		.4byte	.LCFI0
 3884 0008 0200     		.2byte	0x2
 3885 000a 7D       		.byte	0x7d
 3886 000b 00       		.sleb128 0
 3887 000c 02000000 		.4byte	.LCFI0
 3888 0010 38000000 		.4byte	.LFE120
 3889 0014 0200     		.2byte	0x2
 3890 0016 7D       		.byte	0x7d
 3891 0017 10       		.sleb128 16
 3892 0018 00000000 		.4byte	0
 3893 001c 00000000 		.4byte	0
 3894              	.LLST1:
 3895 0020 00000000 		.4byte	.LFB121
 3896 0024 06000000 		.4byte	.LCFI1
 3897 0028 0200     		.2byte	0x2
 3898 002a 7D       		.byte	0x7d
 3899 002b 00       		.sleb128 0
 3900 002c 06000000 		.4byte	.LCFI1
 3901 0030 68000000 		.4byte	.LFE121
 3902 0034 0200     		.2byte	0x2
 3903 0036 7D       		.byte	0x7d
 3904 0037 08       		.sleb128 8
 3905 0038 00000000 		.4byte	0
 3906 003c 00000000 		.4byte	0
 3907              	.LLST2:
 3908 0040 00000000 		.4byte	.LVL2
 3909 0044 12000000 		.4byte	.LVL3
ARM GAS  /tmp/ccFzS8Ux.s 			page 70


 3910 0048 0100     		.2byte	0x1
 3911 004a 50       		.byte	0x50
 3912 004b 12000000 		.4byte	.LVL3
 3913 004f 1E000000 		.4byte	.LVL4
 3914 0053 0100     		.2byte	0x1
 3915 0055 54       		.byte	0x54
 3916 0056 1E000000 		.4byte	.LVL4
 3917 005a 34000000 		.4byte	.LVL5
 3918 005e 0400     		.2byte	0x4
 3919 0060 F3       		.byte	0xf3
 3920 0061 01       		.uleb128 0x1
 3921 0062 50       		.byte	0x50
 3922 0063 9F       		.byte	0x9f
 3923 0064 34000000 		.4byte	.LVL5
 3924 0068 38000000 		.4byte	.LVL6
 3925 006c 0100     		.2byte	0x1
 3926 006e 50       		.byte	0x50
 3927 006f 38000000 		.4byte	.LVL6
 3928 0073 68000000 		.4byte	.LFE121
 3929 0077 0100     		.2byte	0x1
 3930 0079 54       		.byte	0x54
 3931 007a 00000000 		.4byte	0
 3932 007e 00000000 		.4byte	0
 3933              	.LLST3:
 3934 0082 00000000 		.4byte	.LFB122
 3935 0086 06000000 		.4byte	.LCFI2
 3936 008a 0200     		.2byte	0x2
 3937 008c 7D       		.byte	0x7d
 3938 008d 00       		.sleb128 0
 3939 008e 06000000 		.4byte	.LCFI2
 3940 0092 38000000 		.4byte	.LFE122
 3941 0096 0200     		.2byte	0x2
 3942 0098 7D       		.byte	0x7d
 3943 0099 08       		.sleb128 8
 3944 009a 00000000 		.4byte	0
 3945 009e 00000000 		.4byte	0
 3946              	.LLST4:
 3947 00a2 00000000 		.4byte	.LVL8
 3948 00a6 0E000000 		.4byte	.LVL9
 3949 00aa 0100     		.2byte	0x1
 3950 00ac 50       		.byte	0x50
 3951 00ad 0E000000 		.4byte	.LVL9
 3952 00b1 38000000 		.4byte	.LFE122
 3953 00b5 0100     		.2byte	0x1
 3954 00b7 54       		.byte	0x54
 3955 00b8 00000000 		.4byte	0
 3956 00bc 00000000 		.4byte	0
 3957              	.LLST5:
 3958 00c0 00000000 		.4byte	.LFB123
 3959 00c4 0A000000 		.4byte	.LCFI3
 3960 00c8 0200     		.2byte	0x2
 3961 00ca 7D       		.byte	0x7d
 3962 00cb 00       		.sleb128 0
 3963 00cc 0A000000 		.4byte	.LCFI3
 3964 00d0 84000000 		.4byte	.LFE123
 3965 00d4 0200     		.2byte	0x2
 3966 00d6 7D       		.byte	0x7d
ARM GAS  /tmp/ccFzS8Ux.s 			page 71


 3967 00d7 1C       		.sleb128 28
 3968 00d8 00000000 		.4byte	0
 3969 00dc 00000000 		.4byte	0
 3970              	.LLST6:
 3971 00e0 00000000 		.4byte	.LVL11
 3972 00e4 4C000000 		.4byte	.LVL18
 3973 00e8 0100     		.2byte	0x1
 3974 00ea 50       		.byte	0x50
 3975 00eb 4C000000 		.4byte	.LVL18
 3976 00ef 84000000 		.4byte	.LFE123
 3977 00f3 0400     		.2byte	0x4
 3978 00f5 F3       		.byte	0xf3
 3979 00f6 01       		.uleb128 0x1
 3980 00f7 50       		.byte	0x50
 3981 00f8 9F       		.byte	0x9f
 3982 00f9 00000000 		.4byte	0
 3983 00fd 00000000 		.4byte	0
 3984              	.LLST7:
 3985 0101 04000000 		.4byte	.LVL13
 3986 0105 44000000 		.4byte	.LVL17
 3987 0109 0100     		.2byte	0x1
 3988 010b 52       		.byte	0x52
 3989 010c 44000000 		.4byte	.LVL17
 3990 0110 84000000 		.4byte	.LFE123
 3991 0114 0200     		.2byte	0x2
 3992 0116 71       		.byte	0x71
 3993 0117 00       		.sleb128 0
 3994 0118 00000000 		.4byte	0
 3995 011c 00000000 		.4byte	0
 3996              	.LLST8:
 3997 0120 02000000 		.4byte	.LVL12
 3998 0124 3E000000 		.4byte	.LVL16
 3999 0128 0100     		.2byte	0x1
 4000 012a 53       		.byte	0x53
 4001 012b 3E000000 		.4byte	.LVL16
 4002 012f 4C000000 		.4byte	.LVL18
 4003 0133 0200     		.2byte	0x2
 4004 0135 70       		.byte	0x70
 4005 0136 10       		.sleb128 16
 4006 0137 4C000000 		.4byte	.LVL18
 4007 013b 84000000 		.4byte	.LFE123
 4008 013f 0500     		.2byte	0x5
 4009 0141 F3       		.byte	0xf3
 4010 0142 01       		.uleb128 0x1
 4011 0143 50       		.byte	0x50
 4012 0144 23       		.byte	0x23
 4013 0145 10       		.uleb128 0x10
 4014 0146 00000000 		.4byte	0
 4015 014a 00000000 		.4byte	0
 4016              	.LLST9:
 4017 014e 00000000 		.4byte	.LFB124
 4018 0152 0C000000 		.4byte	.LCFI4
 4019 0156 0200     		.2byte	0x2
 4020 0158 7D       		.byte	0x7d
 4021 0159 00       		.sleb128 0
 4022 015a 0C000000 		.4byte	.LCFI4
 4023 015e 30000000 		.4byte	.LFE124
ARM GAS  /tmp/ccFzS8Ux.s 			page 72


 4024 0162 0200     		.2byte	0x2
 4025 0164 7D       		.byte	0x7d
 4026 0165 04       		.sleb128 4
 4027 0166 00000000 		.4byte	0
 4028 016a 00000000 		.4byte	0
 4029              	.LLST10:
 4030 016e 00000000 		.4byte	.LVL19
 4031 0172 1C000000 		.4byte	.LVL20
 4032 0176 0100     		.2byte	0x1
 4033 0178 50       		.byte	0x50
 4034 0179 1C000000 		.4byte	.LVL20
 4035 017d 30000000 		.4byte	.LFE124
 4036 0181 0400     		.2byte	0x4
 4037 0183 F3       		.byte	0xf3
 4038 0184 01       		.uleb128 0x1
 4039 0185 50       		.byte	0x50
 4040 0186 9F       		.byte	0x9f
 4041 0187 00000000 		.4byte	0
 4042 018b 00000000 		.4byte	0
 4043              	.LLST11:
 4044 018f 00000000 		.4byte	.LFB118
 4045 0193 06000000 		.4byte	.LCFI5
 4046 0197 0200     		.2byte	0x2
 4047 0199 7D       		.byte	0x7d
 4048 019a 00       		.sleb128 0
 4049 019b 06000000 		.4byte	.LCFI5
 4050 019f F2000000 		.4byte	.LFE118
 4051 01a3 0200     		.2byte	0x2
 4052 01a5 7D       		.byte	0x7d
 4053 01a6 10       		.sleb128 16
 4054 01a7 00000000 		.4byte	0
 4055 01ab 00000000 		.4byte	0
 4056              	.LLST12:
 4057 01af 00000000 		.4byte	.LVL21
 4058 01b3 21000000 		.4byte	.LVL23-1
 4059 01b7 0100     		.2byte	0x1
 4060 01b9 50       		.byte	0x50
 4061 01ba 21000000 		.4byte	.LVL23-1
 4062 01be 52000000 		.4byte	.LVL27
 4063 01c2 0100     		.2byte	0x1
 4064 01c4 54       		.byte	0x54
 4065 01c5 52000000 		.4byte	.LVL27
 4066 01c9 55000000 		.4byte	.LVL28-1
 4067 01cd 0100     		.2byte	0x1
 4068 01cf 50       		.byte	0x50
 4069 01d0 55000000 		.4byte	.LVL28-1
 4070 01d4 F2000000 		.4byte	.LFE118
 4071 01d8 0100     		.2byte	0x1
 4072 01da 54       		.byte	0x54
 4073 01db 00000000 		.4byte	0
 4074 01df 00000000 		.4byte	0
 4075              	.LLST13:
 4076 01e3 00000000 		.4byte	.LVL21
 4077 01e7 1E000000 		.4byte	.LVL22
 4078 01eb 0100     		.2byte	0x1
 4079 01ed 51       		.byte	0x51
 4080 01ee 1E000000 		.4byte	.LVL22
ARM GAS  /tmp/ccFzS8Ux.s 			page 73


 4081 01f2 30000000 		.4byte	.LVL24
 4082 01f6 0100     		.2byte	0x1
 4083 01f8 55       		.byte	0x55
 4084 01f9 30000000 		.4byte	.LVL24
 4085 01fd 52000000 		.4byte	.LVL27
 4086 0201 0400     		.2byte	0x4
 4087 0203 F3       		.byte	0xf3
 4088 0204 01       		.uleb128 0x1
 4089 0205 51       		.byte	0x51
 4090 0206 9F       		.byte	0x9f
 4091 0207 52000000 		.4byte	.LVL27
 4092 020b 55000000 		.4byte	.LVL28-1
 4093 020f 0100     		.2byte	0x1
 4094 0211 51       		.byte	0x51
 4095 0212 55000000 		.4byte	.LVL28-1
 4096 0216 92000000 		.4byte	.LVL36
 4097 021a 0100     		.2byte	0x1
 4098 021c 55       		.byte	0x55
 4099 021d 92000000 		.4byte	.LVL36
 4100 0221 94000000 		.4byte	.LVL37
 4101 0225 0400     		.2byte	0x4
 4102 0227 F3       		.byte	0xf3
 4103 0228 01       		.uleb128 0x1
 4104 0229 51       		.byte	0x51
 4105 022a 9F       		.byte	0x9f
 4106 022b 94000000 		.4byte	.LVL37
 4107 022f F2000000 		.4byte	.LFE118
 4108 0233 0100     		.2byte	0x1
 4109 0235 55       		.byte	0x55
 4110 0236 00000000 		.4byte	0
 4111 023a 00000000 		.4byte	0
 4112              	.LLST14:
 4113 023e 40000000 		.4byte	.LVL25
 4114 0242 4F000000 		.4byte	.LVL26-1
 4115 0246 0100     		.2byte	0x1
 4116 0248 52       		.byte	0x52
 4117 0249 00000000 		.4byte	0
 4118 024d 00000000 		.4byte	0
 4119              	.LLST15:
 4120 0251 40000000 		.4byte	.LVL25
 4121 0255 4F000000 		.4byte	.LVL26-1
 4122 0259 0F00     		.2byte	0xf
 4123 025b 74       		.byte	0x74
 4124 025c 10       		.sleb128 16
 4125 025d 06       		.byte	0x6
 4126 025e 23       		.byte	0x23
 4127 025f 02       		.uleb128 0x2
 4128 0260 94       		.byte	0x94
 4129 0261 02       		.byte	0x2
 4130 0262 0A       		.byte	0xa
 4131 0263 FFFF     		.2byte	0xffff
 4132 0265 1A       		.byte	0x1a
 4133 0266 72       		.byte	0x72
 4134 0267 00       		.sleb128 0
 4135 0268 1E       		.byte	0x1e
 4136 0269 9F       		.byte	0x9f
 4137 026a 00000000 		.4byte	0
ARM GAS  /tmp/ccFzS8Ux.s 			page 74


 4138 026e 00000000 		.4byte	0
 4139              	.LLST16:
 4140 0272 7A000000 		.4byte	.LVL31
 4141 0276 7C000000 		.4byte	.LVL32
 4142 027a 0100     		.2byte	0x1
 4143 027c 53       		.byte	0x53
 4144 027d 00000000 		.4byte	0
 4145 0281 00000000 		.4byte	0
 4146              	.LLST17:
 4147 0285 7E000000 		.4byte	.LVL33
 4148 0289 8B000000 		.4byte	.LVL34-1
 4149 028d 0100     		.2byte	0x1
 4150 028f 53       		.byte	0x53
 4151 0290 00000000 		.4byte	0
 4152 0294 00000000 		.4byte	0
 4153              	.LLST18:
 4154 0298 92000000 		.4byte	.LVL36
 4155 029c 94000000 		.4byte	.LVL37
 4156 02a0 0100     		.2byte	0x1
 4157 02a2 53       		.byte	0x53
 4158 02a3 00000000 		.4byte	0
 4159 02a7 00000000 		.4byte	0
 4160              	.LLST19:
 4161 02ab B2000000 		.4byte	.LVL39
 4162 02af BF000000 		.4byte	.LVL40-1
 4163 02b3 0100     		.2byte	0x1
 4164 02b5 52       		.byte	0x52
 4165 02b6 00000000 		.4byte	0
 4166 02ba 00000000 		.4byte	0
 4167              	.LLST20:
 4168 02be B2000000 		.4byte	.LVL39
 4169 02c2 BF000000 		.4byte	.LVL40-1
 4170 02c6 0F00     		.2byte	0xf
 4171 02c8 74       		.byte	0x74
 4172 02c9 10       		.sleb128 16
 4173 02ca 06       		.byte	0x6
 4174 02cb 23       		.byte	0x23
 4175 02cc 02       		.uleb128 0x2
 4176 02cd 94       		.byte	0x94
 4177 02ce 02       		.byte	0x2
 4178 02cf 0A       		.byte	0xa
 4179 02d0 FFFF     		.2byte	0xffff
 4180 02d2 1A       		.byte	0x1a
 4181 02d3 72       		.byte	0x72
 4182 02d4 00       		.sleb128 0
 4183 02d5 1E       		.byte	0x1e
 4184 02d6 9F       		.byte	0x9f
 4185 02d7 00000000 		.4byte	0
 4186 02db 00000000 		.4byte	0
 4187              	.LLST21:
 4188 02df CC000000 		.4byte	.LVL42
 4189 02e3 CE000000 		.4byte	.LVL43
 4190 02e7 0100     		.2byte	0x1
 4191 02e9 53       		.byte	0x53
 4192 02ea 00000000 		.4byte	0
 4193 02ee 00000000 		.4byte	0
 4194              	.LLST22:
ARM GAS  /tmp/ccFzS8Ux.s 			page 75


 4195 02f2 D2000000 		.4byte	.LVL44
 4196 02f6 DD000000 		.4byte	.LVL45-1
 4197 02fa 0100     		.2byte	0x1
 4198 02fc 53       		.byte	0x53
 4199 02fd 00000000 		.4byte	0
 4200 0301 00000000 		.4byte	0
 4201              	.LLST23:
 4202 0305 00000000 		.4byte	.LFB119
 4203 0309 0E000000 		.4byte	.LCFI6
 4204 030d 0200     		.2byte	0x2
 4205 030f 7D       		.byte	0x7d
 4206 0310 00       		.sleb128 0
 4207 0311 0E000000 		.4byte	.LCFI6
 4208 0315 70000000 		.4byte	.LFE119
 4209 0319 0200     		.2byte	0x2
 4210 031b 7D       		.byte	0x7d
 4211 031c 08       		.sleb128 8
 4212 031d 00000000 		.4byte	0
 4213 0321 00000000 		.4byte	0
 4214              	.LLST24:
 4215 0325 0C000000 		.4byte	.LVL46
 4216 0329 27000000 		.4byte	.LVL47-1
 4217 032d 0100     		.2byte	0x1
 4218 032f 52       		.byte	0x52
 4219 0330 00000000 		.4byte	0
 4220 0334 00000000 		.4byte	0
 4221              	.LLST25:
 4222 0338 4E000000 		.4byte	.LVL50
 4223 033c 56000000 		.4byte	.LVL52
 4224 0340 0100     		.2byte	0x1
 4225 0342 53       		.byte	0x53
 4226 0343 5E000000 		.4byte	.LVL53
 4227 0347 60000000 		.4byte	.LVL54
 4228 034b 0100     		.2byte	0x1
 4229 034d 53       		.byte	0x53
 4230 034e 00000000 		.4byte	0
 4231 0352 00000000 		.4byte	0
 4232              	.LLST26:
 4233 0356 52000000 		.4byte	.LVL51
 4234 035a 5D000000 		.4byte	.LVL53-1
 4235 035e 0100     		.2byte	0x1
 4236 0360 50       		.byte	0x50
 4237 0361 00000000 		.4byte	0
 4238 0365 00000000 		.4byte	0
 4239              	.LLST27:
 4240 0369 64000000 		.4byte	.LVL55
 4241 036d 6B000000 		.4byte	.LVL56-1
 4242 0371 0100     		.2byte	0x1
 4243 0373 53       		.byte	0x53
 4244 0374 00000000 		.4byte	0
 4245 0378 00000000 		.4byte	0
 4246              		.section	.debug_aranges,"",%progbits
 4247 0000 6C000000 		.4byte	0x6c
 4248 0004 0200     		.2byte	0x2
 4249 0006 00000000 		.4byte	.Ldebug_info0
 4250 000a 04       		.byte	0x4
 4251 000b 00       		.byte	0
ARM GAS  /tmp/ccFzS8Ux.s 			page 76


 4252 000c 0000     		.2byte	0
 4253 000e 0000     		.2byte	0
 4254 0010 00000000 		.4byte	.LFB120
 4255 0014 38000000 		.4byte	.LFE120-.LFB120
 4256 0018 00000000 		.4byte	.LFB121
 4257 001c 68000000 		.4byte	.LFE121-.LFB121
 4258 0020 00000000 		.4byte	.LFB122
 4259 0024 38000000 		.4byte	.LFE122-.LFB122
 4260 0028 00000000 		.4byte	.LFB123
 4261 002c 84000000 		.4byte	.LFE123-.LFB123
 4262 0030 00000000 		.4byte	.LFB124
 4263 0034 30000000 		.4byte	.LFE124-.LFB124
 4264 0038 00000000 		.4byte	.LFB118
 4265 003c F2000000 		.4byte	.LFE118-.LFB118
 4266 0040 00000000 		.4byte	.LFB119
 4267 0044 70000000 		.4byte	.LFE119-.LFB119
 4268 0048 00000000 		.4byte	.LFB125
 4269 004c 12000000 		.4byte	.LFE125-.LFB125
 4270 0050 00000000 		.4byte	.LFB126
 4271 0054 12000000 		.4byte	.LFE126-.LFB126
 4272 0058 00000000 		.4byte	.LFB127
 4273 005c 12000000 		.4byte	.LFE127-.LFB127
 4274 0060 00000000 		.4byte	.LFB128
 4275 0064 12000000 		.4byte	.LFE128-.LFB128
 4276 0068 00000000 		.4byte	0
 4277 006c 00000000 		.4byte	0
 4278              		.section	.debug_ranges,"",%progbits
 4279              	.Ldebug_ranges0:
 4280 0000 38000000 		.4byte	.LBB3
 4281 0004 40000000 		.4byte	.LBE3
 4282 0008 42000000 		.4byte	.LBB4
 4283 000c 4C000000 		.4byte	.LBE4
 4284 0010 00000000 		.4byte	0
 4285 0014 00000000 		.4byte	0
 4286 0018 A8000000 		.4byte	.LBB8
 4287 001c AE000000 		.4byte	.LBE8
 4288 0020 B0000000 		.4byte	.LBB9
 4289 0024 BA000000 		.4byte	.LBE9
 4290 0028 BC000000 		.4byte	.LBB10
 4291 002c BE000000 		.4byte	.LBE10
 4292 0030 00000000 		.4byte	0
 4293 0034 00000000 		.4byte	0
 4294 0038 00000000 		.4byte	.LFB120
 4295 003c 38000000 		.4byte	.LFE120
 4296 0040 00000000 		.4byte	.LFB121
 4297 0044 68000000 		.4byte	.LFE121
 4298 0048 00000000 		.4byte	.LFB122
 4299 004c 38000000 		.4byte	.LFE122
 4300 0050 00000000 		.4byte	.LFB123
 4301 0054 84000000 		.4byte	.LFE123
 4302 0058 00000000 		.4byte	.LFB124
 4303 005c 30000000 		.4byte	.LFE124
 4304 0060 00000000 		.4byte	.LFB118
 4305 0064 F2000000 		.4byte	.LFE118
 4306 0068 00000000 		.4byte	.LFB119
 4307 006c 70000000 		.4byte	.LFE119
 4308 0070 00000000 		.4byte	.LFB125
ARM GAS  /tmp/ccFzS8Ux.s 			page 77


 4309 0074 12000000 		.4byte	.LFE125
 4310 0078 00000000 		.4byte	.LFB126
 4311 007c 12000000 		.4byte	.LFE126
 4312 0080 00000000 		.4byte	.LFB127
 4313 0084 12000000 		.4byte	.LFE127
 4314 0088 00000000 		.4byte	.LFB128
 4315 008c 12000000 		.4byte	.LFE128
 4316 0090 00000000 		.4byte	0
 4317 0094 00000000 		.4byte	0
 4318              		.section	.debug_line,"",%progbits
 4319              	.Ldebug_line0:
 4320 0000 7E040000 		.section	.debug_str,"MS",%progbits,1
 4320      02009402 
 4320      00000201 
 4320      FB0E0D00 
 4320      01010101 
 4321              	.LASF167:
 4322 0000 4D314152 		.ascii	"M1AR\000"
 4322      00
 4323              	.LASF2:
 4324 0005 73697A65 		.ascii	"size_t\000"
 4324      5F7400
 4325              	.LASF111:
 4326 000c 54494D38 		.ascii	"TIM8_UP_TIM13_IRQn\000"
 4326      5F55505F 
 4326      54494D31 
 4326      335F4952 
 4326      516E00
 4327              	.LASF234:
 4328 001f 73717231 		.ascii	"sqr1\000"
 4328      00
 4329              	.LASF235:
 4330 0024 73717232 		.ascii	"sqr2\000"
 4330      00
 4331              	.LASF49:
 4332 0029 73697A65 		.ascii	"sizetype\000"
 4332      74797065 
 4332      00
 4333              	.LASF241:
 4334 0032 6164635F 		.ascii	"adc_lld_start\000"
 4334      6C6C645F 
 4334      73746172 
 4334      7400
 4335              	.LASF23:
 4336 0040 73797374 		.ascii	"systime_t\000"
 4336      696D655F 
 4336      7400
 4337              	.LASF195:
 4338 004a 504C4C49 		.ascii	"PLLI2SCFGR\000"
 4338      32534346 
 4338      475200
 4339              	.LASF28:
 4340 0055 705F6374 		.ascii	"p_ctx\000"
 4340      7800
 4341              	.LASF20:
 4342 005b 74707269 		.ascii	"tprio_t\000"
 4342      6F5F7400 
ARM GAS  /tmp/ccFzS8Ux.s 			page 78


 4343              	.LASF226:
 4344 0063 61646363 		.ascii	"adccallback_t\000"
 4344      616C6C62 
 4344      61636B5F 
 4344      7400
 4345              	.LASF155:
 4346 0071 53515231 		.ascii	"SQR1\000"
 4346      00
 4347              	.LASF156:
 4348 0076 53515232 		.ascii	"SQR2\000"
 4348      00
 4349              	.LASF157:
 4350 007b 53515233 		.ascii	"SQR3\000"
 4350      00
 4351              	.LASF38:
 4352 0080 705F6D73 		.ascii	"p_msgqueue\000"
 4352      67717565 
 4352      756500
 4353              	.LASF8:
 4354 008b 696E7433 		.ascii	"int32_t\000"
 4354      325F7400 
 4355              	.LASF210:
 4356 0093 61646373 		.ascii	"adcstate_t\000"
 4356      74617465 
 4356      5F7400
 4357              	.LASF260:
 4358 009e 646D6153 		.ascii	"dmaStreamRelease\000"
 4358      74726561 
 4358      6D52656C 
 4358      65617365 
 4358      00
 4359              	.LASF213:
 4360 00af 4144435F 		.ascii	"ADC_ERR_DMAFAILURE\000"
 4360      4552525F 
 4360      444D4146 
 4360      41494C55 
 4360      524500
 4361              	.LASF262:
 4362 00c2 63685363 		.ascii	"chSchReadyI\000"
 4362      68526561 
 4362      64794900 
 4363              	.LASF124:
 4364 00ce 444D4132 		.ascii	"DMA2_Stream1_IRQn\000"
 4364      5F537472 
 4364      65616D31 
 4364      5F495251 
 4364      6E00
 4365              	.LASF118:
 4366 00e0 53504933 		.ascii	"SPI3_IRQn\000"
 4366      5F495251 
 4366      6E00
 4367              	.LASF71:
 4368 00ea 464C4153 		.ascii	"FLASH_IRQn\000"
 4368      485F4952 
 4368      516E00
 4369              	.LASF145:
 4370 00f5 44434D49 		.ascii	"DCMI_IRQn\000"
ARM GAS  /tmp/ccFzS8Ux.s 			page 79


 4370      5F495251 
 4370      6E00
 4371              	.LASF218:
 4372 00ff 636F6E66 		.ascii	"config\000"
 4372      696700
 4373              	.LASF217:
 4374 0106 73746174 		.ascii	"state\000"
 4374      6500
 4375              	.LASF95:
 4376 010c 54494D32 		.ascii	"TIM2_IRQn\000"
 4376      5F495251 
 4376      6E00
 4377              	.LASF254:
 4378 0116 61646353 		.ascii	"adcSTM32DisableVBATE\000"
 4378      544D3332 
 4378      44697361 
 4378      626C6556 
 4378      42415445 
 4379              	.LASF231:
 4380 012b 6572726F 		.ascii	"error_cb\000"
 4380      725F6362 
 4380      00
 4381              	.LASF131:
 4382 0134 43414E32 		.ascii	"CAN2_RX0_IRQn\000"
 4382      5F525830 
 4382      5F495251 
 4382      6E00
 4383              	.LASF138:
 4384 0142 55534152 		.ascii	"USART6_IRQn\000"
 4384      54365F49 
 4384      52516E00 
 4385              	.LASF52:
 4386 014e 6D5F6F77 		.ascii	"m_owner\000"
 4386      6E657200 
 4387              	.LASF162:
 4388 0156 4A445234 		.ascii	"JDR4\000"
 4388      00
 4389              	.LASF230:
 4390 015b 656E645F 		.ascii	"end_cb\000"
 4390      636200
 4391              	.LASF55:
 4392 0162 65786974 		.ascii	"exitcode\000"
 4392      636F6465 
 4392      00
 4393              	.LASF143:
 4394 016b 4F54475F 		.ascii	"OTG_HS_WKUP_IRQn\000"
 4394      48535F57 
 4394      4B55505F 
 4394      4952516E 
 4394      00
 4395              	.LASF57:
 4396 017c 65776D61 		.ascii	"ewmask\000"
 4396      736B00
 4397              	.LASF110:
 4398 0183 54494D38 		.ascii	"TIM8_BRK_TIM12_IRQn\000"
 4398      5F42524B 
 4398      5F54494D 
ARM GAS  /tmp/ccFzS8Ux.s 			page 80


 4398      31325F49 
 4398      52516E00 
 4399              	.LASF186:
 4400 0197 41484232 		.ascii	"AHB2LPENR\000"
 4400      4C50454E 
 4400      5200
 4401              	.LASF29:
 4402 01a1 705F6E65 		.ascii	"p_newer\000"
 4402      77657200 
 4403              	.LASF9:
 4404 01a9 6C6F6E67 		.ascii	"long int\000"
 4404      20696E74 
 4404      00
 4405              	.LASF25:
 4406 01b2 705F6E65 		.ascii	"p_next\000"
 4406      787400
 4407              	.LASF26:
 4408 01b9 705F7072 		.ascii	"p_prev\000"
 4408      657600
 4409              	.LASF225:
 4410 01c0 646D616D 		.ascii	"dmamode\000"
 4410      6F646500 
 4411              	.LASF135:
 4412 01c8 444D4132 		.ascii	"DMA2_Stream5_IRQn\000"
 4412      5F537472 
 4412      65616D35 
 4412      5F495251 
 4412      6E00
 4413              	.LASF17:
 4414 01da 74737461 		.ascii	"tstate_t\000"
 4414      74655F74 
 4414      00
 4415              	.LASF250:
 4416 01e3 56656374 		.ascii	"Vector88\000"
 4416      6F723838 
 4416      00
 4417              	.LASF41:
 4418 01ec 705F6D74 		.ascii	"p_mtxlist\000"
 4418      786C6973 
 4418      7400
 4419              	.LASF93:
 4420 01f6 54494D31 		.ascii	"TIM1_TRG_COM_TIM11_IRQn\000"
 4420      5F545247 
 4420      5F434F4D 
 4420      5F54494D 
 4420      31315F49 
 4421              	.LASF46:
 4422 020e 72656761 		.ascii	"regarm_t\000"
 4422      726D5F74 
 4422      00
 4423              	.LASF242:
 4424 0217 6164635F 		.ascii	"adc_lld_stop\000"
 4424      6C6C645F 
 4424      73746F70 
 4424      00
 4425              	.LASF183:
 4426 0224 41504232 		.ascii	"APB2ENR\000"
ARM GAS  /tmp/ccFzS8Ux.s 			page 81


 4426      454E5200 
 4427              	.LASF185:
 4428 022c 41484231 		.ascii	"AHB1LPENR\000"
 4428      4C50454E 
 4428      5200
 4429              	.LASF66:
 4430 0236 53797354 		.ascii	"SysTick_IRQn\000"
 4430      69636B5F 
 4430      4952516E 
 4430      00
 4431              	.LASF106:
 4432 0243 55534152 		.ascii	"USART3_IRQn\000"
 4432      54335F49 
 4432      52516E00 
 4433              	.LASF251:
 4434 024f 61646353 		.ascii	"adcSTM32EnableTSVREFE\000"
 4434      544D3332 
 4434      456E6162 
 4434      6C655453 
 4434      56524546 
 4435              	.LASF1:
 4436 0265 7369676E 		.ascii	"signed char\000"
 4436      65642063 
 4436      68617200 
 4437              	.LASF35:
 4438 0271 705F7072 		.ascii	"p_preempt\000"
 4438      65656D70 
 4438      7400
 4439              	.LASF3:
 4440 027b 75696E74 		.ascii	"uint8_t\000"
 4440      385F7400 
 4441              	.LASF22:
 4442 0283 6576656E 		.ascii	"eventmask_t\000"
 4442      746D6173 
 4442      6B5F7400 
 4443              	.LASF48:
 4444 028f 636F6E74 		.ascii	"context\000"
 4444      65787400 
 4445              	.LASF80:
 4446 0297 444D4131 		.ascii	"DMA1_Stream2_IRQn\000"
 4446      5F537472 
 4446      65616D32 
 4446      5F495251 
 4446      6E00
 4447              	.LASF174:
 4448 02a9 52455345 		.ascii	"RESERVED0\000"
 4448      52564544 
 4448      3000
 4449              	.LASF177:
 4450 02b3 52455345 		.ascii	"RESERVED1\000"
 4450      52564544 
 4450      3100
 4451              	.LASF4:
 4452 02bd 756E7369 		.ascii	"unsigned char\000"
 4452      676E6564 
 4452      20636861 
 4452      7200
ARM GAS  /tmp/ccFzS8Ux.s 			page 82


 4453              	.LASF127:
 4454 02cb 444D4132 		.ascii	"DMA2_Stream4_IRQn\000"
 4454      5F537472 
 4454      65616D34 
 4454      5F495251 
 4454      6E00
 4455              	.LASF188:
 4456 02dd 52455345 		.ascii	"RESERVED4\000"
 4456      52564544 
 4456      3400
 4457              	.LASF191:
 4458 02e7 52455345 		.ascii	"RESERVED5\000"
 4458      52564544 
 4458      3500
 4459              	.LASF193:
 4460 02f1 52455345 		.ascii	"RESERVED6\000"
 4460      52564544 
 4460      3600
 4461              	.LASF215:
 4462 02fb 61646365 		.ascii	"adcerror_t\000"
 4462      72726F72 
 4462      5F7400
 4463              	.LASF99:
 4464 0306 49324331 		.ascii	"I2C1_ER_IRQn\000"
 4464      5F45525F 
 4464      4952516E 
 4464      00
 4465              	.LASF204:
 4466 0313 4144435F 		.ascii	"ADC_UNINIT\000"
 4466      554E494E 
 4466      495400
 4467              	.LASF133:
 4468 031e 43414E32 		.ascii	"CAN2_SCE_IRQn\000"
 4468      5F534345 
 4468      5F495251 
 4468      6E00
 4469              	.LASF206:
 4470 032c 4144435F 		.ascii	"ADC_READY\000"
 4470      52454144 
 4470      5900
 4471              	.LASF15:
 4472 0336 5F426F6F 		.ascii	"_Bool\000"
 4472      6C00
 4473              	.LASF181:
 4474 033c 52455345 		.ascii	"RESERVED2\000"
 4474      52564544 
 4474      3200
 4475              	.LASF184:
 4476 0346 52455345 		.ascii	"RESERVED3\000"
 4476      52564544 
 4476      3300
 4477              	.LASF117:
 4478 0350 54494D35 		.ascii	"TIM5_IRQn\000"
 4478      5F495251 
 4478      6E00
 4479              	.LASF211:
 4480 035a 61646373 		.ascii	"adcsample_t\000"
ARM GAS  /tmp/ccFzS8Ux.s 			page 83


 4480      616D706C 
 4480      655F7400 
 4481              	.LASF62:
 4482 0366 55736167 		.ascii	"UsageFault_IRQn\000"
 4482      65466175 
 4482      6C745F49 
 4482      52516E00 
 4483              	.LASF58:
 4484 0376 63686172 		.ascii	"char\000"
 4484      00
 4485              	.LASF199:
 4486 037b 69736869 		.ascii	"ishift\000"
 4486      667400
 4487              	.LASF27:
 4488 0382 705F7072 		.ascii	"p_prio\000"
 4488      696F00
 4489              	.LASF179:
 4490 0389 41484232 		.ascii	"AHB2ENR\000"
 4490      454E5200 
 4491              	.LASF56:
 4492 0391 77746F62 		.ascii	"wtobjp\000"
 4492      6A7000
 4493              	.LASF87:
 4494 0398 43414E31 		.ascii	"CAN1_RX0_IRQn\000"
 4494      5F525830 
 4494      5F495251 
 4494      6E00
 4495              	.LASF209:
 4496 03a6 4144435F 		.ascii	"ADC_ERROR\000"
 4496      4552524F 
 4496      5200
 4497              	.LASF247:
 4498 03b0 666C6167 		.ascii	"flags\000"
 4498      7300
 4499              	.LASF236:
 4500 03b6 73717233 		.ascii	"sqr3\000"
 4500      00
 4501              	.LASF228:
 4502 03bb 63697263 		.ascii	"circular\000"
 4502      756C6172 
 4502      00
 4503              	.LASF97:
 4504 03c4 54494D34 		.ascii	"TIM4_IRQn\000"
 4504      5F495251 
 4504      6E00
 4505              	.LASF105:
 4506 03ce 55534152 		.ascii	"USART2_IRQn\000"
 4506      54325F49 
 4506      52516E00 
 4507              	.LASF197:
 4508 03da 73747265 		.ascii	"stream\000"
 4508      616D00
 4509              	.LASF261:
 4510 03e1 646D6153 		.ascii	"dmaStreamAllocate\000"
 4510      74726561 
 4510      6D416C6C 
 4510      6F636174 
ARM GAS  /tmp/ccFzS8Ux.s 			page 84


 4510      6500
 4511              	.LASF192:
 4512 03f3 42444352 		.ascii	"BDCR\000"
 4512      00
 4513              	.LASF219:
 4514 03f8 73616D70 		.ascii	"samples\000"
 4514      6C657300 
 4515              	.LASF98:
 4516 0400 49324331 		.ascii	"I2C1_EV_IRQn\000"
 4516      5F45565F 
 4516      4952516E 
 4516      00
 4517              	.LASF263:
 4518 040d 474E5520 		.ascii	"GNU C 4.7.3 20121205 (prerelease)\000"
 4518      4320342E 
 4518      372E3320 
 4518      32303132 
 4518      31323035 
 4519              	.LASF163:
 4520 042f 4144435F 		.ascii	"ADC_TypeDef\000"
 4520      54797065 
 4520      44656600 
 4521              	.LASF47:
 4522 043b 696E7463 		.ascii	"intctx\000"
 4522      747800
 4523              	.LASF40:
 4524 0442 705F6570 		.ascii	"p_epending\000"
 4524      656E6469 
 4524      6E6700
 4525              	.LASF170:
 4526 044d 43464752 		.ascii	"CFGR\000"
 4526      00
 4527              	.LASF94:
 4528 0452 54494D31 		.ascii	"TIM1_CC_IRQn\000"
 4528      5F43435F 
 4528      4952516E 
 4528      00
 4529              	.LASF147:
 4530 045f 48415348 		.ascii	"HASH_RNG_IRQn\000"
 4530      5F524E47 
 4530      5F495251 
 4530      6E00
 4531              	.LASF74:
 4532 046d 45585449 		.ascii	"EXTI1_IRQn\000"
 4532      315F4952 
 4532      516E00
 4533              	.LASF86:
 4534 0478 43414E31 		.ascii	"CAN1_TX_IRQn\000"
 4534      5F54585F 
 4534      4952516E 
 4534      00
 4535              	.LASF83:
 4536 0485 444D4131 		.ascii	"DMA1_Stream5_IRQn\000"
 4536      5F537472 
 4536      65616D35 
 4536      5F495251 
 4536      6E00
ARM GAS  /tmp/ccFzS8Ux.s 			page 85


 4537              	.LASF112:
 4538 0497 54494D38 		.ascii	"TIM8_TRG_COM_TIM14_IRQn\000"
 4538      5F545247 
 4538      5F434F4D 
 4538      5F54494D 
 4538      31345F49 
 4539              	.LASF137:
 4540 04af 444D4132 		.ascii	"DMA2_Stream7_IRQn\000"
 4540      5F537472 
 4540      65616D37 
 4540      5F495251 
 4540      6E00
 4541              	.LASF134:
 4542 04c1 4F54475F 		.ascii	"OTG_FS_IRQn\000"
 4542      46535F49 
 4542      52516E00 
 4543              	.LASF59:
 4544 04cd 4E6F6E4D 		.ascii	"NonMaskableInt_IRQn\000"
 4544      61736B61 
 4544      626C6549 
 4544      6E745F49 
 4544      52516E00 
 4545              	.LASF67:
 4546 04e1 57574447 		.ascii	"WWDG_IRQn\000"
 4546      5F495251 
 4546      6E00
 4547              	.LASF11:
 4548 04eb 6C6F6E67 		.ascii	"long unsigned int\000"
 4548      20756E73 
 4548      69676E65 
 4548      6420696E 
 4548      7400
 4549              	.LASF182:
 4550 04fd 41504231 		.ascii	"APB1ENR\000"
 4550      454E5200 
 4551              	.LASF224:
 4552 0505 646D6173 		.ascii	"dmastp\000"
 4552      747000
 4553              	.LASF60:
 4554 050c 4D656D6F 		.ascii	"MemoryManagement_IRQn\000"
 4554      72794D61 
 4554      6E616765 
 4554      6D656E74 
 4554      5F495251 
 4555              	.LASF69:
 4556 0522 54414D50 		.ascii	"TAMP_STAMP_IRQn\000"
 4556      5F535441 
 4556      4D505F49 
 4556      52516E00 
 4557              	.LASF89:
 4558 0532 43414E31 		.ascii	"CAN1_SCE_IRQn\000"
 4558      5F534345 
 4558      5F495251 
 4558      6E00
 4559              	.LASF256:
 4560 0540 5F73746D 		.ascii	"_stm32_dma_streams\000"
 4560      33325F64 
ARM GAS  /tmp/ccFzS8Ux.s 			page 86


 4560      6D615F73 
 4560      74726561 
 4560      6D7300
 4561              	.LASF123:
 4562 0553 444D4132 		.ascii	"DMA2_Stream0_IRQn\000"
 4562      5F537472 
 4562      65616D30 
 4562      5F495251 
 4562      6E00
 4563              	.LASF149:
 4564 0565 534D5052 		.ascii	"SMPR1\000"
 4564      3100
 4565              	.LASF150:
 4566 056b 534D5052 		.ascii	"SMPR2\000"
 4566      3200
 4567              	.LASF202:
 4568 0571 73746D33 		.ascii	"stm32_dma_stream_t\000"
 4568      325F646D 
 4568      615F7374 
 4568      7265616D 
 4568      5F7400
 4569              	.LASF101:
 4570 0584 49324332 		.ascii	"I2C2_ER_IRQn\000"
 4570      5F45525F 
 4570      4952516E 
 4570      00
 4571              	.LASF237:
 4572 0591 41444343 		.ascii	"ADCConversionGroup\000"
 4572      6F6E7665 
 4572      7273696F 
 4572      6E47726F 
 4572      757000
 4573              	.LASF208:
 4574 05a4 4144435F 		.ascii	"ADC_COMPLETE\000"
 4574      434F4D50 
 4574      4C455445 
 4574      00
 4575              	.LASF232:
 4576 05b1 736D7072 		.ascii	"smpr1\000"
 4576      3100
 4577              	.LASF233:
 4578 05b7 736D7072 		.ascii	"smpr2\000"
 4578      3200
 4579              	.LASF244:
 4580 05bd 6164635F 		.ascii	"adc_lld_start_conversion\000"
 4580      6C6C645F 
 4580      73746172 
 4580      745F636F 
 4580      6E766572 
 4581              	.LASF61:
 4582 05d6 42757346 		.ascii	"BusFault_IRQn\000"
 4582      61756C74 
 4582      5F495251 
 4582      6E00
 4583              	.LASF169:
 4584 05e4 504C4C43 		.ascii	"PLLCFGR\000"
 4584      46475200 
ARM GAS  /tmp/ccFzS8Ux.s 			page 87


 4585              	.LASF120:
 4586 05ec 55415254 		.ascii	"UART5_IRQn\000"
 4586      355F4952 
 4586      516E00
 4587              	.LASF91:
 4588 05f7 54494D31 		.ascii	"TIM1_BRK_TIM9_IRQn\000"
 4588      5F42524B 
 4588      5F54494D 
 4588      395F4952 
 4588      516E00
 4589              	.LASF50:
 4590 060a 4D757465 		.ascii	"Mutex\000"
 4590      7800
 4591              	.LASF122:
 4592 0610 54494D37 		.ascii	"TIM7_IRQn\000"
 4592      5F495251 
 4592      6E00
 4593              	.LASF12:
 4594 061a 6C6F6E67 		.ascii	"long long int\000"
 4594      206C6F6E 
 4594      6720696E 
 4594      7400
 4595              	.LASF129:
 4596 0628 4554485F 		.ascii	"ETH_WKUP_IRQn\000"
 4596      574B5550 
 4596      5F495251 
 4596      6E00
 4597              	.LASF103:
 4598 0636 53504932 		.ascii	"SPI2_IRQn\000"
 4598      5F495251 
 4598      6E00
 4599              	.LASF144:
 4600 0640 4F54475F 		.ascii	"OTG_HS_IRQn\000"
 4600      48535F49 
 4600      52516E00 
 4601              	.LASF51:
 4602 064c 6D5F7175 		.ascii	"m_queue\000"
 4602      65756500 
 4603              	.LASF194:
 4604 0654 53534347 		.ascii	"SSCGR\000"
 4604      5200
 4605              	.LASF102:
 4606 065a 53504931 		.ascii	"SPI1_IRQn\000"
 4606      5F495251 
 4606      6E00
 4607              	.LASF243:
 4608 0664 61646370 		.ascii	"adcp\000"
 4608      00
 4609              	.LASF227:
 4610 0669 61646365 		.ascii	"adcerrorcallback_t\000"
 4610      72726F72 
 4610      63616C6C 
 4610      6261636B 
 4610      5F7400
 4611              	.LASF63:
 4612 067c 53564361 		.ascii	"SVCall_IRQn\000"
 4612      6C6C5F49 
ARM GAS  /tmp/ccFzS8Ux.s 			page 88


 4612      52516E00 
 4613              	.LASF176:
 4614 0688 41504232 		.ascii	"APB2RSTR\000"
 4614      52535452 
 4614      00
 4615              	.LASF220:
 4616 0691 64657074 		.ascii	"depth\000"
 4616      6800
 4617              	.LASF223:
 4618 0697 6D757465 		.ascii	"mutex\000"
 4618      7800
 4619              	.LASF148:
 4620 069d 4650555F 		.ascii	"FPU_IRQn\000"
 4620      4952516E 
 4620      00
 4621              	.LASF119:
 4622 06a6 55415254 		.ascii	"UART4_IRQn\000"
 4622      345F4952 
 4622      516E00
 4623              	.LASF190:
 4624 06b1 41504232 		.ascii	"APB2LPENR\000"
 4624      4C50454E 
 4624      5200
 4625              	.LASF37:
 4626 06bb 705F7761 		.ascii	"p_waiting\000"
 4626      6974696E 
 4626      6700
 4627              	.LASF109:
 4628 06c5 4F54475F 		.ascii	"OTG_FS_WKUP_IRQn\000"
 4628      46535F57 
 4628      4B55505F 
 4628      4952516E 
 4628      00
 4629              	.LASF33:
 4630 06d6 705F666C 		.ascii	"p_flags\000"
 4630      61677300 
 4631              	.LASF200:
 4632 06de 73656C66 		.ascii	"selfindex\000"
 4632      696E6465 
 4632      7800
 4633              	.LASF0:
 4634 06e8 756E7369 		.ascii	"unsigned int\000"
 4634      676E6564 
 4634      20696E74 
 4634      00
 4635              	.LASF121:
 4636 06f5 54494D36 		.ascii	"TIM6_DAC_IRQn\000"
 4636      5F444143 
 4636      5F495251 
 4636      6E00
 4637              	.LASF212:
 4638 0703 6164635F 		.ascii	"adc_channels_num_t\000"
 4638      6368616E 
 4638      6E656C73 
 4638      5F6E756D 
 4638      5F7400
 4639              	.LASF43:
ARM GAS  /tmp/ccFzS8Ux.s 			page 89


 4640 0716 705F6D70 		.ascii	"p_mpool\000"
 4640      6F6F6C00 
 4641              	.LASF100:
 4642 071e 49324332 		.ascii	"I2C2_EV_IRQn\000"
 4642      5F45565F 
 4642      4952516E 
 4642      00
 4643              	.LASF34:
 4644 072b 705F7265 		.ascii	"p_refs\000"
 4644      667300
 4645              	.LASF229:
 4646 0732 6E756D5F 		.ascii	"num_channels\000"
 4646      6368616E 
 4646      6E656C73 
 4646      00
 4647              	.LASF267:
 4648 073f 5F706F72 		.ascii	"_port_irq_epilogue\000"
 4648      745F6972 
 4648      715F6570 
 4648      696C6F67 
 4648      756500
 4649              	.LASF45:
 4650 0752 54687265 		.ascii	"ThreadsList\000"
 4650      6164734C 
 4650      69737400 
 4651              	.LASF257:
 4652 075e 41444344 		.ascii	"ADCD1\000"
 4652      3100
 4653              	.LASF189:
 4654 0764 41504231 		.ascii	"APB1LPENR\000"
 4654      4C50454E 
 4654      5200
 4655              	.LASF79:
 4656 076e 444D4131 		.ascii	"DMA1_Stream1_IRQn\000"
 4656      5F537472 
 4656      65616D31 
 4656      5F495251 
 4656      6E00
 4657              	.LASF126:
 4658 0780 444D4132 		.ascii	"DMA2_Stream3_IRQn\000"
 4658      5F537472 
 4658      65616D33 
 4658      5F495251 
 4658      6E00
 4659              	.LASF130:
 4660 0792 43414E32 		.ascii	"CAN2_TX_IRQn\000"
 4660      5F54585F 
 4660      4952516E 
 4660      00
 4661              	.LASF246:
 4662 079f 6164635F 		.ascii	"adc_lld_stop_conversion\000"
 4662      6C6C645F 
 4662      73746F70 
 4662      5F636F6E 
 4662      76657273 
 4663              	.LASF168:
 4664 07b7 444D415F 		.ascii	"DMA_Stream_TypeDef\000"
ARM GAS  /tmp/ccFzS8Ux.s 			page 90


 4664      53747265 
 4664      616D5F54 
 4664      79706544 
 4664      656600
 4665              	.LASF36:
 4666 07ca 705F7469 		.ascii	"p_time\000"
 4666      6D6500
 4667              	.LASF265:
 4668 07d1 4952516E 		.ascii	"IRQn\000"
 4668      00
 4669              	.LASF84:
 4670 07d6 444D4131 		.ascii	"DMA1_Stream6_IRQn\000"
 4670      5F537472 
 4670      65616D36 
 4670      5F495251 
 4670      6E00
 4671              	.LASF173:
 4672 07e8 41484233 		.ascii	"AHB3RSTR\000"
 4672      52535452 
 4672      00
 4673              	.LASF42:
 4674 07f1 705F7265 		.ascii	"p_realprio\000"
 4674      616C7072 
 4674      696F00
 4675              	.LASF207:
 4676 07fc 4144435F 		.ascii	"ADC_ACTIVE\000"
 4676      41435449 
 4676      564500
 4677              	.LASF78:
 4678 0807 444D4131 		.ascii	"DMA1_Stream0_IRQn\000"
 4678      5F537472 
 4678      65616D30 
 4678      5F495251 
 4678      6E00
 4679              	.LASF175:
 4680 0819 41504231 		.ascii	"APB1RSTR\000"
 4680      52535452 
 4680      00
 4681              	.LASF203:
 4682 0822 73746D33 		.ascii	"stm32_dmaisr_t\000"
 4682      325F646D 
 4682      61697372 
 4682      5F7400
 4683              	.LASF108:
 4684 0831 5254435F 		.ascii	"RTC_Alarm_IRQn\000"
 4684      416C6172 
 4684      6D5F4952 
 4684      516E00
 4685              	.LASF140:
 4686 0840 49324333 		.ascii	"I2C3_ER_IRQn\000"
 4686      5F45525F 
 4686      4952516E 
 4686      00
 4687              	.LASF146:
 4688 084d 43525950 		.ascii	"CRYP_IRQn\000"
 4688      5F495251 
 4688      6E00
ARM GAS  /tmp/ccFzS8Ux.s 			page 91


 4689              	.LASF107:
 4690 0857 45585449 		.ascii	"EXTI15_10_IRQn\000"
 4690      31355F31 
 4690      305F4952 
 4690      516E00
 4691              	.LASF13:
 4692 0866 6C6F6E67 		.ascii	"long long unsigned int\000"
 4692      206C6F6E 
 4692      6720756E 
 4692      7369676E 
 4692      65642069 
 4693              	.LASF30:
 4694 087d 705F6F6C 		.ascii	"p_older\000"
 4694      64657200 
 4695              	.LASF6:
 4696 0885 75696E74 		.ascii	"uint16_t\000"
 4696      31365F74 
 4696      00
 4697              	.LASF21:
 4698 088e 6D73675F 		.ascii	"msg_t\000"
 4698      7400
 4699              	.LASF96:
 4700 0894 54494D33 		.ascii	"TIM3_IRQn\000"
 4700      5F495251 
 4700      6E00
 4701              	.LASF104:
 4702 089e 55534152 		.ascii	"USART1_IRQn\000"
 4702      54315F49 
 4702      52516E00 
 4703              	.LASF19:
 4704 08aa 74736C69 		.ascii	"tslices_t\000"
 4704      6365735F 
 4704      7400
 4705              	.LASF249:
 4706 08b4 68616C66 		.ascii	"half_index\000"
 4706      5F696E64 
 4706      657800
 4707              	.LASF75:
 4708 08bf 45585449 		.ascii	"EXTI2_IRQn\000"
 4708      325F4952 
 4708      516E00
 4709              	.LASF216:
 4710 08ca 41444344 		.ascii	"ADCDriver\000"
 4710      72697665 
 4710      7200
 4711              	.LASF240:
 4712 08d4 6164635F 		.ascii	"adc_lld_init\000"
 4712      6C6C645F 
 4712      696E6974 
 4712      00
 4713              	.LASF132:
 4714 08e1 43414E32 		.ascii	"CAN2_RX1_IRQn\000"
 4714      5F525831 
 4714      5F495251 
 4714      6E00
 4715              	.LASF201:
 4716 08ef 76656374 		.ascii	"vector\000"
ARM GAS  /tmp/ccFzS8Ux.s 			page 92


 4716      6F7200
 4717              	.LASF85:
 4718 08f6 4144435F 		.ascii	"ADC_IRQn\000"
 4718      4952516E 
 4718      00
 4719              	.LASF214:
 4720 08ff 4144435F 		.ascii	"ADC_ERR_OVERFLOW\000"
 4720      4552525F 
 4720      4F564552 
 4720      464C4F57 
 4720      00
 4721              	.LASF248:
 4722 0910 68616C66 		.ascii	"half\000"
 4722      00
 4723              	.LASF187:
 4724 0915 41484233 		.ascii	"AHB3LPENR\000"
 4724      4C50454E 
 4724      5200
 4725              	.LASF253:
 4726 091f 61646353 		.ascii	"adcSTM32EnableVBATE\000"
 4726      544D3332 
 4726      456E6162 
 4726      6C655642 
 4726      41544500 
 4727              	.LASF68:
 4728 0933 5056445F 		.ascii	"PVD_IRQn\000"
 4728      4952516E 
 4728      00
 4729              	.LASF115:
 4730 093c 46534D43 		.ascii	"FSMC_IRQn\000"
 4730      5F495251 
 4730      6E00
 4731              	.LASF73:
 4732 0946 45585449 		.ascii	"EXTI0_IRQn\000"
 4732      305F4952 
 4732      516E00
 4733              	.LASF16:
 4734 0951 746D6F64 		.ascii	"tmode_t\000"
 4734      655F7400 
 4735              	.LASF82:
 4736 0959 444D4131 		.ascii	"DMA1_Stream4_IRQn\000"
 4736      5F537472 
 4736      65616D34 
 4736      5F495251 
 4736      6E00
 4737              	.LASF238:
 4738 096b 64756D6D 		.ascii	"dummy\000"
 4738      7900
 4739              	.LASF205:
 4740 0971 4144435F 		.ascii	"ADC_STOP\000"
 4740      53544F50 
 4740      00
 4741              	.LASF136:
 4742 097a 444D4132 		.ascii	"DMA2_Stream6_IRQn\000"
 4742      5F537472 
 4742      65616D36 
 4742      5F495251 
ARM GAS  /tmp/ccFzS8Ux.s 			page 93


 4742      6E00
 4743              	.LASF178:
 4744 098c 41484231 		.ascii	"AHB1ENR\000"
 4744      454E5200 
 4745              	.LASF64:
 4746 0994 44656275 		.ascii	"DebugMonitor_IRQn\000"
 4746      674D6F6E 
 4746      69746F72 
 4746      5F495251 
 4746      6E00
 4747              	.LASF139:
 4748 09a6 49324333 		.ascii	"I2C3_EV_IRQn\000"
 4748      5F45565F 
 4748      4952516E 
 4748      00
 4749              	.LASF221:
 4750 09b3 67727070 		.ascii	"grpp\000"
 4750      00
 4751              	.LASF172:
 4752 09b8 41484232 		.ascii	"AHB2RSTR\000"
 4752      52535452 
 4752      00
 4753              	.LASF222:
 4754 09c1 74687265 		.ascii	"thread\000"
 4754      616400
 4755              	.LASF166:
 4756 09c8 4D304152 		.ascii	"M0AR\000"
 4756      00
 4757              	.LASF128:
 4758 09cd 4554485F 		.ascii	"ETH_IRQn\000"
 4758      4952516E 
 4758      00
 4759              	.LASF196:
 4760 09d6 5243435F 		.ascii	"RCC_TypeDef\000"
 4760      54797065 
 4760      44656600 
 4761              	.LASF5:
 4762 09e2 73686F72 		.ascii	"short int\000"
 4762      7420696E 
 4762      7400
 4763              	.LASF72:
 4764 09ec 5243435F 		.ascii	"RCC_IRQn\000"
 4764      4952516E 
 4764      00
 4765              	.LASF245:
 4766 09f5 6D6F6465 		.ascii	"mode\000"
 4766      00
 4767              	.LASF151:
 4768 09fa 4A4F4652 		.ascii	"JOFR1\000"
 4768      3100
 4769              	.LASF152:
 4770 0a00 4A4F4652 		.ascii	"JOFR2\000"
 4770      3200
 4771              	.LASF153:
 4772 0a06 4A4F4652 		.ascii	"JOFR3\000"
 4772      3300
 4773              	.LASF154:
ARM GAS  /tmp/ccFzS8Ux.s 			page 94


 4774 0a0c 4A4F4652 		.ascii	"JOFR4\000"
 4774      3400
 4775              	.LASF81:
 4776 0a12 444D4131 		.ascii	"DMA1_Stream3_IRQn\000"
 4776      5F537472 
 4776      65616D33 
 4776      5F495251 
 4776      6E00
 4777              	.LASF14:
 4778 0a24 626F6F6C 		.ascii	"bool_t\000"
 4778      5F7400
 4779              	.LASF258:
 4780 0a2b 6164634F 		.ascii	"adcObjectInit\000"
 4780      626A6563 
 4780      74496E69 
 4780      7400
 4781              	.LASF159:
 4782 0a39 4A445231 		.ascii	"JDR1\000"
 4782      00
 4783              	.LASF160:
 4784 0a3e 4A445232 		.ascii	"JDR2\000"
 4784      00
 4785              	.LASF161:
 4786 0a43 4A445233 		.ascii	"JDR3\000"
 4786      00
 4787              	.LASF24:
 4788 0a48 54687265 		.ascii	"Thread\000"
 4788      616400
 4789              	.LASF158:
 4790 0a4f 4A535152 		.ascii	"JSQR\000"
 4790      00
 4791              	.LASF92:
 4792 0a54 54494D31 		.ascii	"TIM1_UP_TIM10_IRQn\000"
 4792      5F55505F 
 4792      54494D31 
 4792      305F4952 
 4792      516E00
 4793              	.LASF255:
 4794 0a67 49544D5F 		.ascii	"ITM_RxBuffer\000"
 4794      52784275 
 4794      66666572 
 4794      00
 4795              	.LASF18:
 4796 0a74 74726566 		.ascii	"trefs_t\000"
 4796      735F7400 
 4797              	.LASF141:
 4798 0a7c 4F54475F 		.ascii	"OTG_HS_EP1_OUT_IRQn\000"
 4798      48535F45 
 4798      50315F4F 
 4798      55545F49 
 4798      52516E00 
 4799              	.LASF264:
 4800 0a90 2F686F6D 		.ascii	"/home/felix/Documents/ChibiOS/os/hal/platforms/STM3"
 4800      652F6665 
 4800      6C69782F 
 4800      446F6375 
 4800      6D656E74 
ARM GAS  /tmp/ccFzS8Ux.s 			page 95


 4801 0ac3 32463478 		.ascii	"2F4xx/adc_lld.c\000"
 4801      782F6164 
 4801      635F6C6C 
 4801      642E6300 
 4802              	.LASF70:
 4803 0ad3 5254435F 		.ascii	"RTC_WKUP_IRQn\000"
 4803      574B5550 
 4803      5F495251 
 4803      6E00
 4804              	.LASF165:
 4805 0ae1 4E445452 		.ascii	"NDTR\000"
 4805      00
 4806              	.LASF259:
 4807 0ae6 6E766963 		.ascii	"nvicEnableVector\000"
 4807      456E6162 
 4807      6C655665 
 4807      63746F72 
 4807      00
 4808              	.LASF10:
 4809 0af7 75696E74 		.ascii	"uint32_t\000"
 4809      33325F74 
 4809      00
 4810              	.LASF88:
 4811 0b00 43414E31 		.ascii	"CAN1_RX1_IRQn\000"
 4811      5F525831 
 4811      5F495251 
 4811      6E00
 4812              	.LASF44:
 4813 0b0e 54687265 		.ascii	"ThreadsQueue\000"
 4813      61647351 
 4813      75657565 
 4813      00
 4814              	.LASF90:
 4815 0b1b 45585449 		.ascii	"EXTI9_5_IRQn\000"
 4815      395F355F 
 4815      4952516E 
 4815      00
 4816              	.LASF266:
 4817 0b28 6164635F 		.ascii	"adc_lld_serve_rx_interrupt\000"
 4817      6C6C645F 
 4817      73657276 
 4817      655F7278 
 4817      5F696E74 
 4818              	.LASF54:
 4819 0b43 7264796D 		.ascii	"rdymsg\000"
 4819      736700
 4820              	.LASF77:
 4821 0b4a 45585449 		.ascii	"EXTI4_IRQn\000"
 4821      345F4952 
 4821      516E00
 4822              	.LASF7:
 4823 0b55 73686F72 		.ascii	"short unsigned int\000"
 4823      7420756E 
 4823      7369676E 
 4823      65642069 
 4823      6E7400
 4824              	.LASF113:
ARM GAS  /tmp/ccFzS8Ux.s 			page 96


 4825 0b68 54494D38 		.ascii	"TIM8_CC_IRQn\000"
 4825      5F43435F 
 4825      4952516E 
 4825      00
 4826              	.LASF116:
 4827 0b75 5344494F 		.ascii	"SDIO_IRQn\000"
 4827      5F495251 
 4827      6E00
 4828              	.LASF76:
 4829 0b7f 45585449 		.ascii	"EXTI3_IRQn\000"
 4829      335F4952 
 4829      516E00
 4830              	.LASF65:
 4831 0b8a 50656E64 		.ascii	"PendSV_IRQn\000"
 4831      53565F49 
 4831      52516E00 
 4832              	.LASF142:
 4833 0b96 4F54475F 		.ascii	"OTG_HS_EP1_IN_IRQn\000"
 4833      48535F45 
 4833      50315F49 
 4833      4E5F4952 
 4833      516E00
 4834              	.LASF114:
 4835 0ba9 444D4131 		.ascii	"DMA1_Stream7_IRQn\000"
 4835      5F537472 
 4835      65616D37 
 4835      5F495251 
 4835      6E00
 4836              	.LASF171:
 4837 0bbb 41484231 		.ascii	"AHB1RSTR\000"
 4837      52535452 
 4837      00
 4838              	.LASF164:
 4839 0bc4 4144435F 		.ascii	"ADC_Common_TypeDef\000"
 4839      436F6D6D 
 4839      6F6E5F54 
 4839      79706544 
 4839      656600
 4840              	.LASF198:
 4841 0bd7 69666372 		.ascii	"ifcr\000"
 4841      00
 4842              	.LASF31:
 4843 0bdc 705F6E61 		.ascii	"p_name\000"
 4843      6D6500
 4844              	.LASF53:
 4845 0be3 6D5F6E65 		.ascii	"m_next\000"
 4845      787400
 4846              	.LASF252:
 4847 0bea 61646353 		.ascii	"adcSTM32DisableTSVREFE\000"
 4847      544D3332 
 4847      44697361 
 4847      626C6554 
 4847      53565245 
 4848              	.LASF180:
 4849 0c01 41484233 		.ascii	"AHB3ENR\000"
 4849      454E5200 
 4850              	.LASF125:
ARM GAS  /tmp/ccFzS8Ux.s 			page 97


 4851 0c09 444D4132 		.ascii	"DMA2_Stream2_IRQn\000"
 4851      5F537472 
 4851      65616D32 
 4851      5F495251 
 4851      6E00
 4852              	.LASF39:
 4853 0c1b 705F6D73 		.ascii	"p_msg\000"
 4853      6700
 4854              	.LASF239:
 4855 0c21 41444343 		.ascii	"ADCConfig\000"
 4855      6F6E6669 
 4855      6700
 4856              	.LASF32:
 4857 0c2b 705F7374 		.ascii	"p_state\000"
 4857      61746500 
 4858              		.ident	"GCC: (Linaro GCC 4.7-2012.12) 4.7.3 20121205 (prerelease)"
ARM GAS  /tmp/ccFzS8Ux.s 			page 98


DEFINED SYMBOLS
                            *ABS*:0000000000000000 adc_lld.c
     /tmp/ccFzS8Ux.s:19     .text.adc_lld_init:0000000000000000 $t
     /tmp/ccFzS8Ux.s:25     .text.adc_lld_init:0000000000000000 adc_lld_init
     /tmp/ccFzS8Ux.s:840    .bss.ADCD1:0000000000000000 .LANCHOR0
     /tmp/ccFzS8Ux.s:72     .text.adc_lld_init:0000000000000034 $d
     /tmp/ccFzS8Ux.s:77     .text.adc_lld_start:0000000000000000 $t
     /tmp/ccFzS8Ux.s:83     .text.adc_lld_start:0000000000000000 adc_lld_start
     /tmp/ccFzS8Ux.s:166    .text.adc_lld_start:0000000000000060 $d
     /tmp/ccFzS8Ux.s:420    .text.adc_lld_serve_rx_interrupt:0000000000000000 adc_lld_serve_rx_interrupt
     /tmp/ccFzS8Ux.s:173    .text.adc_lld_stop:0000000000000000 $t
     /tmp/ccFzS8Ux.s:179    .text.adc_lld_stop:0000000000000000 adc_lld_stop
     /tmp/ccFzS8Ux.s:229    .text.adc_lld_stop:0000000000000034 $d
     /tmp/ccFzS8Ux.s:234    .text.adc_lld_start_conversion:0000000000000000 $t
     /tmp/ccFzS8Ux.s:240    .text.adc_lld_start_conversion:0000000000000000 adc_lld_start_conversion
     /tmp/ccFzS8Ux.s:358    .text.adc_lld_stop_conversion:0000000000000000 $t
     /tmp/ccFzS8Ux.s:364    .text.adc_lld_stop_conversion:0000000000000000 adc_lld_stop_conversion
     /tmp/ccFzS8Ux.s:415    .text.adc_lld_serve_rx_interrupt:0000000000000000 $t
     /tmp/ccFzS8Ux.s:632    .text.Vector88:0000000000000000 $t
     /tmp/ccFzS8Ux.s:638    .text.Vector88:0000000000000000 Vector88
     /tmp/ccFzS8Ux.s:737    .text.Vector88:000000000000006c $d
     /tmp/ccFzS8Ux.s:742    .text.adcSTM32EnableTSVREFE:0000000000000000 $t
     /tmp/ccFzS8Ux.s:748    .text.adcSTM32EnableTSVREFE:0000000000000000 adcSTM32EnableTSVREFE
     /tmp/ccFzS8Ux.s:766    .text.adcSTM32DisableTSVREFE:0000000000000000 $t
     /tmp/ccFzS8Ux.s:772    .text.adcSTM32DisableTSVREFE:0000000000000000 adcSTM32DisableTSVREFE
     /tmp/ccFzS8Ux.s:790    .text.adcSTM32EnableVBATE:0000000000000000 $t
     /tmp/ccFzS8Ux.s:796    .text.adcSTM32EnableVBATE:0000000000000000 adcSTM32EnableVBATE
     /tmp/ccFzS8Ux.s:814    .text.adcSTM32DisableVBATE:0000000000000000 $t
     /tmp/ccFzS8Ux.s:820    .text.adcSTM32DisableVBATE:0000000000000000 adcSTM32DisableVBATE
     /tmp/ccFzS8Ux.s:843    .bss.ADCD1:0000000000000000 ADCD1
     /tmp/ccFzS8Ux.s:839    .bss.ADCD1:0000000000000000 $d
                     .debug_frame:0000000000000010 $d
     /tmp/ccFzS8Ux.s:76     .text.adc_lld_init:0000000000000038 $t
     /tmp/ccFzS8Ux.s:172    .text.adc_lld_start:0000000000000068 $t
     /tmp/ccFzS8Ux.s:233    .text.adc_lld_stop:0000000000000038 $t

UNDEFINED SYMBOLS
adcObjectInit
nvicEnableVector
_stm32_dma_streams
dmaStreamAllocate
dmaStreamRelease
chSchReadyI
_port_irq_epilogue
