ARM GAS  /tmp/ccSGyqJ3.s 			page 1


   1              		.syntax unified
   2              		.cpu cortex-m4
   3              		.fpu softvfp
   4              		.eabi_attribute 20, 1
   5              		.eabi_attribute 21, 1
   6              		.eabi_attribute 23, 3
   7              		.eabi_attribute 24, 1
   8              		.eabi_attribute 25, 1
   9              		.eabi_attribute 26, 1
  10              		.eabi_attribute 30, 2
  11              		.eabi_attribute 34, 1
  12              		.eabi_attribute 18, 4
  13              		.thumb
  14              		.file	"chcore_v7m.c"
  15              		.text
  16              	.Ltext0:
  17              		.cfi_sections	.debug_frame
  18              		.section	.text._port_switch_from_isr,"ax",%progbits
  19              		.align	2
  20              		.p2align 4,,15
  21              		.global	_port_switch_from_isr
  22              		.thumb
  23              		.thumb_func
  24              		.type	_port_switch_from_isr, %function
  25              	_port_switch_from_isr:
  26              	.LFB11:
  27              		.file 1 "/home/felix/Documents/ChibiOS/os/ports/GCC/ARMCMx/chcore_v7m.c"
  28              		.loc 1 207 0
  29              		.cfi_startproc
  30              		@ Naked Function: prologue and epilogue provided by programmer.
  31              		@ args = 0, pretend = 0, frame = 0
  32              		@ frame_needed = 0, uses_anonymous_args = 0
  33              		.loc 1 210 0
  34 0000 FFF7FEFF 		bl	chSchDoReschedule
  35              	.LVL0:
  36              		.loc 1 212 0
  37              	@ 212 "/home/felix/Documents/ChibiOS/os/ports/GCC/ARMCMx/chcore_v7m.c" 1
  38              		_port_exit_from_isr:
  39              	@ 0 "" 2
  40              		.loc 1 214 0
  41              	@ 214 "/home/felix/Documents/ChibiOS/os/ports/GCC/ARMCMx/chcore_v7m.c" 1
  42 0004 00DF     		svc     #0
  43              	@ 0 "" 2
  44              		.loc 1 221 0
  45              		.thumb
  46              		.cfi_endproc
  47              	.LFE11:
  48              		.size	_port_switch_from_isr, .-_port_switch_from_isr
  49 0006 00BFAFF3 		.section	.text.SVCallVector,"ax",%progbits
  49      0080AFF3 
  49      0080
  50              		.align	2
  51              		.p2align 4,,15
  52              		.global	SVCallVector
  53              		.thumb
  54              		.thumb_func
  55              		.type	SVCallVector, %function
ARM GAS  /tmp/ccSGyqJ3.s 			page 2


  56              	SVCallVector:
  57              	.LFB8:
  58              		.loc 1 65 0
  59              		.cfi_startproc
  60              		@ args = 0, pretend = 0, frame = 0
  61              		@ frame_needed = 0, uses_anonymous_args = 0
  62              		@ link register save eliminated.
  63              		.loc 1 69 0
  64              	@ 69 "/home/felix/Documents/ChibiOS/os/ports/GCC/ARMCMx/chcore_v7m.c" 1
  65 0000 EFF30983 		mrs     r3, PSP
  66              	@ 0 "" 2
  67              	.LVL1:
  68              		.loc 1 73 0
  69              		.thumb
  70 0004 2033     		adds	r3, r3, #32
  71              	.LVL2:
  72              		.loc 1 80 0
  73              	@ 80 "/home/felix/Documents/ChibiOS/os/ports/GCC/ARMCMx/chcore_v7m.c" 1
  74 0006 83F30988 		msr     PSP, r3
  75              	@ 0 "" 2
  76              		.thumb
  77              	.LBB2:
  78              		.loc 1 81 0
  79 000a 0023     		movs	r3, #0
  80              	.LVL3:
  81              	@ 81 "/home/felix/Documents/ChibiOS/os/ports/GCC/ARMCMx/chcore_v7m.c" 1
  82 000c 83F31188 		msr     BASEPRI, r3
  83              	@ 0 "" 2
  84              	.LVL4:
  85              		.thumb
  86 0010 7047     		bx	lr
  87              	.LBE2:
  88              		.cfi_endproc
  89              	.LFE8:
  90              		.size	SVCallVector, .-SVCallVector
  91 0012 00BFAFF3 		.section	.text._port_init,"ax",%progbits
  91      0080AFF3 
  91      0080AFF3 
  91      0080
  92              		.align	2
  93              		.p2align 4,,15
  94              		.global	_port_init
  95              		.thumb
  96              		.thumb_func
  97              		.type	_port_init, %function
  98              	_port_init:
  99              	.LFB9:
 100              		.loc 1 118 0
 101              		.cfi_startproc
 102              		@ args = 0, pretend = 0, frame = 0
 103              		@ frame_needed = 0, uses_anonymous_args = 0
 104 0000 08B5     		push	{r3, lr}
 105              	.LCFI0:
 106              		.cfi_def_cfa_offset 8
 107              		.cfi_offset 3, -8
 108              		.cfi_offset 14, -4
 109              		.loc 1 121 0
ARM GAS  /tmp/ccSGyqJ3.s 			page 3


 110 0002 4FF46D43 		mov	r3, #60672
 111 0006 CEF20003 		movt	r3, 57344
 112              		.loc 1 122 0
 113 000a 4FF44072 		mov	r2, #768
 114 000e C0F2FA52 		movt	r2, 1530
 115              		.loc 1 121 0
 116 0012 0021     		movs	r1, #0
 117 0014 9960     		str	r1, [r3, #8]
 118              		.loc 1 125 0
 119 0016 0720     		movs	r0, #7
 120              		.loc 1 122 0
 121 0018 DA60     		str	r2, [r3, #12]
 122              		.loc 1 125 0
 123 001a 1021     		movs	r1, #16
 124 001c FFF7FEFF 		bl	nvicSetSystemHandlerPriority
 125              	.LVL5:
 126              		.loc 1 127 0
 127 0020 0A20     		movs	r0, #10
 128 0022 4FF40071 		mov	r1, #512
 129 0026 FFF7FEFF 		bl	nvicSetSystemHandlerPriority
 130              	.LVL6:
 131              		.loc 1 129 0
 132 002a 0B20     		movs	r0, #11
 133 002c 8021     		movs	r1, #128
 134              		.loc 1 131 0
 135 002e BDE80840 		pop	{r3, lr}
 136              		.loc 1 129 0
 137 0032 FFF7FEBF 		b	nvicSetSystemHandlerPriority
 138              	.LVL7:
 139              		.cfi_endproc
 140              	.LFE9:
 141              		.size	_port_init, .-_port_init
 142 0036 00BFAFF3 		.section	.text._port_irq_epilogue,"ax",%progbits
 142      0080AFF3 
 142      0080
 143              		.align	2
 144              		.p2align 4,,15
 145              		.global	_port_irq_epilogue
 146              		.thumb
 147              		.thumb_func
 148              		.type	_port_irq_epilogue, %function
 149              	_port_irq_epilogue:
 150              	.LFB10:
 151              		.loc 1 148 0
 152              		.cfi_startproc
 153              		@ args = 0, pretend = 0, frame = 0
 154              		@ frame_needed = 0, uses_anonymous_args = 0
 155              		@ link register save eliminated.
 156              	.LBB3:
 157              		.loc 1 150 0
 158 0000 2023     		movs	r3, #32
 159              	.LVL8:
 160              	@ 150 "/home/felix/Documents/ChibiOS/os/ports/GCC/ARMCMx/chcore_v7m.c" 1
 161 0002 83F31188 		msr     BASEPRI, r3
 162              	@ 0 "" 2
 163              	.LVL9:
 164              		.thumb
ARM GAS  /tmp/ccSGyqJ3.s 			page 4


 165              	.LBE3:
 166              		.loc 1 151 0
 167 0006 4FF46D43 		mov	r3, #60672
 168              	.LVL10:
 169 000a CEF20003 		movt	r3, 57344
 170 000e 5B68     		ldr	r3, [r3, #4]
 171 0010 13F40063 		ands	r3, r3, #2048
 172 0014 19D0     		beq	.L5
 173              	.LBB4:
 174              		.loc 1 155 0
 175              	@ 155 "/home/felix/Documents/ChibiOS/os/ports/GCC/ARMCMx/chcore_v7m.c" 1
 176 0016 EFF30983 		mrs     r3, PSP
 177              	@ 0 "" 2
 178              	.LVL11:
 179              		.loc 1 159 0
 180              		.thumb
 181 001a A3F12002 		sub	r2, r3, #32
 182              	.LVL12:
 183              		.loc 1 160 0
 184              	@ 160 "/home/felix/Documents/ChibiOS/os/ports/GCC/ARMCMx/chcore_v7m.c" 1
 185 001e 82F30988 		msr     PSP, r2
 186              	@ 0 "" 2
 187              		.loc 1 165 0
 188              		.thumb
 189 0022 1049     		ldr	r1, .L12
 190              		.loc 1 161 0
 191 0024 4FF08070 		mov	r0, #16777216
 192              		.loc 1 165 0
 193 0028 8A69     		ldr	r2, [r1, #24]
 194              	.LVL13:
 195              		.loc 1 161 0
 196 002a 43F8040C 		str	r0, [r3, #-4]
 197              		.loc 1 165 0
 198 002e D07F     		ldrb	r0, [r2, #31]	@ zero_extendqisi2
 199 0030 0968     		ldr	r1, [r1, #0]
 200 0032 9268     		ldr	r2, [r2, #8]
 201 0034 8968     		ldr	r1, [r1, #8]
 202 0036 58B1     		cbz	r0, .L6
 203              		.loc 1 165 0 is_stmt 0 discriminator 1
 204 0038 9142     		cmp	r1, r2
 205 003a 94BF     		ite	ls
 206 003c 0022     		movls	r2, #0
 207 003e 0122     		movhi	r2, #1
 208 0040 62B1     		cbz	r2, .L8
 209              	.L11:
 210              		.loc 1 167 0 is_stmt 1
 211 0042 094A     		ldr	r2, .L12+4
 212 0044 43F8082C 		str	r2, [r3, #-8]
 213 0048 7047     		bx	lr
 214              	.LVL14:
 215              	.L5:
 216              	.LBE4:
 217              	.LBB5:
 218              		.loc 1 197 0
 219              	@ 197 "/home/felix/Documents/ChibiOS/os/ports/GCC/ARMCMx/chcore_v7m.c" 1
 220 004a 83F31188 		msr     BASEPRI, r3
 221              	@ 0 "" 2
ARM GAS  /tmp/ccSGyqJ3.s 			page 5


 222              	.LVL15:
 223              		.thumb
 224 004e 7047     		bx	lr
 225              	.LVL16:
 226              	.L6:
 227              	.LBE5:
 228              	.LBB6:
 229              		.loc 1 165 0 discriminator 2
 230 0050 9142     		cmp	r1, r2
 231 0052 34BF     		ite	cc
 232 0054 0022     		movcc	r2, #0
 233 0056 0122     		movcs	r2, #1
 234 0058 002A     		cmp	r2, #0
 235 005a F2D1     		bne	.L11
 236              	.L8:
 237              		.loc 1 176 0
 238 005c 034A     		ldr	r2, .L12+8
 239 005e 43F8082C 		str	r2, [r3, #-8]
 240 0062 7047     		bx	lr
 241              	.L13:
 242              		.align	2
 243              	.L12:
 244 0064 00000000 		.word	rlist
 245 0068 00000000 		.word	_port_switch_from_isr
 246 006c 04000000 		.word	_port_exit_from_isr
 247              	.LBE6:
 248              		.cfi_endproc
 249              	.LFE10:
 250              		.size	_port_irq_epilogue, .-_port_irq_epilogue
 251              		.section	.text.SysTickVector,"ax",%progbits
 252              		.align	2
 253              		.p2align 4,,15
 254              		.global	SysTickVector
 255              		.thumb
 256              		.thumb_func
 257              		.type	SysTickVector, %function
 258              	SysTickVector:
 259              	.LFB7:
 260              		.loc 1 47 0
 261              		.cfi_startproc
 262              		@ args = 0, pretend = 0, frame = 0
 263              		@ frame_needed = 0, uses_anonymous_args = 0
 264 0000 08B5     		push	{r3, lr}
 265              	.LCFI1:
 266              		.cfi_def_cfa_offset 8
 267              		.cfi_offset 3, -8
 268              		.cfi_offset 14, -4
 269              	.LBB7:
 270              		.loc 1 51 0
 271 0002 2023     		movs	r3, #32
 272              	.LVL17:
 273              	@ 51 "/home/felix/Documents/ChibiOS/os/ports/GCC/ARMCMx/chcore_v7m.c" 1
 274 0004 83F31188 		msr     BASEPRI, r3
 275              	@ 0 "" 2
 276              	.LVL18:
 277              		.thumb
 278              	.LBE7:
ARM GAS  /tmp/ccSGyqJ3.s 			page 6


 279              		.loc 1 52 0
 280 0008 FFF7FEFF 		bl	chSysTimerHandlerI
 281              	.LVL19:
 282              	.LBB8:
 283              		.loc 1 53 0
 284 000c 0023     		movs	r3, #0
 285              	.LVL20:
 286              	@ 53 "/home/felix/Documents/ChibiOS/os/ports/GCC/ARMCMx/chcore_v7m.c" 1
 287 000e 83F31188 		msr     BASEPRI, r3
 288              	@ 0 "" 2
 289              	.LVL21:
 290              		.thumb
 291              	.LBE8:
 292              		.loc 1 56 0
 293 0012 BDE80840 		pop	{r3, lr}
 294              		.loc 1 55 0
 295 0016 FFF7FEBF 		b	_port_irq_epilogue
 296              	.LVL22:
 297              		.cfi_endproc
 298              	.LFE7:
 299              		.size	SysTickVector, .-SysTickVector
 300 001a 00BFAFF3 		.section	.text._port_switch,"ax",%progbits
 300      0080
 301              		.align	2
 302              		.p2align 4,,15
 303              		.global	_port_switch
 304              		.thumb
 305              		.thumb_func
 306              		.type	_port_switch, %function
 307              	_port_switch:
 308              	.LFB12:
 309              		.loc 1 236 0
 310              		.cfi_startproc
 311              		@ Naked Function: prologue and epilogue provided by programmer.
 312              		@ args = 0, pretend = 0, frame = 0
 313              		@ frame_needed = 0, uses_anonymous_args = 0
 314              	.LVL23:
 315              		.loc 1 238 0
 316              	@ 238 "/home/felix/Documents/ChibiOS/os/ports/GCC/ARMCMx/chcore_v7m.c" 1
 317 0000 2DE9F04F 		push    {r4, r5, r6, r7, r8, r9, r10, r11, lr}
 318              	@ 0 "" 2
 319              		.loc 1 244 0
 320              	@ 244 "/home/felix/Documents/ChibiOS/os/ports/GCC/ARMCMx/chcore_v7m.c" 1
 321 0004 C1F80CD0 		str     sp, [r1, #12]                          
 322 0008 D0F80CD0 		ldr     sp, [r0, #12]
 323              	@ 0 "" 2
 324              		.loc 1 250 0
 325              	@ 250 "/home/felix/Documents/ChibiOS/os/ports/GCC/ARMCMx/chcore_v7m.c" 1
 326 000c BDE8F08F 		pop     {r4, r5, r6, r7, r8, r9, r10, r11, pc}
 327              	@ 0 "" 2
 328              		.loc 1 252 0
 329              		.thumb
 330              		.cfi_endproc
 331              	.LFE12:
 332              		.size	_port_switch, .-_port_switch
 333              		.section	.text._port_thread_start,"ax",%progbits
 334              		.align	2
ARM GAS  /tmp/ccSGyqJ3.s 			page 7


 335              		.p2align 4,,15
 336              		.global	_port_thread_start
 337              		.thumb
 338              		.thumb_func
 339              		.type	_port_thread_start, %function
 340              	_port_thread_start:
 341              	.LFB13:
 342              		.loc 1 259 0
 343              		.cfi_startproc
 344              		@ args = 0, pretend = 0, frame = 0
 345              		@ frame_needed = 0, uses_anonymous_args = 0
 346              		@ link register save eliminated.
 347              	.LBB9:
 348              		.loc 1 261 0
 349 0000 0023     		movs	r3, #0
 350              	.LVL24:
 351              	@ 261 "/home/felix/Documents/ChibiOS/os/ports/GCC/ARMCMx/chcore_v7m.c" 1
 352 0002 83F31188 		msr     BASEPRI, r3
 353              	@ 0 "" 2
 354              	.LVL25:
 355              		.thumb
 356              	.LBE9:
 357              		.loc 1 262 0
 358              	@ 262 "/home/felix/Documents/ChibiOS/os/ports/GCC/ARMCMx/chcore_v7m.c" 1
 359 0006 2846     		mov     r0, r5                                 
 360 0008 A047     		blx     r4                                     
 361 000a FFF7FEFF 		bl      chThdExit
 362              	@ 0 "" 2
 363              		.thumb
 364 000e 7047     		bx	lr
 365              		.cfi_endproc
 366              	.LFE13:
 367              		.size	_port_thread_start, .-_port_thread_start
 368              		.text
 369              	.Letext0:
 370              		.file 2 "/opt/tools_arm/lib/gcc/arm-none-eabi/4.7.3/../../../../arm-none-eabi/include/stdint.h"
 371              		.file 3 "/home/felix/Documents/ChibiOS/os/ports/GCC/ARMCMx/chtypes.h"
 372              		.file 4 "/home/felix/Documents/ChibiOS/os/kernel/include/chlists.h"
 373              		.file 5 "/home/felix/Documents/ChibiOS/os/kernel/include/chthreads.h"
 374              		.file 6 "/home/felix/Documents/ChibiOS/os/ports/GCC/ARMCMx/chcore_v7m.h"
 375              		.file 7 "/home/felix/Documents/ChibiOS/os/ports/common/ARMCMx/nvic.h"
 376              		.file 8 "/home/felix/Documents/ChibiOS/os/kernel/include/chschd.h"
 377              		.file 9 "/home/felix/Documents/ChibiOS/os/kernel/include/chmtx.h"
 378              		.file 10 "/home/felix/Documents/ChibiOS/os/kernel/include/chsys.h"