ARM GAS  /tmp/ccyTqvjp.s 			page 1


   1              		.syntax unified
   2              		.cpu cortex-m4
   3              		.fpu softvfp
   4              		.eabi_attribute 20, 1
   5              		.eabi_attribute 21, 1
   6              		.eabi_attribute 23, 3
   7              		.eabi_attribute 24, 1
   8              		.eabi_attribute 25, 1
   9              		.eabi_attribute 26, 1
  10              		.eabi_attribute 30, 2
  11              		.eabi_attribute 34, 1
  12              		.eabi_attribute 18, 4
  13              		.thumb
  14              		.file	"chdynamic.c"
  15              		.text
  16              	.Ltext0:
  17              		.cfi_sections	.debug_frame
  18              		.section	.text.chThdAddRef,"ax",%progbits
  19              		.align	2
  20              		.p2align 4,,15
  21              		.global	chThdAddRef
  22              		.thumb
  23              		.thumb_func
  24              		.type	chThdAddRef, %function
  25              	chThdAddRef:
  26              	.LFB7:
  27              		.file 1 "/home/felix/Documents/ChibiOS/os/kernel/src/chdynamic.c"
  28              		.loc 1 52 0
  29              		.cfi_startproc
  30              		@ args = 0, pretend = 0, frame = 0
  31              		@ frame_needed = 0, uses_anonymous_args = 0
  32              		@ link register save eliminated.
  33              	.LVL0:
  34              	.LBB2:
  35              		.loc 1 54 0
  36 0000 2023     		movs	r3, #32
  37              	.LVL1:
  38              	@ 54 "/home/felix/Documents/ChibiOS/os/kernel/src/chdynamic.c" 1
  39 0002 83F31188 		msr     BASEPRI, r3
  40              	@ 0 "" 2
  41              	.LVL2:
  42              		.thumb
  43              	.LBE2:
  44              		.loc 1 56 0
  45 0006 837F     		ldrb	r3, [r0, #30]	@ zero_extendqisi2
  46              	.LVL3:
  47 0008 0133     		adds	r3, r3, #1
  48 000a 8377     		strb	r3, [r0, #30]
  49              	.LBB3:
  50              		.loc 1 57 0
  51 000c 0023     		movs	r3, #0
  52              	.LVL4:
  53              	@ 57 "/home/felix/Documents/ChibiOS/os/kernel/src/chdynamic.c" 1
  54 000e 83F31188 		msr     BASEPRI, r3
  55              	@ 0 "" 2
  56              	.LVL5:
  57              		.thumb
ARM GAS  /tmp/ccyTqvjp.s 			page 2


  58              	.LBE3:
  59              		.loc 1 59 0
  60 0012 7047     		bx	lr
  61              		.cfi_endproc
  62              	.LFE7:
  63              		.size	chThdAddRef, .-chThdAddRef
  64 0014 AFF30080 		.section	.text.chThdRelease,"ax",%progbits
  64      AFF30080 
  64      AFF30080 
  65              		.align	2
  66              		.p2align 4,,15
  67              		.global	chThdRelease
  68              		.thumb
  69              		.thumb_func
  70              		.type	chThdRelease, %function
  71              	chThdRelease:
  72              	.LFB8:
  73              		.loc 1 74 0
  74              		.cfi_startproc
  75              		@ args = 0, pretend = 0, frame = 0
  76              		@ frame_needed = 0, uses_anonymous_args = 0
  77              		@ link register save eliminated.
  78              	.LVL6:
  79              		.loc 1 74 0
  80 0000 0146     		mov	r1, r0
  81              	.LBB4:
  82              		.loc 1 77 0
  83 0002 2023     		movs	r3, #32
  84              	.LVL7:
  85              	@ 77 "/home/felix/Documents/ChibiOS/os/kernel/src/chdynamic.c" 1
  86 0004 83F31188 		msr     BASEPRI, r3
  87              	@ 0 "" 2
  88              	.LVL8:
  89              		.thumb
  90              	.LBE4:
  91              		.loc 1 79 0
  92 0008 827F     		ldrb	r2, [r0, #30]	@ zero_extendqisi2
  93 000a 013A     		subs	r2, r2, #1
  94 000c D2B2     		uxtb	r2, r2
  95 000e 8277     		strb	r2, [r0, #30]
  96              	.LVL9:
  97              	.LBB5:
  98              		.loc 1 80 0
  99 0010 0023     		movs	r3, #0
 100              	.LVL10:
 101              	@ 80 "/home/felix/Documents/ChibiOS/os/kernel/src/chdynamic.c" 1
 102 0012 83F31188 		msr     BASEPRI, r3
 103              	@ 0 "" 2
 104              	.LVL11:
 105              		.thumb
 106              	.LBE5:
 107              		.loc 1 85 0
 108 0016 12B9     		cbnz	r2, .L2
 109              		.loc 1 85 0 is_stmt 0 discriminator 1
 110 0018 037F     		ldrb	r3, [r0, #28]	@ zero_extendqisi2
 111              	.LVL12:
 112 001a 0E2B     		cmp	r3, #14
ARM GAS  /tmp/ccyTqvjp.s 			page 3


 113 001c 00D0     		beq	.L7
 114              	.LVL13:
 115              	.L2:
 116 001e 7047     		bx	lr
 117              	.LVL14:
 118              	.L7:
 119              		.loc 1 86 0 is_stmt 1
 120 0020 437F     		ldrb	r3, [r0, #29]	@ zero_extendqisi2
 121 0022 03F00303 		and	r3, r3, #3
 122 0026 012B     		cmp	r3, #1
 123 0028 09D0     		beq	.L4
 124 002a 022B     		cmp	r3, #2
 125 002c F7D1     		bne	.L2
 126              		.loc 1 98 0
 127 002e 4369     		ldr	r3, [r0, #20]
 128 0030 0269     		ldr	r2, [r0, #16]
 129              	.LVL15:
 130              		.loc 1 100 0
 131 0032 406C     		ldr	r0, [r0, #68]
 132              	.LVL16:
 133              		.loc 1 98 0
 134 0034 1A61     		str	r2, [r3, #16]
 135 0036 0A69     		ldr	r2, [r1, #16]
 136 0038 5361     		str	r3, [r2, #20]
 137              		.loc 1 105 0
 138              		.loc 1 100 0
 139 003a FFF7FEBF 		b	chPoolFree
 140              	.LVL17:
 141              	.L4:
 142              		.loc 1 90 0
 143 003e 4369     		ldr	r3, [r0, #20]
 144 0040 0269     		ldr	r2, [r0, #16]
 145              	.LVL18:
 146 0042 1A61     		str	r2, [r3, #16]
 147 0044 0269     		ldr	r2, [r0, #16]
 148 0046 5361     		str	r3, [r2, #20]
 149              		.loc 1 105 0
 150              		.loc 1 92 0
 151 0048 FFF7FEBF 		b	chHeapFree
 152              	.LVL19:
 153              		.cfi_endproc
 154              	.LFE8:
 155              		.size	chThdRelease, .-chThdRelease
 156 004c AFF30080 		.section	.text.chThdCreateFromHeap,"ax",%progbits
 157              		.align	2
 158              		.p2align 4,,15
 159              		.global	chThdCreateFromHeap
 160              		.thumb
 161              		.thumb_func
 162              		.type	chThdCreateFromHeap, %function
 163              	chThdCreateFromHeap:
 164              	.LFB9:
 165              		.loc 1 131 0
 166              		.cfi_startproc
 167              		@ args = 4, pretend = 0, frame = 0
 168              		@ frame_needed = 0, uses_anonymous_args = 0
 169              	.LVL20:
ARM GAS  /tmp/ccyTqvjp.s 			page 4


 170 0000 F0B5     		push	{r4, r5, r6, r7, lr}
 171              	.LCFI0:
 172              		.cfi_def_cfa_offset 20
 173              		.cfi_offset 4, -20
 174              		.cfi_offset 5, -16
 175              		.cfi_offset 6, -12
 176              		.cfi_offset 7, -8
 177              		.cfi_offset 14, -4
 178 0002 83B0     		sub	sp, sp, #12
 179              	.LCFI1:
 180              		.cfi_def_cfa_offset 32
 181              		.loc 1 131 0
 182 0004 1746     		mov	r7, r2
 183 0006 1D46     		mov	r5, r3
 184 0008 0E46     		mov	r6, r1
 185              		.loc 1 135 0
 186 000a FFF7FEFF 		bl	chHeapAlloc
 187              	.LVL21:
 188              		.loc 1 136 0
 189 000e 0446     		mov	r4, r0
 190 0010 90B1     		cbz	r0, .L9
 191              	.LBB6:
 192              		.loc 1 148 0
 193 0012 2023     		movs	r3, #32
 194              	.LVL22:
 195              	@ 148 "/home/felix/Documents/ChibiOS/os/kernel/src/chdynamic.c" 1
 196 0014 83F31188 		msr     BASEPRI, r3
 197              	@ 0 "" 2
 198              	.LVL23:
 199              		.thumb
 200              	.LBE6:
 201              		.loc 1 149 0
 202 0018 089B     		ldr	r3, [sp, #32]
 203              	.LVL24:
 204 001a 3146     		mov	r1, r6
 205 001c 0093     		str	r3, [sp, #0]
 206 001e 3A46     		mov	r2, r7
 207 0020 2B46     		mov	r3, r5
 208 0022 FFF7FEFF 		bl	chThdCreateI
 209              	.LVL25:
 210              		.loc 1 150 0
 211 0026 0123     		movs	r3, #1
 212 0028 4377     		strb	r3, [r0, #29]
 213              		.loc 1 151 0
 214 002a 0021     		movs	r1, #0
 215              		.loc 1 149 0
 216 002c 0446     		mov	r4, r0
 217              	.LVL26:
 218              		.loc 1 151 0
 219 002e FFF7FEFF 		bl	chSchWakeupS
 220              	.LVL27:
 221              	.LBB7:
 222              		.loc 1 152 0
 223 0032 0023     		movs	r3, #0
 224              	.LVL28:
 225              	@ 152 "/home/felix/Documents/ChibiOS/os/kernel/src/chdynamic.c" 1
 226 0034 83F31188 		msr     BASEPRI, r3
ARM GAS  /tmp/ccyTqvjp.s 			page 5


 227              	@ 0 "" 2
 228              	.LVL29:
 229              		.thumb
 230              	.L9:
 231              	.LBE7:
 232              		.loc 1 154 0
 233 0038 2046     		mov	r0, r4
 234 003a 03B0     		add	sp, sp, #12
 235 003c F0BD     		pop	{r4, r5, r6, r7, pc}
 236              		.cfi_endproc
 237              	.LFE9:
 238              		.size	chThdCreateFromHeap, .-chThdCreateFromHeap
 239 003e 00BF     		.section	.text.chThdCreateFromMemoryPool,"ax",%progbits
 240              		.align	2
 241              		.p2align 4,,15
 242              		.global	chThdCreateFromMemoryPool
 243              		.thumb
 244              		.thumb_func
 245              		.type	chThdCreateFromMemoryPool, %function
 246              	chThdCreateFromMemoryPool:
 247              	.LFB10:
 248              		.loc 1 180 0
 249              		.cfi_startproc
 250              		@ args = 0, pretend = 0, frame = 0
 251              		@ frame_needed = 0, uses_anonymous_args = 0
 252              	.LVL30:
 253 0000 2DE9F041 		push	{r4, r5, r6, r7, r8, lr}
 254              	.LCFI2:
 255              		.cfi_def_cfa_offset 24
 256              		.cfi_offset 4, -24
 257              		.cfi_offset 5, -20
 258              		.cfi_offset 6, -16
 259              		.cfi_offset 7, -12
 260              		.cfi_offset 8, -8
 261              		.cfi_offset 14, -4
 262 0004 82B0     		sub	sp, sp, #8
 263              	.LCFI3:
 264              		.cfi_def_cfa_offset 32
 265              		.loc 1 180 0
 266 0006 8846     		mov	r8, r1
 267 0008 1646     		mov	r6, r2
 268 000a 1F46     		mov	r7, r3
 269 000c 0546     		mov	r5, r0
 270              		.loc 1 186 0
 271 000e FFF7FEFF 		bl	chPoolAlloc
 272              	.LVL31:
 273              		.loc 1 187 0
 274 0012 0446     		mov	r4, r0
 275 0014 90B1     		cbz	r0, .L12
 276              	.LBB8:
 277              		.loc 1 199 0
 278 0016 2023     		movs	r3, #32
 279              	.LVL32:
 280              	@ 199 "/home/felix/Documents/ChibiOS/os/kernel/src/chdynamic.c" 1
 281 0018 83F31188 		msr     BASEPRI, r3
 282              	@ 0 "" 2
 283              	.LVL33:
ARM GAS  /tmp/ccyTqvjp.s 			page 6


 284              		.thumb
 285              	.LBE8:
 286              		.loc 1 200 0
 287 001c 6968     		ldr	r1, [r5, #4]
 288 001e 0097     		str	r7, [sp, #0]
 289 0020 4246     		mov	r2, r8
 290 0022 3346     		mov	r3, r6
 291              	.LVL34:
 292 0024 FFF7FEFF 		bl	chThdCreateI
 293              	.LVL35:
 294              		.loc 1 201 0
 295 0028 0223     		movs	r3, #2
 296 002a 4377     		strb	r3, [r0, #29]
 297              		.loc 1 202 0
 298 002c 4564     		str	r5, [r0, #68]
 299              		.loc 1 203 0
 300 002e 0021     		movs	r1, #0
 301              		.loc 1 200 0
 302 0030 0446     		mov	r4, r0
 303              	.LVL36:
 304              		.loc 1 203 0
 305 0032 FFF7FEFF 		bl	chSchWakeupS
 306              	.LVL37:
 307              	.LBB9:
 308              		.loc 1 204 0
 309 0036 0023     		movs	r3, #0
 310              	.LVL38:
 311              	@ 204 "/home/felix/Documents/ChibiOS/os/kernel/src/chdynamic.c" 1
 312 0038 83F31188 		msr     BASEPRI, r3
 313              	@ 0 "" 2
 314              	.LVL39:
 315              		.thumb
 316              	.L12:
 317              	.LBE9:
 318              		.loc 1 206 0
 319 003c 2046     		mov	r0, r4
 320 003e 02B0     		add	sp, sp, #8
 321 0040 BDE8F081 		pop	{r4, r5, r6, r7, r8, pc}
 322              		.cfi_endproc
 323              	.LFE10:
 324              		.size	chThdCreateFromMemoryPool, .-chThdCreateFromMemoryPool
 325 0044 AFF30080 		.text
 325      AFF30080 
 325      AFF30080 
 326              	.Letext0:
 327              		.file 2 "/opt/tools_arm/lib/gcc/arm-none-eabi/4.7.3/include/stddef.h"
 328              		.file 3 "/opt/tools_arm/lib/gcc/arm-none-eabi/4.7.3/../../../../arm-none-eabi/include/stdint.h"
 329              		.file 4 "/home/felix/Documents/ChibiOS/os/ports/GCC/ARMCMx/chtypes.h"
 330              		.file 5 "/home/felix/Documents/ChibiOS/os/kernel/include/chlists.h"
 331              		.file 6 "/home/felix/Documents/ChibiOS/os/kernel/include/chthreads.h"
 332              		.file 7 "/home/felix/Documents/ChibiOS/os/ports/GCC/ARMCMx/chcore_v7m.h"
 333              		.file 8 "/home/felix/Documents/ChibiOS/os/kernel/include/chmtx.h"
 334              		.file 9 "/home/felix/Documents/ChibiOS/os/kernel/include/chmemcore.h"
 335              		.file 10 "/home/felix/Documents/ChibiOS/os/kernel/include/chheap.h"
 336              		.file 11 "/home/felix/Documents/ChibiOS/os/kernel/include/chmempools.h"
 337              		.file 12 "/home/felix/Documents/ChibiOS/os/kernel/include/chschd.h"