ARM GAS  /tmp/ccz3LVpj.s 			page 1


   1              		.syntax unified
   2              		.cpu cortex-m4
   3              		.fpu softvfp
   4              		.eabi_attribute 20, 1
   5              		.eabi_attribute 21, 1
   6              		.eabi_attribute 23, 3
   7              		.eabi_attribute 24, 1
   8              		.eabi_attribute 25, 1
   9              		.eabi_attribute 26, 1
  10              		.eabi_attribute 30, 2
  11              		.eabi_attribute 34, 1
  12              		.eabi_attribute 18, 4
  13              		.thumb
  14              		.file	"chheap.c"
  15              		.text
  16              	.Ltext0:
  17              		.cfi_sections	.debug_frame
  18              		.section	.text._heap_init,"ax",%progbits
  19              		.align	2
  20              		.p2align 4,,15
  21              		.global	_heap_init
  22              		.thumb
  23              		.thumb_func
  24              		.type	_heap_init, %function
  25              	_heap_init:
  26              	.LFB7:
  27              		.file 1 "/home/felix/Documents/ChibiOS/os/kernel/src/chheap.c"
  28              		.loc 1 75 0
  29              		.cfi_startproc
  30              		@ args = 0, pretend = 0, frame = 0
  31              		@ frame_needed = 0, uses_anonymous_args = 0
  32              		@ link register save eliminated.
  33              		.loc 1 76 0
  34 0000 40F20003 		movw	r3, #:lower16:.LANCHOR0
  35 0004 C0F20003 		movt	r3, #:upper16:.LANCHOR0
  36 0008 40F20001 		movw	r1, #:lower16:chCoreAlloc
  37              		.loc 1 77 0
  38 000c 0022     		movs	r2, #0
  39              		.loc 1 76 0
  40 000e C0F20001 		movt	r1, #:upper16:chCoreAlloc
  41              		.loc 1 80 0
  42 0012 03F11000 		add	r0, r3, #16
  43              		.loc 1 76 0
  44 0016 1960     		str	r1, [r3, #0]
  45              		.loc 1 77 0
  46 0018 9A60     		str	r2, [r3, #8]
  47              		.loc 1 78 0
  48 001a DA60     		str	r2, [r3, #12]
  49              		.loc 1 84 0
  50              		.loc 1 80 0
  51 001c FFF7FEBF 		b	chMtxInit
  52              	.LVL0:
  53              		.cfi_endproc
  54              	.LFE7:
  55              		.size	_heap_init, .-_heap_init
  56              		.section	.text.chHeapInit,"ax",%progbits
  57              		.align	2
ARM GAS  /tmp/ccz3LVpj.s 			page 2


  58              		.p2align 4,,15
  59              		.global	chHeapInit
  60              		.thumb
  61              		.thumb_func
  62              		.type	chHeapInit, %function
  63              	chHeapInit:
  64              	.LFB8:
  65              		.loc 1 99 0
  66              		.cfi_startproc
  67              		@ args = 0, pretend = 0, frame = 0
  68              		@ frame_needed = 0, uses_anonymous_args = 0
  69              		@ link register save eliminated.
  70              	.LVL1:
  71              		.loc 1 104 0
  72 0000 0023     		movs	r3, #0
  73 0002 0360     		str	r3, [r0, #0]
  74              	.LVL2:
  75              		.loc 1 105 0
  76 0004 8160     		str	r1, [r0, #8]
  77              		.loc 1 106 0
  78 0006 C360     		str	r3, [r0, #12]
  79              		.loc 1 108 0
  80 0008 083A     		subs	r2, r2, #8
  81              	.LVL3:
  82              		.loc 1 110 0
  83 000a 1030     		adds	r0, r0, #16
  84              	.LVL4:
  85              		.loc 1 107 0
  86 000c 0B60     		str	r3, [r1, #0]
  87              		.loc 1 108 0
  88 000e 4A60     		str	r2, [r1, #4]
  89              		.loc 1 114 0
  90              		.loc 1 110 0
  91 0010 FFF7FEBF 		b	chMtxInit
  92              	.LVL5:
  93              		.cfi_endproc
  94              	.LFE8:
  95              		.size	chHeapInit, .-chHeapInit
  96 0014 AFF30080 		.section	.text.chHeapAlloc,"ax",%progbits
  96      AFF30080 
  96      AFF30080 
  97              		.align	2
  98              		.p2align 4,,15
  99              		.global	chHeapAlloc
 100              		.thumb
 101              		.thumb_func
 102              		.type	chHeapAlloc, %function
 103              	chHeapAlloc:
 104              	.LFB9:
 105              		.loc 1 132 0
 106              		.cfi_startproc
 107              		@ args = 0, pretend = 0, frame = 0
 108              		@ frame_needed = 0, uses_anonymous_args = 0
 109              	.LVL6:
 110 0000 F8B5     		push	{r3, r4, r5, r6, r7, lr}
 111              	.LCFI0:
 112              		.cfi_def_cfa_offset 24
ARM GAS  /tmp/ccz3LVpj.s 			page 3


 113              		.cfi_offset 3, -24
 114              		.cfi_offset 4, -20
 115              		.cfi_offset 5, -16
 116              		.cfi_offset 6, -12
 117              		.cfi_offset 7, -8
 118              		.cfi_offset 14, -4
 119              		.loc 1 136 0
 120 0002 204E     		ldr	r6, .L20
 121 0004 0028     		cmp	r0, #0
 122 0006 18BF     		it	ne
 123 0008 0646     		movne	r6, r0
 124              	.LVL7:
 125              		.loc 1 138 0
 126 000a 0731     		adds	r1, r1, #7
 127              	.LVL8:
 128              		.loc 1 140 0
 129 000c 06F11000 		add	r0, r6, #16
 130              		.loc 1 138 0
 131 0010 21F00705 		bic	r5, r1, #7
 132              	.LVL9:
 133              		.loc 1 139 0
 134 0014 06F10804 		add	r4, r6, #8
 135              	.LVL10:
 136              		.loc 1 140 0
 137 0018 FFF7FEFF 		bl	chMtxLock
 138              	.LVL11:
 139              		.loc 1 142 0
 140 001c 00E0     		b	.L5
 141              	.LVL12:
 142              	.L13:
 143              		.loc 1 144 0
 144 001e 1C46     		mov	r4, r3
 145              	.LVL13:
 146              	.L5:
 147              		.loc 1 142 0 discriminator 1
 148 0020 2368     		ldr	r3, [r4, #0]
 149              	.LVL14:
 150 0022 FBB1     		cbz	r3, .L18
 151              		.loc 1 144 0
 152 0024 5A68     		ldr	r2, [r3, #4]
 153 0026 9542     		cmp	r5, r2
 154 0028 F9D8     		bhi	.L13
 155              		.loc 1 145 0
 156 002a 05F10801 		add	r1, r5, #8
 157 002e 9142     		cmp	r1, r2
 158 0030 15D8     		bhi	.L19
 159              		.loc 1 155 0
 160 0032 4FF6F870 		movw	r0, #65528
 161 0036 CFF6FF70 		movt	r0, 65535
 162              		.loc 1 153 0
 163 003a 03EB010E 		add	lr, r3, r1
 164              	.LVL15:
 165              		.loc 1 155 0
 166 003e 401B     		subs	r0, r0, r5
 167 0040 8218     		adds	r2, r0, r2
 168 0042 CEF80420 		str	r2, [lr, #4]
 169              		.loc 1 154 0
ARM GAS  /tmp/ccz3LVpj.s 			page 4


 170 0046 1A68     		ldr	r2, [r3, #0]
 171              		.loc 1 157 0
 172 0048 5D60     		str	r5, [r3, #4]
 173              		.loc 1 154 0
 174 004a 5A50     		str	r2, [r3, r1]
 175              		.loc 1 156 0
 176 004c C4F800E0 		str	lr, [r4, #0]
 177              	.LVL16:
 178              	.L7:
 179              		.loc 1 159 0
 180 0050 1C46     		mov	r4, r3
 181              	.LVL17:
 182 0052 44F8086B 		str	r6, [r4], #8
 183              		.loc 1 161 0
 184 0056 FFF7FEFF 		bl	chMtxUnlock
 185              	.LVL18:
 186              	.L8:
 187              		.loc 1 181 0
 188 005a 2046     		mov	r0, r4
 189 005c F8BD     		pop	{r3, r4, r5, r6, r7, pc}
 190              	.LVL19:
 191              	.L19:
 192              		.loc 1 149 0
 193 005e 1A68     		ldr	r2, [r3, #0]
 194 0060 2260     		str	r2, [r4, #0]
 195 0062 F5E7     		b	.L7
 196              	.L18:
 197              		.loc 1 167 0
 198 0064 FFF7FEFF 		bl	chMtxUnlock
 199              	.LVL20:
 200              		.loc 1 171 0
 201 0068 3368     		ldr	r3, [r6, #0]
 202 006a 4BB1     		cbz	r3, .L11
 203              		.loc 1 172 0
 204 006c 05F10800 		add	r0, r5, #8
 205 0070 9847     		blx	r3
 206              	.LVL21:
 207              		.loc 1 173 0
 208 0072 28B1     		cbz	r0, .L11
 209              		.loc 1 177 0
 210 0074 00F10804 		add	r4, r0, #8
 211              	.LVL22:
 212              		.loc 1 174 0
 213 0078 0660     		str	r6, [r0, #0]
 214              		.loc 1 175 0
 215 007a 4560     		str	r5, [r0, #4]
 216              	.LVL23:
 217              		.loc 1 181 0
 218 007c 2046     		mov	r0, r4
 219 007e F8BD     		pop	{r3, r4, r5, r6, r7, pc}
 220              	.LVL24:
 221              	.L11:
 222              		.loc 1 180 0
 223 0080 0024     		movs	r4, #0
 224              	.LVL25:
 225 0082 EAE7     		b	.L8
 226              	.L21:
ARM GAS  /tmp/ccz3LVpj.s 			page 5


 227              		.align	2
 228              	.L20:
 229 0084 00000000 		.word	.LANCHOR0
 230              		.cfi_endproc
 231              	.LFE9:
 232              		.size	chHeapAlloc, .-chHeapAlloc
 233 0088 AFF30080 		.section	.text.chHeapFree,"ax",%progbits
 233      AFF30080 
 234              		.align	2
 235              		.p2align 4,,15
 236              		.global	chHeapFree
 237              		.thumb
 238              		.thumb_func
 239              		.type	chHeapFree, %function
 240              	chHeapFree:
 241              	.LFB10:
 242              		.loc 1 194 0
 243              		.cfi_startproc
 244              		@ args = 0, pretend = 0, frame = 0
 245              		@ frame_needed = 0, uses_anonymous_args = 0
 246              	.LVL26:
 247 0000 70B5     		push	{r4, r5, r6, lr}
 248              	.LCFI1:
 249              		.cfi_def_cfa_offset 16
 250              		.cfi_offset 4, -16
 251              		.cfi_offset 5, -12
 252              		.cfi_offset 6, -8
 253              		.cfi_offset 14, -4
 254              		.loc 1 194 0
 255 0002 0646     		mov	r6, r0
 256              		.loc 1 200 0
 257 0004 A0F10804 		sub	r4, r0, #8
 258              	.LVL27:
 259              		.loc 1 201 0
 260 0008 50F8080C 		ldr	r0, [r0, #-8]
 261              	.LVL28:
 262              		.loc 1 202 0
 263 000c 00F10805 		add	r5, r0, #8
 264              	.LVL29:
 265              		.loc 1 203 0
 266 0010 1030     		adds	r0, r0, #16
 267              	.LVL30:
 268 0012 FFF7FEFF 		bl	chMtxLock
 269              	.LVL31:
 270              		.loc 1 202 0
 271 0016 2B46     		mov	r3, r5
 272              	.LVL32:
 273              	.L29:
 274              		.loc 1 210 0
 275 0018 AB42     		cmp	r3, r5
 276              		.loc 1 211 0
 277 001a 1A68     		ldr	r2, [r3, #0]
 278              		.loc 1 210 0
 279 001c 01D0     		beq	.L23
 280              		.loc 1 210 0 is_stmt 0 discriminator 2
 281 001e A342     		cmp	r3, r4
 282 0020 02D2     		bcs	.L26
ARM GAS  /tmp/ccz3LVpj.s 			page 6


 283              	.L23:
 284              		.loc 1 210 0 discriminator 1
 285 0022 1AB1     		cbz	r2, .L25
 286              		.loc 1 211 0 is_stmt 1
 287 0024 9442     		cmp	r4, r2
 288 0026 01D3     		bcc	.L25
 289              	.L26:
 290              	.LVL33:
 291              		.loc 1 228 0
 292 0028 1346     		mov	r3, r2
 293              		.loc 1 229 0
 294 002a F5E7     		b	.L29
 295              	.LVL34:
 296              	.L25:
 297              		.loc 1 216 0
 298 002c 56F8041C 		ldr	r1, [r6, #-4]
 299              		.loc 1 213 0
 300 0030 46F8082C 		str	r2, [r6, #-8]
 301              		.loc 1 214 0
 302 0034 1C60     		str	r4, [r3, #0]
 303              		.loc 1 216 0
 304 0036 01F10802 		add	r2, r1, #8
 305 003a 56F8085C 		ldr	r5, [r6, #-8]
 306              	.LVL35:
 307 003e A018     		adds	r0, r4, r2
 308 0040 A842     		cmp	r0, r5
 309 0042 09D0     		beq	.L33
 310              		.loc 1 221 0
 311 0044 5A68     		ldr	r2, [r3, #4]
 312 0046 02F10801 		add	r1, r2, #8
 313 004a 5918     		adds	r1, r3, r1
 314 004c 8C42     		cmp	r4, r1
 315 004e 11D0     		beq	.L34
 316              	.L28:
 317              		.loc 1 233 0
 318 0050 BDE87040 		pop	{r4, r5, r6, lr}
 319              		.loc 1 231 0
 320 0054 FFF7FEBF 		b	chMtxUnlock
 321              	.LVL36:
 322              	.L33:
 323              		.loc 1 218 0
 324 0058 4068     		ldr	r0, [r0, #4]
 325              		.loc 1 219 0
 326 005a A258     		ldr	r2, [r4, r2]
 327              		.loc 1 218 0
 328 005c 0918     		adds	r1, r1, r0
 329 005e 0831     		adds	r1, r1, #8
 330 0060 46F8041C 		str	r1, [r6, #-4]
 331              		.loc 1 219 0
 332 0064 46F8082C 		str	r2, [r6, #-8]
 333              		.loc 1 221 0
 334 0068 5A68     		ldr	r2, [r3, #4]
 335 006a 02F10801 		add	r1, r2, #8
 336 006e 5918     		adds	r1, r3, r1
 337 0070 8C42     		cmp	r4, r1
 338 0072 EDD1     		bne	.L28
 339              	.L34:
ARM GAS  /tmp/ccz3LVpj.s 			page 7


 340              		.loc 1 223 0
 341 0074 56F8040C 		ldr	r0, [r6, #-4]
 342              		.loc 1 224 0
 343 0078 56F8081C 		ldr	r1, [r6, #-8]
 344              		.loc 1 223 0
 345 007c 1218     		adds	r2, r2, r0
 346 007e 0832     		adds	r2, r2, #8
 347              		.loc 1 224 0
 348 0080 83E80600 		stmia	r3, {r1, r2}
 349 0084 E4E7     		b	.L28
 350              		.cfi_endproc
 351              	.LFE10:
 352              		.size	chHeapFree, .-chHeapFree
 353 0086 00BFAFF3 		.section	.text.chHeapStatus,"ax",%progbits
 353      0080AFF3 
 353      0080
 354              		.align	2
 355              		.p2align 4,,15
 356              		.global	chHeapStatus
 357              		.thumb
 358              		.thumb_func
 359              		.type	chHeapStatus, %function
 360              	chHeapStatus:
 361              	.LFB11:
 362              		.loc 1 250 0
 363              		.cfi_startproc
 364              		@ args = 0, pretend = 0, frame = 0
 365              		@ frame_needed = 0, uses_anonymous_args = 0
 366              	.LVL37:
 367 0000 38B5     		push	{r3, r4, r5, lr}
 368              	.LCFI2:
 369              		.cfi_def_cfa_offset 16
 370              		.cfi_offset 3, -16
 371              		.cfi_offset 4, -12
 372              		.cfi_offset 5, -8
 373              		.cfi_offset 14, -4
 374              		.loc 1 255 0
 375 0002 0E4C     		ldr	r4, .L46
 376 0004 0028     		cmp	r0, #0
 377 0006 18BF     		it	ne
 378 0008 0446     		movne	r4, r0
 379              	.LVL38:
 380              		.loc 1 257 0
 381 000a 04F11000 		add	r0, r4, #16
 382              		.loc 1 250 0
 383 000e 0D46     		mov	r5, r1
 384              		.loc 1 257 0
 385 0010 FFF7FEFF 		bl	chMtxLock
 386              	.LVL39:
 387              		.loc 1 260 0
 388 0014 A368     		ldr	r3, [r4, #8]
 389 0016 6BB1     		cbz	r3, .L41
 390 0018 0022     		movs	r2, #0
 391 001a 1446     		mov	r4, r2
 392              	.LVL40:
 393              	.L38:
 394              		.loc 1 261 0 discriminator 2
ARM GAS  /tmp/ccz3LVpj.s 			page 8


 395 001c 5868     		ldr	r0, [r3, #4]
 396              		.loc 1 260 0 discriminator 2
 397 001e 1B68     		ldr	r3, [r3, #0]
 398 0020 0134     		adds	r4, r4, #1
 399              		.loc 1 261 0 discriminator 2
 400 0022 1218     		adds	r2, r2, r0
 401              	.LVL41:
 402              		.loc 1 260 0 discriminator 2
 403 0024 002B     		cmp	r3, #0
 404 0026 F9D1     		bne	.L38
 405              	.LVL42:
 406              	.L37:
 407              		.loc 1 262 0
 408 0028 05B1     		cbz	r5, .L39
 409              		.loc 1 263 0
 410 002a 2A60     		str	r2, [r5, #0]
 411              	.L39:
 412              		.loc 1 265 0
 413 002c FFF7FEFF 		bl	chMtxUnlock
 414              	.LVL43:
 415              		.loc 1 267 0
 416 0030 2046     		mov	r0, r4
 417 0032 38BD     		pop	{r3, r4, r5, pc}
 418              	.LVL44:
 419              	.L41:
 420              		.loc 1 259 0
 421 0034 1A46     		mov	r2, r3
 422              		.loc 1 260 0
 423 0036 1C46     		mov	r4, r3
 424              	.LVL45:
 425 0038 F6E7     		b	.L37
 426              	.L47:
 427 003a 00BF     		.align	2
 428              	.L46:
 429 003c 00000000 		.word	.LANCHOR0
 430              		.cfi_endproc
 431              	.LFE11:
 432              		.size	chHeapStatus, .-chHeapStatus
 433              		.section	.bss.default_heap,"aw",%nobits
 434              		.align	3
 435              		.set	.LANCHOR0,. + 0
 436              		.type	default_heap, %object
 437              		.size	default_heap, 32
 438              	default_heap:
 439 0000 00000000 		.space	32
 439      00000000 
 439      00000000 
 439      00000000 
 439      00000000 
 440              		.text
 441              	.Letext0:
 442              		.file 2 "/opt/tools_arm/lib/gcc/arm-none-eabi/4.7.3/include/stddef.h"
 443              		.file 3 "/opt/tools_arm/lib/gcc/arm-none-eabi/4.7.3/../../../../arm-none-eabi/include/stdint.h"
 444              		.file 4 "/home/felix/Documents/ChibiOS/os/ports/GCC/ARMCMx/chtypes.h"
 445              		.file 5 "/home/felix/Documents/ChibiOS/os/kernel/include/chlists.h"
 446              		.file 6 "/home/felix/Documents/ChibiOS/os/kernel/include/chthreads.h"
 447              		.file 7 "/home/felix/Documents/ChibiOS/os/ports/GCC/ARMCMx/chcore_v7m.h"
ARM GAS  /tmp/ccz3LVpj.s 			page 9


 448              		.file 8 "/home/felix/Documents/ChibiOS/os/kernel/include/chmtx.h"
 449              		.file 9 "/home/felix/Documents/ChibiOS/os/kernel/include/chmemcore.h"
 450              		.file 10 "/home/felix/Documents/ChibiOS/os/kernel/include/chheap.h"