ARM GAS  /tmp/ccvrzC31.s 			page 1


   1              		.syntax unified
   2              		.cpu cortex-m4
   3              		.fpu softvfp
   4              		.eabi_attribute 20, 1
   5              		.eabi_attribute 21, 1
   6              		.eabi_attribute 23, 3
   7              		.eabi_attribute 24, 1
   8              		.eabi_attribute 25, 1
   9              		.eabi_attribute 26, 1
  10              		.eabi_attribute 30, 2
  11              		.eabi_attribute 34, 1
  12              		.eabi_attribute 18, 4
  13              		.thumb
  14              		.file	"chmboxes.c"
  15              		.text
  16              	.Ltext0:
  17              		.cfi_sections	.debug_frame
  18              		.section	.text.chMBInit,"ax",%progbits
  19              		.align	2
  20              		.p2align 4,,15
  21              		.global	chMBInit
  22              		.thumb
  23              		.thumb_func
  24              		.type	chMBInit, %function
  25              	chMBInit:
  26              	.LFB7:
  27              		.file 1 "/home/felix/Documents/ChibiOS/os/kernel/src/chmboxes.c"
  28              		.loc 1 72 0
  29              		.cfi_startproc
  30              		@ args = 0, pretend = 0, frame = 0
  31              		@ frame_needed = 0, uses_anonymous_args = 0
  32              	.LVL0:
  33 0000 10B5     		push	{r4, lr}
  34              	.LCFI0:
  35              		.cfi_def_cfa_offset 8
  36              		.cfi_offset 4, -8
  37              		.cfi_offset 14, -4
  38              		.loc 1 72 0
  39 0002 0B46     		mov	r3, r1
  40              		.loc 1 77 0
  41 0004 01EB8201 		add	r1, r1, r2, lsl #2
  42              	.LVL1:
  43              		.loc 1 72 0
  44 0008 0446     		mov	r4, r0
  45              		.loc 1 76 0
  46 000a C360     		str	r3, [r0, #12]
  47 000c 8360     		str	r3, [r0, #8]
  48 000e 0360     		str	r3, [r0, #0]
  49              		.loc 1 77 0
  50 0010 4160     		str	r1, [r0, #4]
  51              		.loc 1 78 0
  52 0012 1146     		mov	r1, r2
  53 0014 1C30     		adds	r0, r0, #28
  54              	.LVL2:
  55 0016 FFF7FEFF 		bl	chSemInit
  56              	.LVL3:
  57              		.loc 1 79 0
ARM GAS  /tmp/ccvrzC31.s 			page 2


  58 001a 04F11000 		add	r0, r4, #16
  59 001e 0021     		movs	r1, #0
  60              		.loc 1 80 0
  61 0020 BDE81040 		pop	{r4, lr}
  62              		.loc 1 79 0
  63 0024 FFF7FEBF 		b	chSemInit
  64              	.LVL4:
  65              		.cfi_endproc
  66              	.LFE7:
  67              		.size	chMBInit, .-chMBInit
  68 0028 AFF30080 		.section	.text.chMBReset,"ax",%progbits
  68      AFF30080 
  69              		.align	2
  70              		.p2align 4,,15
  71              		.global	chMBReset
  72              		.thumb
  73              		.thumb_func
  74              		.type	chMBReset, %function
  75              	chMBReset:
  76              	.LFB8:
  77              		.loc 1 91 0
  78              		.cfi_startproc
  79              		@ args = 0, pretend = 0, frame = 0
  80              		@ frame_needed = 0, uses_anonymous_args = 0
  81              	.LVL5:
  82 0000 10B5     		push	{r4, lr}
  83              	.LCFI1:
  84              		.cfi_def_cfa_offset 8
  85              		.cfi_offset 4, -8
  86              		.cfi_offset 14, -4
  87              	.LBB2:
  88              		.loc 1 95 0
  89 0002 2023     		movs	r3, #32
  90              	.LVL6:
  91              	.LBE2:
  92              		.loc 1 91 0
  93 0004 0446     		mov	r4, r0
  94              	.LBB3:
  95              		.loc 1 95 0
  96              	@ 95 "/home/felix/Documents/ChibiOS/os/kernel/src/chmboxes.c" 1
  97 0006 83F31188 		msr     BASEPRI, r3
  98              	@ 0 "" 2
  99              	.LVL7:
 100              		.thumb
 101              	.LBE3:
 102              		.loc 1 96 0
 103 000a 0368     		ldr	r3, [r0, #0]
 104              	.LVL8:
 105              		.loc 1 97 0
 106 000c 4168     		ldr	r1, [r0, #4]
 107              		.loc 1 96 0
 108 000e C360     		str	r3, [r0, #12]
 109              		.loc 1 97 0
 110 0010 C91A     		subs	r1, r1, r3
 111              		.loc 1 96 0
 112 0012 8360     		str	r3, [r0, #8]
 113              		.loc 1 97 0
ARM GAS  /tmp/ccvrzC31.s 			page 3


 114 0014 8910     		asrs	r1, r1, #2
 115 0016 1C30     		adds	r0, r0, #28
 116              	.LVL9:
 117 0018 FFF7FEFF 		bl	chSemResetI
 118              	.LVL10:
 119              		.loc 1 98 0
 120 001c 04F11000 		add	r0, r4, #16
 121 0020 0021     		movs	r1, #0
 122 0022 FFF7FEFF 		bl	chSemResetI
 123              	.LVL11:
 124              		.loc 1 99 0
 125 0026 FFF7FEFF 		bl	chSchRescheduleS
 126              	.LVL12:
 127              	.LBB4:
 128              		.loc 1 100 0
 129 002a 0023     		movs	r3, #0
 130              	.LVL13:
 131              	@ 100 "/home/felix/Documents/ChibiOS/os/kernel/src/chmboxes.c" 1
 132 002c 83F31188 		msr     BASEPRI, r3
 133              	@ 0 "" 2
 134              	.LVL14:
 135              		.thumb
 136 0030 10BD     		pop	{r4, pc}
 137              	.LBE4:
 138              		.cfi_endproc
 139              	.LFE8:
 140              		.size	chMBReset, .-chMBReset
 141 0032 00BFAFF3 		.section	.text.chMBPostS,"ax",%progbits
 141      0080AFF3 
 141      0080AFF3 
 141      0080
 142              		.align	2
 143              		.p2align 4,,15
 144              		.global	chMBPostS
 145              		.thumb
 146              		.thumb_func
 147              		.type	chMBPostS, %function
 148              	chMBPostS:
 149              	.LFB10:
 150              		.loc 1 150 0
 151              		.cfi_startproc
 152              		@ args = 0, pretend = 0, frame = 0
 153              		@ frame_needed = 0, uses_anonymous_args = 0
 154              	.LVL15:
 155 0000 70B5     		push	{r4, r5, r6, lr}
 156              	.LCFI2:
 157              		.cfi_def_cfa_offset 16
 158              		.cfi_offset 4, -16
 159              		.cfi_offset 5, -12
 160              		.cfi_offset 6, -8
 161              		.cfi_offset 14, -4
 162              		.loc 1 150 0
 163 0002 0446     		mov	r4, r0
 164 0004 0E46     		mov	r6, r1
 165              		.loc 1 156 0
 166 0006 1C30     		adds	r0, r0, #28
 167              	.LVL16:
ARM GAS  /tmp/ccvrzC31.s 			page 4


 168 0008 1146     		mov	r1, r2
 169              	.LVL17:
 170 000a FFF7FEFF 		bl	chSemWaitTimeoutS
 171              	.LVL18:
 172              		.loc 1 157 0
 173 000e 0546     		mov	r5, r0
 174 0010 78B9     		cbnz	r0, .L4
 175              		.loc 1 158 0
 176 0012 A368     		ldr	r3, [r4, #8]
 177              		.loc 1 159 0
 178 0014 6268     		ldr	r2, [r4, #4]
 179              		.loc 1 158 0
 180 0016 43F8046B 		str	r6, [r3], #4
 181              		.loc 1 159 0
 182 001a 9342     		cmp	r3, r2
 183              		.loc 1 158 0
 184 001c A360     		str	r3, [r4, #8]
 185              		.loc 1 160 0
 186 001e 28BF     		it	cs
 187 0020 2368     		ldrcs	r3, [r4, #0]
 188              		.loc 1 161 0
 189 0022 04F11000 		add	r0, r4, #16
 190              	.LVL19:
 191              		.loc 1 160 0
 192 0026 28BF     		it	cs
 193 0028 A360     		strcs	r3, [r4, #8]
 194              		.loc 1 161 0
 195 002a FFF7FEFF 		bl	chSemSignalI
 196              	.LVL20:
 197              		.loc 1 162 0
 198 002e FFF7FEFF 		bl	chSchRescheduleS
 199              	.LVL21:
 200              	.L4:
 201              		.loc 1 165 0
 202 0032 2846     		mov	r0, r5
 203 0034 70BD     		pop	{r4, r5, r6, pc}
 204              		.cfi_endproc
 205              	.LFE10:
 206              		.size	chMBPostS, .-chMBPostS
 207 0036 00BFAFF3 		.section	.text.chMBPost,"ax",%progbits
 207      0080AFF3 
 207      0080
 208              		.align	2
 209              		.p2align 4,,15
 210              		.global	chMBPost
 211              		.thumb
 212              		.thumb_func
 213              		.type	chMBPost, %function
 214              	chMBPost:
 215              	.LFB9:
 216              		.loc 1 122 0
 217              		.cfi_startproc
 218              		@ args = 0, pretend = 0, frame = 0
 219              		@ frame_needed = 0, uses_anonymous_args = 0
 220              	.LVL22:
 221 0000 08B5     		push	{r3, lr}
 222              	.LCFI3:
ARM GAS  /tmp/ccvrzC31.s 			page 5


 223              		.cfi_def_cfa_offset 8
 224              		.cfi_offset 3, -8
 225              		.cfi_offset 14, -4
 226              	.LBB5:
 227              		.loc 1 125 0
 228 0002 2023     		movs	r3, #32
 229              	.LVL23:
 230              	@ 125 "/home/felix/Documents/ChibiOS/os/kernel/src/chmboxes.c" 1
 231 0004 83F31188 		msr     BASEPRI, r3
 232              	@ 0 "" 2
 233              	.LVL24:
 234              		.thumb
 235              	.LBE5:
 236              		.loc 1 126 0
 237 0008 FFF7FEFF 		bl	chMBPostS
 238              	.LVL25:
 239              	.LBB6:
 240              		.loc 1 127 0
 241 000c 0023     		movs	r3, #0
 242              	.LVL26:
 243              	@ 127 "/home/felix/Documents/ChibiOS/os/kernel/src/chmboxes.c" 1
 244 000e 83F31188 		msr     BASEPRI, r3
 245              	@ 0 "" 2
 246              	.LVL27:
 247              		.thumb
 248              	.LBE6:
 249              		.loc 1 129 0
 250 0012 08BD     		pop	{r3, pc}
 251              		.cfi_endproc
 252              	.LFE9:
 253              		.size	chMBPost, .-chMBPost
 254 0014 AFF30080 		.section	.text.chMBPostI,"ax",%progbits
 254      AFF30080 
 254      AFF30080 
 255              		.align	2
 256              		.p2align 4,,15
 257              		.global	chMBPostI
 258              		.thumb
 259              		.thumb_func
 260              		.type	chMBPostI, %function
 261              	chMBPostI:
 262              	.LFB11:
 263              		.loc 1 181 0
 264              		.cfi_startproc
 265              		@ args = 0, pretend = 0, frame = 0
 266              		@ frame_needed = 0, uses_anonymous_args = 0
 267              	.LVL28:
 268              		.loc 1 186 0
 269 0000 426A     		ldr	r2, [r0, #36]
 270 0002 002A     		cmp	r2, #0
 271              		.loc 1 181 0
 272 0004 10B5     		push	{r4, lr}
 273              	.LCFI4:
 274              		.cfi_def_cfa_offset 8
 275              		.cfi_offset 4, -8
 276              		.cfi_offset 14, -4
 277              		.loc 1 186 0
ARM GAS  /tmp/ccvrzC31.s 			page 6


 278 0006 0FDD     		ble	.L11
 279              		.loc 1 189 0
 280 0008 8368     		ldr	r3, [r0, #8]
 281              		.loc 1 190 0
 282 000a 4468     		ldr	r4, [r0, #4]
 283              		.loc 1 188 0
 284 000c 013A     		subs	r2, r2, #1
 285 000e 4262     		str	r2, [r0, #36]
 286              		.loc 1 189 0
 287 0010 43F8041B 		str	r1, [r3], #4
 288              		.loc 1 190 0
 289 0014 A342     		cmp	r3, r4
 290              		.loc 1 189 0
 291 0016 8360     		str	r3, [r0, #8]
 292              		.loc 1 191 0
 293 0018 24BF     		itt	cs
 294 001a 0368     		ldrcs	r3, [r0, #0]
 295 001c 8360     		strcs	r3, [r0, #8]
 296              		.loc 1 192 0
 297 001e 1030     		adds	r0, r0, #16
 298              	.LVL29:
 299 0020 FFF7FEFF 		bl	chSemSignalI
 300              	.LVL30:
 301              		.loc 1 193 0
 302 0024 0020     		movs	r0, #0
 303 0026 10BD     		pop	{r4, pc}
 304              	.LVL31:
 305              	.L11:
 306              		.loc 1 187 0
 307 0028 4FF0FF30 		mov	r0, #-1
 308              	.LVL32:
 309              		.loc 1 194 0
 310 002c 10BD     		pop	{r4, pc}
 311              		.cfi_endproc
 312              	.LFE11:
 313              		.size	chMBPostI, .-chMBPostI
 314 002e 00BF     		.section	.text.chMBPostAheadS,"ax",%progbits
 315              		.align	2
 316              		.p2align 4,,15
 317              		.global	chMBPostAheadS
 318              		.thumb
 319              		.thumb_func
 320              		.type	chMBPostAheadS, %function
 321              	chMBPostAheadS:
 322              	.LFB13:
 323              		.loc 1 243 0
 324              		.cfi_startproc
 325              		@ args = 0, pretend = 0, frame = 0
 326              		@ frame_needed = 0, uses_anonymous_args = 0
 327              	.LVL33:
 328 0000 70B5     		push	{r4, r5, r6, lr}
 329              	.LCFI5:
 330              		.cfi_def_cfa_offset 16
 331              		.cfi_offset 4, -16
 332              		.cfi_offset 5, -12
 333              		.cfi_offset 6, -8
 334              		.cfi_offset 14, -4
ARM GAS  /tmp/ccvrzC31.s 			page 7


 335              		.loc 1 243 0
 336 0002 0446     		mov	r4, r0
 337 0004 0E46     		mov	r6, r1
 338              		.loc 1 249 0
 339 0006 1C30     		adds	r0, r0, #28
 340              	.LVL34:
 341 0008 1146     		mov	r1, r2
 342              	.LVL35:
 343 000a FFF7FEFF 		bl	chSemWaitTimeoutS
 344              	.LVL36:
 345              		.loc 1 250 0
 346 000e 0546     		mov	r5, r0
 347 0010 78B9     		cbnz	r0, .L13
 348              		.loc 1 251 0
 349 0012 E368     		ldr	r3, [r4, #12]
 350 0014 2268     		ldr	r2, [r4, #0]
 351 0016 043B     		subs	r3, r3, #4
 352 0018 9342     		cmp	r3, r2
 353 001a E360     		str	r3, [r4, #12]
 354              		.loc 1 252 0
 355 001c 3EBF     		ittt	cc
 356 001e 6368     		ldrcc	r3, [r4, #4]
 357 0020 043B     		subcc	r3, r3, #4
 358 0022 E360     		strcc	r3, [r4, #12]
 359              		.loc 1 254 0
 360 0024 04F11000 		add	r0, r4, #16
 361              	.LVL37:
 362              		.loc 1 253 0
 363 0028 1E60     		str	r6, [r3, #0]
 364              		.loc 1 254 0
 365 002a FFF7FEFF 		bl	chSemSignalI
 366              	.LVL38:
 367              		.loc 1 255 0
 368 002e FFF7FEFF 		bl	chSchRescheduleS
 369              	.LVL39:
 370              	.L13:
 371              		.loc 1 258 0
 372 0032 2846     		mov	r0, r5
 373 0034 70BD     		pop	{r4, r5, r6, pc}
 374              		.cfi_endproc
 375              	.LFE13:
 376              		.size	chMBPostAheadS, .-chMBPostAheadS
 377 0036 00BFAFF3 		.section	.text.chMBPostAhead,"ax",%progbits
 377      0080AFF3 
 377      0080
 378              		.align	2
 379              		.p2align 4,,15
 380              		.global	chMBPostAhead
 381              		.thumb
 382              		.thumb_func
 383              		.type	chMBPostAhead, %function
 384              	chMBPostAhead:
 385              	.LFB12:
 386              		.loc 1 215 0
 387              		.cfi_startproc
 388              		@ args = 0, pretend = 0, frame = 0
 389              		@ frame_needed = 0, uses_anonymous_args = 0
ARM GAS  /tmp/ccvrzC31.s 			page 8


 390              	.LVL40:
 391 0000 08B5     		push	{r3, lr}
 392              	.LCFI6:
 393              		.cfi_def_cfa_offset 8
 394              		.cfi_offset 3, -8
 395              		.cfi_offset 14, -4
 396              	.LBB7:
 397              		.loc 1 218 0
 398 0002 2023     		movs	r3, #32
 399              	.LVL41:
 400              	@ 218 "/home/felix/Documents/ChibiOS/os/kernel/src/chmboxes.c" 1
 401 0004 83F31188 		msr     BASEPRI, r3
 402              	@ 0 "" 2
 403              	.LVL42:
 404              		.thumb
 405              	.LBE7:
 406              		.loc 1 219 0
 407 0008 FFF7FEFF 		bl	chMBPostAheadS
 408              	.LVL43:
 409              	.LBB8:
 410              		.loc 1 220 0
 411 000c 0023     		movs	r3, #0
 412              	.LVL44:
 413              	@ 220 "/home/felix/Documents/ChibiOS/os/kernel/src/chmboxes.c" 1
 414 000e 83F31188 		msr     BASEPRI, r3
 415              	@ 0 "" 2
 416              	.LVL45:
 417              		.thumb
 418              	.LBE8:
 419              		.loc 1 222 0
 420 0012 08BD     		pop	{r3, pc}
 421              		.cfi_endproc
 422              	.LFE12:
 423              		.size	chMBPostAhead, .-chMBPostAhead
 424 0014 AFF30080 		.section	.text.chMBPostAheadI,"ax",%progbits
 424      AFF30080 
 424      AFF30080 
 425              		.align	2
 426              		.p2align 4,,15
 427              		.global	chMBPostAheadI
 428              		.thumb
 429              		.thumb_func
 430              		.type	chMBPostAheadI, %function
 431              	chMBPostAheadI:
 432              	.LFB14:
 433              		.loc 1 274 0
 434              		.cfi_startproc
 435              		@ args = 0, pretend = 0, frame = 0
 436              		@ frame_needed = 0, uses_anonymous_args = 0
 437              	.LVL46:
 438              		.loc 1 279 0
 439 0000 426A     		ldr	r2, [r0, #36]
 440 0002 002A     		cmp	r2, #0
 441              		.loc 1 274 0
 442 0004 10B5     		push	{r4, lr}
 443              	.LCFI7:
 444              		.cfi_def_cfa_offset 8
ARM GAS  /tmp/ccvrzC31.s 			page 9


 445              		.cfi_offset 4, -8
 446              		.cfi_offset 14, -4
 447              		.loc 1 279 0
 448 0006 12DD     		ble	.L19
 449              		.loc 1 282 0
 450 0008 C368     		ldr	r3, [r0, #12]
 451 000a 0468     		ldr	r4, [r0, #0]
 452 000c 043B     		subs	r3, r3, #4
 453 000e A342     		cmp	r3, r4
 454 0010 C360     		str	r3, [r0, #12]
 455              		.loc 1 283 0
 456 0012 3CBF     		itt	cc
 457 0014 4368     		ldrcc	r3, [r0, #4]
 458 0016 043B     		subcc	r3, r3, #4
 459              		.loc 1 281 0
 460 0018 02F1FF32 		add	r2, r2, #-1
 461 001c 4262     		str	r2, [r0, #36]
 462              		.loc 1 283 0
 463 001e 38BF     		it	cc
 464 0020 C360     		strcc	r3, [r0, #12]
 465              		.loc 1 284 0
 466 0022 1960     		str	r1, [r3, #0]
 467              		.loc 1 285 0
 468 0024 1030     		adds	r0, r0, #16
 469              	.LVL47:
 470 0026 FFF7FEFF 		bl	chSemSignalI
 471              	.LVL48:
 472              		.loc 1 286 0
 473 002a 0020     		movs	r0, #0
 474 002c 10BD     		pop	{r4, pc}
 475              	.LVL49:
 476              	.L19:
 477              		.loc 1 280 0
 478 002e 4FF0FF30 		mov	r0, #-1
 479              	.LVL50:
 480              		.loc 1 287 0
 481 0032 10BD     		pop	{r4, pc}
 482              		.cfi_endproc
 483              	.LFE14:
 484              		.size	chMBPostAheadI, .-chMBPostAheadI
 485 0034 AFF30080 		.section	.text.chMBFetchS,"ax",%progbits
 485      AFF30080 
 485      AFF30080 
 486              		.align	2
 487              		.p2align 4,,15
 488              		.global	chMBFetchS
 489              		.thumb
 490              		.thumb_func
 491              		.type	chMBFetchS, %function
 492              	chMBFetchS:
 493              	.LFB16:
 494              		.loc 1 336 0
 495              		.cfi_startproc
 496              		@ args = 0, pretend = 0, frame = 0
 497              		@ frame_needed = 0, uses_anonymous_args = 0
 498              	.LVL51:
 499 0000 70B5     		push	{r4, r5, r6, lr}
ARM GAS  /tmp/ccvrzC31.s 			page 10


 500              	.LCFI8:
 501              		.cfi_def_cfa_offset 16
 502              		.cfi_offset 4, -16
 503              		.cfi_offset 5, -12
 504              		.cfi_offset 6, -8
 505              		.cfi_offset 14, -4
 506              		.loc 1 336 0
 507 0002 0446     		mov	r4, r0
 508 0004 0E46     		mov	r6, r1
 509              		.loc 1 342 0
 510 0006 1030     		adds	r0, r0, #16
 511              	.LVL52:
 512 0008 1146     		mov	r1, r2
 513              	.LVL53:
 514 000a FFF7FEFF 		bl	chSemWaitTimeoutS
 515              	.LVL54:
 516              		.loc 1 343 0
 517 000e 0546     		mov	r5, r0
 518 0010 80B9     		cbnz	r0, .L21
 519              		.loc 1 344 0
 520 0012 E368     		ldr	r3, [r4, #12]
 521              		.loc 1 345 0
 522 0014 6268     		ldr	r2, [r4, #4]
 523              		.loc 1 344 0
 524 0016 53F8041B 		ldr	r1, [r3], #4
 525              		.loc 1 345 0
 526 001a 9342     		cmp	r3, r2
 527              		.loc 1 344 0
 528 001c 3160     		str	r1, [r6, #0]
 529 001e E360     		str	r3, [r4, #12]
 530              		.loc 1 346 0
 531 0020 28BF     		it	cs
 532 0022 2368     		ldrcs	r3, [r4, #0]
 533              		.loc 1 347 0
 534 0024 04F11C00 		add	r0, r4, #28
 535              	.LVL55:
 536              		.loc 1 346 0
 537 0028 28BF     		it	cs
 538 002a E360     		strcs	r3, [r4, #12]
 539              		.loc 1 347 0
 540 002c FFF7FEFF 		bl	chSemSignalI
 541              	.LVL56:
 542              		.loc 1 348 0
 543 0030 FFF7FEFF 		bl	chSchRescheduleS
 544              	.LVL57:
 545              	.L21:
 546              		.loc 1 351 0
 547 0034 2846     		mov	r0, r5
 548 0036 70BD     		pop	{r4, r5, r6, pc}
 549              		.cfi_endproc
 550              	.LFE16:
 551              		.size	chMBFetchS, .-chMBFetchS
 552 0038 AFF30080 		.section	.text.chMBFetch,"ax",%progbits
 552      AFF30080 
 553              		.align	2
 554              		.p2align 4,,15
 555              		.global	chMBFetch
ARM GAS  /tmp/ccvrzC31.s 			page 11


 556              		.thumb
 557              		.thumb_func
 558              		.type	chMBFetch, %function
 559              	chMBFetch:
 560              	.LFB15:
 561              		.loc 1 308 0
 562              		.cfi_startproc
 563              		@ args = 0, pretend = 0, frame = 0
 564              		@ frame_needed = 0, uses_anonymous_args = 0
 565              	.LVL58:
 566 0000 08B5     		push	{r3, lr}
 567              	.LCFI9:
 568              		.cfi_def_cfa_offset 8
 569              		.cfi_offset 3, -8
 570              		.cfi_offset 14, -4
 571              	.LBB9:
 572              		.loc 1 311 0
 573 0002 2023     		movs	r3, #32
 574              	.LVL59:
 575              	@ 311 "/home/felix/Documents/ChibiOS/os/kernel/src/chmboxes.c" 1
 576 0004 83F31188 		msr     BASEPRI, r3
 577              	@ 0 "" 2
 578              	.LVL60:
 579              		.thumb
 580              	.LBE9:
 581              		.loc 1 312 0
 582 0008 FFF7FEFF 		bl	chMBFetchS
 583              	.LVL61:
 584              	.LBB10:
 585              		.loc 1 313 0
 586 000c 0023     		movs	r3, #0
 587              	.LVL62:
 588              	@ 313 "/home/felix/Documents/ChibiOS/os/kernel/src/chmboxes.c" 1
 589 000e 83F31188 		msr     BASEPRI, r3
 590              	@ 0 "" 2
 591              	.LVL63:
 592              		.thumb
 593              	.LBE10:
 594              		.loc 1 315 0
 595 0012 08BD     		pop	{r3, pc}
 596              		.cfi_endproc
 597              	.LFE15:
 598              		.size	chMBFetch, .-chMBFetch
 599 0014 AFF30080 		.section	.text.chMBFetchI,"ax",%progbits
 599      AFF30080 
 599      AFF30080 
 600              		.align	2
 601              		.p2align 4,,15
 602              		.global	chMBFetchI
 603              		.thumb
 604              		.thumb_func
 605              		.type	chMBFetchI, %function
 606              	chMBFetchI:
 607              	.LFB17:
 608              		.loc 1 367 0
 609              		.cfi_startproc
 610              		@ args = 0, pretend = 0, frame = 0
ARM GAS  /tmp/ccvrzC31.s 			page 12


 611              		@ frame_needed = 0, uses_anonymous_args = 0
 612              	.LVL64:
 613              		.loc 1 372 0
 614 0000 8369     		ldr	r3, [r0, #24]
 615 0002 002B     		cmp	r3, #0
 616              		.loc 1 367 0
 617 0004 10B5     		push	{r4, lr}
 618              	.LCFI10:
 619              		.cfi_def_cfa_offset 8
 620              		.cfi_offset 4, -8
 621              		.cfi_offset 14, -4
 622              		.loc 1 372 0
 623 0006 10DD     		ble	.L27
 624              		.loc 1 374 0
 625 0008 5A1E     		subs	r2, r3, #1
 626              		.loc 1 375 0
 627 000a C368     		ldr	r3, [r0, #12]
 628              		.loc 1 374 0
 629 000c 8261     		str	r2, [r0, #24]
 630              		.loc 1 375 0
 631 000e 53F8044B 		ldr	r4, [r3], #4
 632              		.loc 1 376 0
 633 0012 4268     		ldr	r2, [r0, #4]
 634              		.loc 1 375 0
 635 0014 0C60     		str	r4, [r1, #0]
 636              		.loc 1 376 0
 637 0016 9342     		cmp	r3, r2
 638              		.loc 1 375 0
 639 0018 C360     		str	r3, [r0, #12]
 640              		.loc 1 377 0
 641 001a 24BF     		itt	cs
 642 001c 0368     		ldrcs	r3, [r0, #0]
 643 001e C360     		strcs	r3, [r0, #12]
 644              		.loc 1 378 0
 645 0020 1C30     		adds	r0, r0, #28
 646              	.LVL65:
 647 0022 FFF7FEFF 		bl	chSemSignalI
 648              	.LVL66:
 649              		.loc 1 379 0
 650 0026 0020     		movs	r0, #0
 651 0028 10BD     		pop	{r4, pc}
 652              	.LVL67:
 653              	.L27:
 654              		.loc 1 373 0
 655 002a 4FF0FF30 		mov	r0, #-1
 656              	.LVL68:
 657              		.loc 1 380 0
 658 002e 10BD     		pop	{r4, pc}
 659              		.cfi_endproc
 660              	.LFE17:
 661              		.size	chMBFetchI, .-chMBFetchI
 662              		.text
 663              	.Letext0:
 664              		.file 2 "/opt/tools_arm/lib/gcc/arm-none-eabi/4.7.3/../../../../arm-none-eabi/include/stdint.h"
 665              		.file 3 "/home/felix/Documents/ChibiOS/os/ports/GCC/ARMCMx/chtypes.h"
 666              		.file 4 "/home/felix/Documents/ChibiOS/os/kernel/include/chlists.h"
 667              		.file 5 "/home/felix/Documents/ChibiOS/os/kernel/include/chthreads.h"
ARM GAS  /tmp/ccvrzC31.s 			page 13


 668              		.file 6 "/home/felix/Documents/ChibiOS/os/ports/GCC/ARMCMx/chcore_v7m.h"
 669              		.file 7 "/home/felix/Documents/ChibiOS/os/kernel/include/chsem.h"
 670              		.file 8 "/home/felix/Documents/ChibiOS/os/kernel/include/chmtx.h"
 671              		.file 9 "/home/felix/Documents/ChibiOS/os/kernel/include/chmboxes.h"
 672              		.file 10 "/home/felix/Documents/ChibiOS/os/kernel/include/chschd.h"