ARM GAS  /tmp/cckn2ydo.s 			page 1


   1              		.syntax unified
   2              		.cpu cortex-m4
   3              		.fpu softvfp
   4              		.eabi_attribute 20, 1
   5              		.eabi_attribute 21, 1
   6              		.eabi_attribute 23, 3
   7              		.eabi_attribute 24, 1
   8              		.eabi_attribute 25, 1
   9              		.eabi_attribute 26, 1
  10              		.eabi_attribute 30, 2
  11              		.eabi_attribute 34, 1
  12              		.eabi_attribute 18, 4
  13              		.thumb
  14              		.file	"chmempools.c"
  15              		.text
  16              	.Ltext0:
  17              		.cfi_sections	.debug_frame
  18              		.section	.text.chPoolInit,"ax",%progbits
  19              		.align	2
  20              		.p2align 4,,15
  21              		.global	chPoolInit
  22              		.thumb
  23              		.thumb_func
  24              		.type	chPoolInit, %function
  25              	chPoolInit:
  26              	.LFB7:
  27              		.file 1 "/home/felix/Documents/ChibiOS/os/kernel/src/chmempools.c"
  28              		.loc 1 62 0
  29              		.cfi_startproc
  30              		@ args = 0, pretend = 0, frame = 0
  31              		@ frame_needed = 0, uses_anonymous_args = 0
  32              		@ link register save eliminated.
  33              	.LVL0:
  34              		.loc 1 66 0
  35 0000 0023     		movs	r3, #0
  36              		.loc 1 67 0
  37 0002 4160     		str	r1, [r0, #4]
  38              		.loc 1 68 0
  39 0004 8260     		str	r2, [r0, #8]
  40              		.loc 1 66 0
  41 0006 0360     		str	r3, [r0, #0]
  42 0008 7047     		bx	lr
  43              		.cfi_endproc
  44              	.LFE7:
  45              		.size	chPoolInit, .-chPoolInit
  46 000a 00BFAFF3 		.section	.text.chPoolLoadArray,"ax",%progbits
  46      0080
  47              		.align	2
  48              		.p2align 4,,15
  49              		.global	chPoolLoadArray
  50              		.thumb
  51              		.thumb_func
  52              		.type	chPoolLoadArray, %function
  53              	chPoolLoadArray:
  54              	.LFB8:
  55              		.loc 1 84 0
  56              		.cfi_startproc
ARM GAS  /tmp/cckn2ydo.s 			page 2


  57              		@ args = 0, pretend = 0, frame = 0
  58              		@ frame_needed = 0, uses_anonymous_args = 0
  59              		@ link register save eliminated.
  60              	.LVL1:
  61 0000 10B4     		push	{r4}
  62              	.LCFI0:
  63              		.cfi_def_cfa_offset 4
  64              		.cfi_offset 4, -4
  65              		.loc 1 88 0
  66 0002 62B1     		cbz	r2, .L2
  67              	.LVL2:
  68              	.L6:
  69              	.LBB16:
  70              	.LBB17:
  71              		.loc 1 173 0
  72 0004 2023     		movs	r3, #32
  73              	.LVL3:
  74              	@ 173 "/home/felix/Documents/ChibiOS/os/kernel/src/chmempools.c" 1
  75 0006 83F31188 		msr     BASEPRI, r3
  76              	@ 0 "" 2
  77              	.LVL4:
  78              		.thumb
  79              	.LBE17:
  80              	.LBB18:
  81              	.LBB19:
  82              		.loc 1 155 0
  83 000a 0468     		ldr	r4, [r0, #0]
  84              	.LBE19:
  85              	.LBE18:
  86              	.LBB21:
  87              		.loc 1 175 0
  88 000c 0023     		movs	r3, #0
  89              	.LVL5:
  90              	.LBE21:
  91              	.LBB22:
  92              	.LBB20:
  93              		.loc 1 155 0
  94 000e 0C60     		str	r4, [r1, #0]
  95              		.loc 1 156 0
  96 0010 0160     		str	r1, [r0, #0]
  97              	.LBE20:
  98              	.LBE22:
  99              	.LBB23:
 100              		.loc 1 175 0
 101              	@ 175 "/home/felix/Documents/ChibiOS/os/kernel/src/chmempools.c" 1
 102 0012 83F31188 		msr     BASEPRI, r3
 103              	@ 0 "" 2
 104              	.LVL6:
 105              		.thumb
 106              	.LBE23:
 107              	.LBE16:
 108              		.loc 1 90 0
 109 0016 4368     		ldr	r3, [r0, #4]
 110              	.LVL7:
 111              		.loc 1 88 0
 112 0018 013A     		subs	r2, r2, #1
 113              		.loc 1 90 0
ARM GAS  /tmp/cckn2ydo.s 			page 3


 114 001a 1944     		add	r1, r1, r3
 115              	.LVL8:
 116              		.loc 1 88 0
 117 001c F2D1     		bne	.L6
 118              	.LVL9:
 119              	.L2:
 120              		.loc 1 93 0
 121 001e 10BC     		pop	{r4}
 122 0020 7047     		bx	lr
 123              		.cfi_endproc
 124              	.LFE8:
 125              		.size	chPoolLoadArray, .-chPoolLoadArray
 126 0022 00BFAFF3 		.section	.text.chPoolAllocI,"ax",%progbits
 126      0080AFF3 
 126      0080AFF3 
 126      0080
 127              		.align	2
 128              		.p2align 4,,15
 129              		.global	chPoolAllocI
 130              		.thumb
 131              		.thumb_func
 132              		.type	chPoolAllocI, %function
 133              	chPoolAllocI:
 134              	.LFB9:
 135              		.loc 1 105 0
 136              		.cfi_startproc
 137              		@ args = 0, pretend = 0, frame = 0
 138              		@ frame_needed = 0, uses_anonymous_args = 0
 139              	.LVL10:
 140 0000 08B5     		push	{r3, lr}
 141              	.LCFI1:
 142              		.cfi_def_cfa_offset 8
 143              		.cfi_offset 3, -8
 144              		.cfi_offset 14, -4
 145              		.loc 1 105 0
 146 0002 0346     		mov	r3, r0
 147              		.loc 1 111 0
 148 0004 0068     		ldr	r0, [r0, #0]
 149              	.LVL11:
 150 0006 10B1     		cbz	r0, .L10
 151              		.loc 1 112 0
 152 0008 0268     		ldr	r2, [r0, #0]
 153 000a 1A60     		str	r2, [r3, #0]
 154 000c 08BD     		pop	{r3, pc}
 155              	.L10:
 156              		.loc 1 113 0
 157 000e 9A68     		ldr	r2, [r3, #8]
 158 0010 0AB1     		cbz	r2, .L11
 159              		.loc 1 114 0
 160 0012 5868     		ldr	r0, [r3, #4]
 161              	.LVL12:
 162 0014 9047     		blx	r2
 163              	.LVL13:
 164              	.L11:
 165              		.loc 1 116 0
 166 0016 08BD     		pop	{r3, pc}
 167              		.cfi_endproc
ARM GAS  /tmp/cckn2ydo.s 			page 4


 168              	.LFE9:
 169              		.size	chPoolAllocI, .-chPoolAllocI
 170 0018 AFF30080 		.section	.text.chPoolAlloc,"ax",%progbits
 170      AFF30080 
 171              		.align	2
 172              		.p2align 4,,15
 173              		.global	chPoolAlloc
 174              		.thumb
 175              		.thumb_func
 176              		.type	chPoolAlloc, %function
 177              	chPoolAlloc:
 178              	.LFB10:
 179              		.loc 1 128 0
 180              		.cfi_startproc
 181              		@ args = 0, pretend = 0, frame = 0
 182              		@ frame_needed = 0, uses_anonymous_args = 0
 183              	.LVL14:
 184 0000 08B5     		push	{r3, lr}
 185              	.LCFI2:
 186              		.cfi_def_cfa_offset 8
 187              		.cfi_offset 3, -8
 188              		.cfi_offset 14, -4
 189              		.loc 1 128 0
 190 0002 0246     		mov	r2, r0
 191              	.LBB24:
 192              		.loc 1 131 0
 193 0004 2023     		movs	r3, #32
 194              	.LVL15:
 195              	@ 131 "/home/felix/Documents/ChibiOS/os/kernel/src/chmempools.c" 1
 196 0006 83F31188 		msr     BASEPRI, r3
 197              	@ 0 "" 2
 198              	.LVL16:
 199              		.thumb
 200              	.LBE24:
 201              	.LBB25:
 202              	.LBB26:
 203              		.loc 1 111 0
 204 000a 0068     		ldr	r0, [r0, #0]
 205              	.LVL17:
 206 000c 28B1     		cbz	r0, .L16
 207              		.loc 1 112 0
 208 000e 0368     		ldr	r3, [r0, #0]
 209              	.LVL18:
 210 0010 1360     		str	r3, [r2, #0]
 211              	.LVL19:
 212              	.L17:
 213              	.LBE26:
 214              	.LBE25:
 215              	.LBB28:
 216              		.loc 1 133 0
 217 0012 0023     		movs	r3, #0
 218              	.LVL20:
 219              	@ 133 "/home/felix/Documents/ChibiOS/os/kernel/src/chmempools.c" 1
 220 0014 83F31188 		msr     BASEPRI, r3
 221              	@ 0 "" 2
 222              	.LVL21:
 223              		.thumb
ARM GAS  /tmp/cckn2ydo.s 			page 5


 224              	.LBE28:
 225              		.loc 1 135 0
 226 0018 08BD     		pop	{r3, pc}
 227              	.LVL22:
 228              	.L16:
 229              	.LBB29:
 230              	.LBB27:
 231              		.loc 1 113 0
 232 001a 9368     		ldr	r3, [r2, #8]
 233              	.LVL23:
 234 001c 002B     		cmp	r3, #0
 235 001e F8D0     		beq	.L17
 236              		.loc 1 114 0
 237 0020 5068     		ldr	r0, [r2, #4]
 238              	.LVL24:
 239 0022 9847     		blx	r3
 240              	.LVL25:
 241 0024 F5E7     		b	.L17
 242              	.LBE27:
 243              	.LBE29:
 244              		.cfi_endproc
 245              	.LFE10:
 246              		.size	chPoolAlloc, .-chPoolAlloc
 247              		.section	.text.chPoolFreeI,"ax",%progbits
 248              		.align	2
 249              		.p2align 4,,15
 250              		.global	chPoolFreeI
 251              		.thumb
 252              		.thumb_func
 253              		.type	chPoolFreeI, %function
 254              	chPoolFreeI:
 255              	.LFB11:
 256              		.loc 1 149 0
 257              		.cfi_startproc
 258              		@ args = 0, pretend = 0, frame = 0
 259              		@ frame_needed = 0, uses_anonymous_args = 0
 260              		@ link register save eliminated.
 261              	.LVL26:
 262              		.loc 1 155 0
 263 0000 0368     		ldr	r3, [r0, #0]
 264 0002 0B60     		str	r3, [r1, #0]
 265              		.loc 1 156 0
 266 0004 0160     		str	r1, [r0, #0]
 267 0006 7047     		bx	lr
 268              		.cfi_endproc
 269              	.LFE11:
 270              		.size	chPoolFreeI, .-chPoolFreeI
 271 0008 AFF30080 		.section	.text.chPoolFree,"ax",%progbits
 271      AFF30080 
 272              		.align	2
 273              		.p2align 4,,15
 274              		.global	chPoolFree
 275              		.thumb
 276              		.thumb_func
 277              		.type	chPoolFree, %function
 278              	chPoolFree:
 279              	.LFB12:
ARM GAS  /tmp/cckn2ydo.s 			page 6


 280              		.loc 1 171 0
 281              		.cfi_startproc
 282              		@ args = 0, pretend = 0, frame = 0
 283              		@ frame_needed = 0, uses_anonymous_args = 0
 284              		@ link register save eliminated.
 285              	.LVL27:
 286              	.LBB30:
 287              		.loc 1 173 0
 288 0000 2023     		movs	r3, #32
 289              	.LVL28:
 290              	@ 173 "/home/felix/Documents/ChibiOS/os/kernel/src/chmempools.c" 1
 291 0002 83F31188 		msr     BASEPRI, r3
 292              	@ 0 "" 2
 293              	.LVL29:
 294              		.thumb
 295              	.LBE30:
 296              	.LBB31:
 297              	.LBB32:
 298              		.loc 1 155 0
 299 0006 0268     		ldr	r2, [r0, #0]
 300              	.LBE32:
 301              	.LBE31:
 302              	.LBB34:
 303              		.loc 1 175 0
 304 0008 0023     		movs	r3, #0
 305              	.LVL30:
 306              	.LBE34:
 307              	.LBB35:
 308              	.LBB33:
 309              		.loc 1 155 0
 310 000a 0A60     		str	r2, [r1, #0]
 311              		.loc 1 156 0
 312 000c 0160     		str	r1, [r0, #0]
 313              	.LBE33:
 314              	.LBE35:
 315              	.LBB36:
 316              		.loc 1 175 0
 317              	@ 175 "/home/felix/Documents/ChibiOS/os/kernel/src/chmempools.c" 1
 318 000e 83F31188 		msr     BASEPRI, r3
 319              	@ 0 "" 2
 320              	.LVL31:
 321              		.thumb
 322 0012 7047     		bx	lr
 323              	.LBE36:
 324              		.cfi_endproc
 325              	.LFE12:
 326              		.size	chPoolFree, .-chPoolFree
 327 0014 AFF30080 		.text
 327      AFF30080 
 327      AFF30080 
 328              	.Letext0:
 329              		.file 2 "/opt/tools_arm/lib/gcc/arm-none-eabi/4.7.3/include/stddef.h"
 330              		.file 3 "/opt/tools_arm/lib/gcc/arm-none-eabi/4.7.3/../../../../arm-none-eabi/include/stdint.h"
 331              		.file 4 "/home/felix/Documents/ChibiOS/os/kernel/include/chmemcore.h"
 332              		.file 5 "/home/felix/Documents/ChibiOS/os/kernel/include/chmempools.h"