ARM GAS  /tmp/ccdLbJC3.s 			page 1


   1              		.syntax unified
   2              		.cpu cortex-m4
   3              		.fpu softvfp
   4              		.eabi_attribute 20, 1
   5              		.eabi_attribute 21, 1
   6              		.eabi_attribute 23, 3
   7              		.eabi_attribute 24, 1
   8              		.eabi_attribute 25, 1
   9              		.eabi_attribute 26, 1
  10              		.eabi_attribute 30, 2
  11              		.eabi_attribute 34, 1
  12              		.eabi_attribute 18, 4
  13              		.thumb
  14              		.file	"chprintf.c"
  15              		.text
  16              	.Ltext0:
  17              		.cfi_sections	.debug_frame
  18              		.section	.text.long_to_string_with_divisor.constprop.0,"ax",%progbits
  19              		.align	2
  20              		.p2align 4,,15
  21              		.thumb
  22              		.thumb_func
  23              		.type	long_to_string_with_divisor.constprop.0, %function
  24              	long_to_string_with_divisor.constprop.0:
  25              	.LFB10:
  26              		.file 1 "/home/felix/Documents/ChibiOS/os/various/chprintf.c"
  27              		.loc 1 36 0
  28              		.cfi_startproc
  29              		@ args = 0, pretend = 0, frame = 0
  30              		@ frame_needed = 0, uses_anonymous_args = 0
  31              		@ link register save eliminated.
  32              	.LVL0:
  33 0000 F0B4     		push	{r4, r5, r6, r7}
  34              	.LCFI0:
  35              		.cfi_def_cfa_offset 16
  36              		.cfi_offset 4, -16
  37              		.cfi_offset 5, -12
  38              		.cfi_offset 6, -8
  39              		.cfi_offset 7, -4
  40              		.loc 1 51 0
  41 0002 00F10B07 		add	r7, r0, #11
  42              	.LVL1:
  43              		.loc 1 36 0
  44 0006 00F10A05 		add	r5, r0, #10
  45 000a 0C46     		mov	r4, r1
  46              	.LVL2:
  47              	.L3:
  48              		.loc 1 53 0
  49 000c B1FBF2F6 		udiv	r6, r1, r2
  50 0010 02FB1611 		mls	r1, r2, r6, r1
  51              	.LVL3:
  52              		.loc 1 54 0
  53 0014 01F13003 		add	r3, r1, #48
  54              	.LVL4:
  55              		.loc 1 55 0
  56 0018 392B     		cmp	r3, #57
  57              		.loc 1 56 0
ARM GAS  /tmp/ccdLbJC3.s 			page 2


  58 001a C8BF     		it	gt
  59 001c 01F13703 		addgt	r3, r1, #55
  60              	.LVL5:
  61              		.loc 1 57 0
  62 0020 DBB2     		uxtb	r3, r3
  63              	.LVL6:
  64              		.loc 1 59 0
  65 0022 B4FBF2F4 		udiv	r4, r4, r2
  66              	.LVL7:
  67              		.loc 1 58 0
  68 0026 3146     		mov	r1, r6
  69              	.LVL8:
  70              		.loc 1 57 0
  71 0028 2E46     		mov	r6, r5
  72              	.LVL9:
  73 002a 05F80139 		strb	r3, [r5], #-1
  74              	.LVL10:
  75              		.loc 1 59 0
  76 002e 002C     		cmp	r4, #0
  77 0030 ECD1     		bne	.L3
  78              	.LVL11:
  79              		.loc 1 61 0
  80 0032 B91B     		subs	r1, r7, r6
  81              	.LVL12:
  82 0034 3246     		mov	r2, r6
  83              	.LVL13:
  84              		.loc 1 36 0
  85 0036 4118     		adds	r1, r0, r1
  86              	.LVL14:
  87 0038 01E0     		b	.L5
  88              	.LVL15:
  89              	.L9:
  90 003a 12F8013F 		ldrb	r3, [r2, #1]!	@ zero_extendqisi2
  91              	.L5:
  92              		.loc 1 63 0
  93 003e 00F8013B 		strb	r3, [r0], #1
  94              	.LVL16:
  95              		.loc 1 64 0
  96 0042 8842     		cmp	r0, r1
  97 0044 F9D1     		bne	.L9
  98              		.loc 1 67 0
  99 0046 F0BC     		pop	{r4, r5, r6, r7}
 100 0048 7047     		bx	lr
 101              		.cfi_endproc
 102              	.LFE10:
 103              		.size	long_to_string_with_divisor.constprop.0, .-long_to_string_with_divisor.constprop.0
 104 004a 00BFAFF3 		.section	.text.chprintf,"ax",%progbits
 104      0080
 105              		.align	2
 106              		.p2align 4,,15
 107              		.global	chprintf
 108              		.thumb
 109              		.thumb_func
 110              		.type	chprintf, %function
 111              	chprintf:
 112              	.LFB9:
 113              		.loc 1 108 0
ARM GAS  /tmp/ccdLbJC3.s 			page 3


 114              		.cfi_startproc
 115              		@ args = 4, pretend = 12, frame = 24
 116              		@ frame_needed = 0, uses_anonymous_args = 1
 117              	.LVL17:
 118 0000 0EB4     		push	{r1, r2, r3}
 119              	.LCFI1:
 120              		.cfi_def_cfa_offset 12
 121              		.cfi_offset 1, -12
 122              		.cfi_offset 2, -8
 123              		.cfi_offset 3, -4
 124 0002 2DE9F04F 		push	{r4, r5, r6, r7, r8, r9, sl, fp, lr}
 125              	.LCFI2:
 126              		.cfi_def_cfa_offset 48
 127              		.cfi_offset 4, -48
 128              		.cfi_offset 5, -44
 129              		.cfi_offset 6, -40
 130              		.cfi_offset 7, -36
 131              		.cfi_offset 8, -32
 132              		.cfi_offset 9, -28
 133              		.cfi_offset 10, -24
 134              		.cfi_offset 11, -20
 135              		.cfi_offset 14, -16
 136 0006 86B0     		sub	sp, sp, #24
 137              	.LCFI3:
 138              		.cfi_def_cfa_offset 72
 139              		.loc 1 108 0
 140 0008 0FAB     		add	r3, sp, #60
 141              		.loc 1 132 0
 142 000a 0DF10C08 		add	r8, sp, #12
 143              		.loc 1 108 0
 144 000e 53F8044B 		ldr	r4, [r3], #4
 145              		.loc 1 121 0
 146 0012 0293     		str	r3, [sp, #8]
 147              		.loc 1 236 0
 148 0014 0DF10D03 		add	r3, sp, #13
 149 0018 C8EB030C 		rsb	ip, r8, r3
 150 001c 0093     		str	r3, [sp, #0]
 151              		.loc 1 108 0
 152 001e 0646     		mov	r6, r0
 153 0020 CDF804C0 		str	ip, [sp, #4]
 154              	.LVL18:
 155              	.L71:
 156              		.loc 1 123 0
 157 0024 2246     		mov	r2, r4
 158 0026 12F8011B 		ldrb	r1, [r2], #1	@ zero_extendqisi2
 159              	.LVL19:
 160              		.loc 1 124 0
 161 002a 59B1     		cbz	r1, .L70
 162              	.LVL20:
 163              	.L72:
 164              		.loc 1 128 0
 165 002c 2529     		cmp	r1, #37
 166 002e 0ED0     		beq	.L13
 167              		.loc 1 129 0
 168 0030 3368     		ldr	r3, [r6, #0]
 169              		.loc 1 123 0
 170 0032 1446     		mov	r4, r2
ARM GAS  /tmp/ccdLbJC3.s 			page 4


 171              		.loc 1 129 0
 172 0034 9B68     		ldr	r3, [r3, #8]
 173 0036 3046     		mov	r0, r6
 174 0038 9847     		blx	r3
 175              	.LVL21:
 176              		.loc 1 123 0
 177 003a 2246     		mov	r2, r4
 178 003c 12F8011B 		ldrb	r1, [r2], #1	@ zero_extendqisi2
 179              	.LVL22:
 180              		.loc 1 124 0
 181 0040 0029     		cmp	r1, #0
 182 0042 F3D1     		bne	.L72
 183              	.LVL23:
 184              	.L70:
 185              		.loc 1 261 0
 186 0044 06B0     		add	sp, sp, #24
 187 0046 BDE8F04F 		pop	{r4, r5, r6, r7, r8, r9, sl, fp, lr}
 188 004a 03B0     		add	sp, sp, #12
 189 004c 7047     		bx	lr
 190              	.L13:
 191              	.LVL24:
 192              		.loc 1 135 0
 193 004e 6378     		ldrb	r3, [r4, #1]	@ zero_extendqisi2
 194 0050 0299     		ldr	r1, [sp, #8]
 195 0052 2D2B     		cmp	r3, #45
 196 0054 03BF     		ittte	eq
 197 0056 A378     		ldrbeq	r3, [r4, #2]	@ zero_extendqisi2
 198              		.loc 1 136 0
 199 0058 A21C     		addeq	r2, r4, #2
 200              	.LVL25:
 201              		.loc 1 137 0
 202 005a 4FF0010B 		moveq	fp, #1
 203              		.loc 1 134 0
 204 005e 4FF0000B 		movne	fp, #0
 205              	.LVL26:
 206              		.loc 1 140 0
 207 0062 2E2B     		cmp	r3, #46
 208 0064 18BF     		it	ne
 209 0066 302B     		cmpne	r3, #48
 210 0068 03BF     		ittte	eq
 211 006a 5378     		ldrbeq	r3, [r2, #1]	@ zero_extendqisi2
 212              		.loc 1 141 0
 213 006c 0132     		addeq	r2, r2, #1
 214              	.LVL27:
 215              		.loc 1 142 0
 216 006e 3027     		moveq	r7, #48
 217              		.loc 1 139 0
 218 0070 2027     		movne	r7, #32
 219              	.LVL28:
 220              		.loc 1 142 0
 221 0072 1446     		mov	r4, r2
 222              		.loc 1 144 0
 223 0074 0025     		movs	r5, #0
 224 0076 06E0     		b	.L19
 225              	.LVL29:
 226              	.L73:
 227              		.loc 1 150 0
ARM GAS  /tmp/ccdLbJC3.s 			page 5


 228 0078 0A78     		ldrb	r2, [r1, #0]	@ zero_extendqisi2
 229              	.LVL30:
 230 007a 0431     		adds	r1, r1, #4
 231              	.LVL31:
 232              	.L17:
 233              		.loc 1 153 0
 234 007c 05EB8505 		add	r5, r5, r5, lsl #2
 235              	.LVL32:
 236 0080 2378     		ldrb	r3, [r4, #0]	@ zero_extendqisi2
 237 0082 02EB4505 		add	r5, r2, r5, lsl #1
 238              	.LVL33:
 239              	.L19:
 240              		.loc 1 147 0
 241 0086 A3F13002 		sub	r2, r3, #48
 242 008a D2B2     		uxtb	r2, r2
 243 008c 092A     		cmp	r2, #9
 244              		.loc 1 146 0
 245 008e 04F10104 		add	r4, r4, #1
 246              	.LVL34:
 247              		.loc 1 147 0
 248 0092 F3D9     		bls	.L17
 249              		.loc 1 149 0
 250 0094 2A2B     		cmp	r3, #42
 251 0096 EFD0     		beq	.L73
 252              		.loc 1 156 0
 253 0098 2E2B     		cmp	r3, #46
 254 009a 0291     		str	r1, [sp, #8]
 255              	.LVL35:
 256 009c 4FF00000 		mov	r0, #0
 257 00a0 4BD0     		beq	.L23
 258              	.LVL36:
 259              		.loc 1 170 0
 260 00a2 03F0DF02 		and	r2, r3, #223
 261 00a6 4C2A     		cmp	r2, #76
 262 00a8 55D1     		bne	.L24
 263              	.LVL37:
 264              	.L74:
 265              		.loc 1 172 0
 266 00aa 2278     		ldrb	r2, [r4, #0]	@ zero_extendqisi2
 267              		.loc 1 171 0
 268 00ac 0121     		movs	r1, #1
 269              		.loc 1 172 0
 270 00ae 12B1     		cbz	r2, .L25
 271              	.LVL38:
 272              		.loc 1 173 0
 273 00b0 0134     		adds	r4, r4, #1
 274              	.LVL39:
 275 00b2 1346     		mov	r3, r2
 276              		.loc 1 171 0
 277 00b4 0121     		movs	r1, #1
 278              	.LVL40:
 279              	.L25:
 280              		.loc 1 179 0
 281 00b6 A3F14402 		sub	r2, r3, #68
 282 00ba 342A     		cmp	r2, #52
 283 00bc 00F2E380 		bhi	.L26
 284 00c0 DFE812F0 		tbh	[pc, r2, lsl #1]
ARM GAS  /tmp/ccdLbJC3.s 			page 6


 285              	.L33:
 286 00c4 CA00     		.2byte	(.L27-.L33)/2
 287 00c6 E100     		.2byte	(.L26-.L33)/2
 288 00c8 E100     		.2byte	(.L26-.L33)/2
 289 00ca E100     		.2byte	(.L26-.L33)/2
 290 00cc E100     		.2byte	(.L26-.L33)/2
 291 00ce CA00     		.2byte	(.L27-.L33)/2
 292 00d0 E100     		.2byte	(.L26-.L33)/2
 293 00d2 E100     		.2byte	(.L26-.L33)/2
 294 00d4 E100     		.2byte	(.L26-.L33)/2
 295 00d6 E100     		.2byte	(.L26-.L33)/2
 296 00d8 E100     		.2byte	(.L26-.L33)/2
 297 00da E700     		.2byte	(.L28-.L33)/2
 298 00dc E100     		.2byte	(.L26-.L33)/2
 299 00de E100     		.2byte	(.L26-.L33)/2
 300 00e0 E100     		.2byte	(.L26-.L33)/2
 301 00e2 E100     		.2byte	(.L26-.L33)/2
 302 00e4 E100     		.2byte	(.L26-.L33)/2
 303 00e6 C200     		.2byte	(.L56-.L33)/2
 304 00e8 E100     		.2byte	(.L26-.L33)/2
 305 00ea E100     		.2byte	(.L26-.L33)/2
 306 00ec B500     		.2byte	(.L30-.L33)/2
 307 00ee E100     		.2byte	(.L26-.L33)/2
 308 00f0 E100     		.2byte	(.L26-.L33)/2
 309 00f2 E100     		.2byte	(.L26-.L33)/2
 310 00f4 E100     		.2byte	(.L26-.L33)/2
 311 00f6 E100     		.2byte	(.L26-.L33)/2
 312 00f8 E100     		.2byte	(.L26-.L33)/2
 313 00fa E100     		.2byte	(.L26-.L33)/2
 314 00fc E100     		.2byte	(.L26-.L33)/2
 315 00fe E100     		.2byte	(.L26-.L33)/2
 316 0100 E100     		.2byte	(.L26-.L33)/2
 317 0102 9500     		.2byte	(.L31-.L33)/2
 318 0104 CA00     		.2byte	(.L27-.L33)/2
 319 0106 E100     		.2byte	(.L26-.L33)/2
 320 0108 E100     		.2byte	(.L26-.L33)/2
 321 010a E100     		.2byte	(.L26-.L33)/2
 322 010c E100     		.2byte	(.L26-.L33)/2
 323 010e CA00     		.2byte	(.L27-.L33)/2
 324 0110 E100     		.2byte	(.L26-.L33)/2
 325 0112 E100     		.2byte	(.L26-.L33)/2
 326 0114 E100     		.2byte	(.L26-.L33)/2
 327 0116 E100     		.2byte	(.L26-.L33)/2
 328 0118 E100     		.2byte	(.L26-.L33)/2
 329 011a E700     		.2byte	(.L28-.L33)/2
 330 011c E100     		.2byte	(.L26-.L33)/2
 331 011e E100     		.2byte	(.L26-.L33)/2
 332 0120 E100     		.2byte	(.L26-.L33)/2
 333 0122 5000     		.2byte	(.L32-.L33)/2
 334 0124 E100     		.2byte	(.L26-.L33)/2
 335 0126 C200     		.2byte	(.L56-.L33)/2
 336 0128 E100     		.2byte	(.L26-.L33)/2
 337 012a E100     		.2byte	(.L26-.L33)/2
 338 012c B500     		.2byte	(.L30-.L33)/2
 339              	.LVL41:
 340              	.L22:
 341              		.loc 1 162 0
ARM GAS  /tmp/ccdLbJC3.s 			page 7


 342 012e 0A78     		ldrb	r2, [r1, #0]	@ zero_extendqisi2
 343              	.LVL42:
 344 0130 0431     		adds	r1, r1, #4
 345              	.LVL43:
 346              	.L21:
 347              		.loc 1 165 0
 348 0132 00EB8000 		add	r0, r0, r0, lsl #2
 349              	.LVL44:
 350              		.loc 1 166 0
 351 0136 02EB4000 		add	r0, r2, r0, lsl #1
 352              	.LVL45:
 353              	.L23:
 354              		.loc 1 158 0
 355 013a 14F8013B 		ldrb	r3, [r4], #1	@ zero_extendqisi2
 356              	.LVL46:
 357              		.loc 1 159 0
 358 013e A3F13002 		sub	r2, r3, #48
 359 0142 D2B2     		uxtb	r2, r2
 360 0144 092A     		cmp	r2, #9
 361 0146 F4D9     		bls	.L21
 362              		.loc 1 161 0
 363 0148 2A2B     		cmp	r3, #42
 364 014a F0D0     		beq	.L22
 365              		.loc 1 170 0
 366 014c 03F0DF02 		and	r2, r3, #223
 367 0150 4C2A     		cmp	r2, #76
 368 0152 0291     		str	r1, [sp, #8]
 369 0154 A9D0     		beq	.L74
 370              	.LVL47:
 371              	.L24:
 372              		.loc 1 176 0
 373 0156 A3F14101 		sub	r1, r3, #65
 374 015a 1929     		cmp	r1, #25
 375 015c 8CBF     		ite	hi
 376 015e 0021     		movhi	r1, #0
 377 0160 0121     		movls	r1, #1
 378              	.LVL48:
 379 0162 A8E7     		b	.L25
 380              	.LVL49:
 381              	.L32:
 382              		.loc 1 186 0
 383 0164 029A     		ldr	r2, [sp, #8]
 384              		.loc 1 187 0
 385 0166 40F20003 		movw	r3, #:lower16:.LC0
 386              	.LVL50:
 387              		.loc 1 186 0
 388 016a D2F80090 		ldr	r9, [r2, #0]
 389              	.LVL51:
 390              		.loc 1 187 0
 391 016e C0F20003 		movt	r3, #:upper16:.LC0
 392 0172 B9F1000F 		cmp	r9, #0
 393 0176 08BF     		it	eq
 394 0178 9946     		moveq	r9, r3
 395              	.LVL52:
 396              		.loc 1 186 0
 397 017a 111D     		adds	r1, r2, #4
 398              	.LVL53:
ARM GAS  /tmp/ccdLbJC3.s 			page 8


 399              		.loc 1 190 0
 400 017c 99F80020 		ldrb	r2, [r9, #0]	@ zero_extendqisi2
 401              		.loc 1 186 0
 402 0180 0291     		str	r1, [sp, #8]
 403              		.loc 1 189 0
 404 0182 47F6FF71 		movw	r1, #32767
 405 0186 0028     		cmp	r0, #0
 406 0188 08BF     		it	eq
 407 018a 0846     		moveq	r0, r1
 408              	.LVL54:
 409              		.loc 1 190 0
 410 018c 002A     		cmp	r2, #0
 411 018e 00F09480 		beq	.L59
 412              	.LVL55:
 413              		.loc 1 108 0
 414 0192 4844     		add	r0, r9, r0
 415              	.LVL56:
 416 0194 4946     		mov	r1, r9
 417 0196 02E0     		b	.L38
 418              	.LVL57:
 419              	.L37:
 420              		.loc 1 190 0 discriminator 2
 421 0198 9042     		cmp	r0, r2
 422 019a 00F08A80 		beq	.L75
 423              	.L38:
 424              		.loc 1 190 0 is_stmt 0 discriminator 1
 425 019e 4F78     		ldrb	r7, [r1, #1]	@ zero_extendqisi2
 426              		.loc 1 108 0 is_stmt 1 discriminator 1
 427 01a0 4A1C     		adds	r2, r1, #1
 428              	.LVL58:
 429 01a2 1146     		mov	r1, r2
 430              		.loc 1 190 0 discriminator 1
 431 01a4 002F     		cmp	r7, #0
 432 01a6 F7D1     		bne	.L37
 433 01a8 C9EB020A 		rsb	sl, r9, r2
 434              		.loc 1 240 0
 435 01ac CAEB0505 		rsb	r5, sl, r5
 436              	.LVL59:
 437              		.loc 1 185 0
 438 01b0 2027     		movs	r7, #32
 439              	.LVL60:
 440 01b2 25EAE575 		bic	r5, r5, r5, asr #31
 441              	.LVL61:
 442              		.loc 1 242 0
 443 01b6 BBF1000F 		cmp	fp, #0
 444 01ba 29D0     		beq	.L76
 445              	.LVL62:
 446              	.L44:
 447              		.loc 1 253 0 discriminator 1
 448 01bc BAF1000F 		cmp	sl, #0
 449              		.loc 1 108 0 discriminator 1
 450 01c0 C8BF     		it	gt
 451 01c2 09EB0A0B 		addgt	fp, r9, sl
 452              	.LVL63:
 453              		.loc 1 253 0 discriminator 1
 454 01c6 07DD     		ble	.L50
 455              	.LVL64:
ARM GAS  /tmp/ccdLbJC3.s 			page 9


 456              	.L49:
 457              		.loc 1 254 0
 458 01c8 3268     		ldr	r2, [r6, #0]
 459 01ca 19F8011B 		ldrb	r1, [r9], #1	@ zero_extendqisi2
 460              	.LVL65:
 461 01ce 9268     		ldr	r2, [r2, #8]
 462 01d0 3046     		mov	r0, r6
 463 01d2 9047     		blx	r2
 464              	.LVL66:
 465              		.loc 1 253 0
 466 01d4 D945     		cmp	r9, fp
 467 01d6 F7D1     		bne	.L49
 468              	.L50:
 469              	.LVL67:
 470              		.loc 1 256 0
 471 01d8 002D     		cmp	r5, #0
 472 01da 3FF423AF 		beq	.L71
 473              	.L63:
 474              		.loc 1 257 0
 475 01de 3368     		ldr	r3, [r6, #0]
 476 01e0 3046     		mov	r0, r6
 477 01e2 9B68     		ldr	r3, [r3, #8]
 478 01e4 3946     		mov	r1, r7
 479 01e6 9847     		blx	r3
 480              	.LVL68:
 481              		.loc 1 256 0
 482 01e8 013D     		subs	r5, r5, #1
 483              	.LVL69:
 484 01ea F8D1     		bne	.L63
 485 01ec 1AE7     		b	.L71
 486              	.LVL70:
 487              	.L31:
 488              		.loc 1 182 0
 489 01ee 029B     		ldr	r3, [sp, #8]
 490              	.LVL71:
 491 01f0 DDF804A0 		ldr	sl, [sp, #4]
 492 01f4 1A68     		ldr	r2, [r3, #0]
 493              	.LVL72:
 494 01f6 0433     		adds	r3, r3, #4
 495 01f8 8DF80C20 		strb	r2, [sp, #12]
 496              	.LVL73:
 497 01fc 0293     		str	r3, [sp, #8]
 498              		.loc 1 181 0
 499 01fe 2027     		movs	r7, #32
 500              		.loc 1 133 0
 501 0200 C146     		mov	r9, r8
 502              	.LVL74:
 503              	.L34:
 504              		.loc 1 240 0
 505 0202 CAEB0505 		rsb	r5, sl, r5
 506              	.LVL75:
 507 0206 25EAE575 		bic	r5, r5, r5, asr #31
 508              	.LVL76:
 509              		.loc 1 242 0
 510 020a BBF1000F 		cmp	fp, #0
 511 020e D5D1     		bne	.L44
 512              	.LVL77:
ARM GAS  /tmp/ccdLbJC3.s 			page 10


 513              	.L76:
 514              		.loc 1 243 0
 515 0210 6D42     		negs	r5, r5
 516              	.LVL78:
 517              		.loc 1 244 0
 518 0212 002D     		cmp	r5, #0
 519 0214 D2D0     		beq	.L44
 520              		.loc 1 245 0
 521 0216 99F80010 		ldrb	r1, [r9, #0]	@ zero_extendqisi2
 522 021a 2D29     		cmp	r1, #45
 523 021c 3ED0     		beq	.L77
 524              	.LVL79:
 525              	.L64:
 526              		.loc 1 250 0 discriminator 1
 527 021e 3168     		ldr	r1, [r6, #0]
 528 0220 3046     		mov	r0, r6
 529 0222 8B68     		ldr	r3, [r1, #8]
 530 0224 3946     		mov	r1, r7
 531 0226 9847     		blx	r3
 532              	.LVL80:
 533              		.loc 1 251 0 discriminator 1
 534 0228 0135     		adds	r5, r5, #1
 535              	.LVL81:
 536 022a F8D1     		bne	.L64
 537 022c C6E7     		b	.L44
 538              	.LVL82:
 539              	.L30:
 540              		.loc 1 179 0
 541 022e 1022     		movs	r2, #16
 542              	.LVL83:
 543              	.L29:
 544              		.loc 1 230 0
 545 0230 029B     		ldr	r3, [sp, #8]
 546              		.loc 1 229 0
 547 0232 69B1     		cbz	r1, .L42
 548              	.L78:
 549              		.loc 1 230 0
 550 0234 191D     		adds	r1, r3, #4
 551              	.LVL84:
 552 0236 0291     		str	r1, [sp, #8]
 553 0238 1968     		ldr	r1, [r3, #0]
 554              	.LVL85:
 555              	.L43:
 556              	.LBB6:
 557              	.LBB7:
 558              		.loc 1 71 0
 559 023a 4046     		mov	r0, r8
 560 023c FFF7FEFF 		bl	long_to_string_with_divisor.constprop.0
 561              	.LVL86:
 562              	.LBE7:
 563              	.LBE6:
 564              		.loc 1 133 0
 565 0240 C146     		mov	r9, r8
 566 0242 C8EB000A 		rsb	sl, r8, r0
 567              		.loc 1 234 0
 568 0246 DCE7     		b	.L34
 569              	.LVL87:
ARM GAS  /tmp/ccdLbJC3.s 			page 11


 570              	.L56:
 571              		.loc 1 179 0
 572 0248 0A22     		movs	r2, #10
 573              	.LVL88:
 574              		.loc 1 230 0
 575 024a 029B     		ldr	r3, [sp, #8]
 576              		.loc 1 229 0
 577 024c 0029     		cmp	r1, #0
 578 024e F1D1     		bne	.L78
 579              	.L42:
 580              		.loc 1 232 0
 581 0250 181D     		adds	r0, r3, #4
 582              	.LVL89:
 583 0252 1968     		ldr	r1, [r3, #0]
 584              	.LVL90:
 585 0254 0290     		str	r0, [sp, #8]
 586 0256 F0E7     		b	.L43
 587              	.LVL91:
 588              	.L27:
 589              		.loc 1 198 0
 590 0258 029B     		ldr	r3, [sp, #8]
 591              	.LVL92:
 592 025a 1A1D     		adds	r2, r3, #4
 593              	.LVL93:
 594              		.loc 1 197 0
 595 025c D9B9     		cbnz	r1, .L79
 596              		.loc 1 200 0
 597 025e 1968     		ldr	r1, [r3, #0]
 598              	.LVL94:
 599 0260 0292     		str	r2, [sp, #8]
 600              	.L40:
 601              		.loc 1 201 0
 602 0262 0029     		cmp	r1, #0
 603              		.loc 1 202 0
 604 0264 BDBF     		ittte	lt
 605 0266 2D23     		movlt	r3, #45
 606              		.loc 1 203 0
 607 0268 4942     		rsblt	r1, r1, #0
 608              	.LVL95:
 609              		.loc 1 202 0
 610 026a 0DF10D00 		addlt	r0, sp, #13
 611              	.LVL96:
 612              		.loc 1 132 0
 613 026e 4046     		movge	r0, r8
 614              	.LBB8:
 615              	.LBB9:
 616              		.loc 1 71 0
 617 0270 4FF00A02 		mov	r2, #10
 618              	.LBE9:
 619              	.LBE8:
 620              		.loc 1 202 0
 621 0274 B8BF     		it	lt
 622 0276 8DF80C30 		strblt	r3, [sp, #12]
 623              	.LVL97:
 624              	.LBB11:
 625              	.LBB10:
 626              		.loc 1 71 0
ARM GAS  /tmp/ccdLbJC3.s 			page 12


 627 027a FFF7FEFF 		bl	long_to_string_with_divisor.constprop.0
 628              	.LVL98:
 629              	.LBE10:
 630              	.LBE11:
 631              		.loc 1 133 0
 632 027e C146     		mov	r9, r8
 633 0280 C8EB000A 		rsb	sl, r8, r0
 634              		.loc 1 206 0
 635 0284 BDE7     		b	.L34
 636              	.LVL99:
 637              	.L26:
 638              		.loc 1 236 0
 639 0286 8DF80C30 		strb	r3, [sp, #12]
 640              	.LVL100:
 641 028a DDF804A0 		ldr	sl, [sp, #4]
 642              		.loc 1 133 0
 643 028e C146     		mov	r9, r8
 644              		.loc 1 237 0
 645 0290 B7E7     		b	.L34
 646              	.LVL101:
 647              	.L28:
 648 0292 0822     		movs	r2, #8
 649 0294 CCE7     		b	.L29
 650              	.LVL102:
 651              	.L79:
 652              		.loc 1 198 0
 653 0296 0292     		str	r2, [sp, #8]
 654 0298 1968     		ldr	r1, [r3, #0]
 655              	.LVL103:
 656 029a E2E7     		b	.L40
 657              	.LVL104:
 658              	.L77:
 659              		.loc 1 245 0 discriminator 1
 660 029c 302F     		cmp	r7, #48
 661 029e BED1     		bne	.L64
 662              		.loc 1 246 0
 663 02a0 3068     		ldr	r0, [r6, #0]
 664 02a2 8368     		ldr	r3, [r0, #8]
 665 02a4 3046     		mov	r0, r6
 666 02a6 9847     		blx	r3
 667              	.LVL105:
 668 02a8 09F10109 		add	r9, r9, #1
 669              	.LVL106:
 670              		.loc 1 247 0
 671 02ac 0AF1FF3A 		add	sl, sl, #-1
 672              	.LVL107:
 673 02b0 B5E7     		b	.L64
 674              	.LVL108:
 675              	.L75:
 676 02b2 C9EB000A 		rsb	sl, r9, r0
 677              		.loc 1 185 0
 678 02b6 2027     		movs	r7, #32
 679 02b8 A3E7     		b	.L34
 680              	.LVL109:
 681              	.L59:
 682              		.loc 1 190 0
 683 02ba 9246     		mov	sl, r2
ARM GAS  /tmp/ccdLbJC3.s 			page 13


 684              		.loc 1 185 0
 685 02bc 2027     		movs	r7, #32
 686 02be A0E7     		b	.L34
 687              		.cfi_endproc
 688              	.LFE9:
 689              		.size	chprintf, .-chprintf
 690              		.section	.rodata.str1.4,"aMS",%progbits,1
 691              		.align	2
 692              	.LC0:
 693 0000 286E756C 		.ascii	"(null)\000"
 693      6C2900
 694 0007 00       		.text
 695              	.Letext0:
 696              		.file 2 "/opt/tools_arm/lib/gcc/arm-none-eabi/4.7.3/include/stdarg.h"
 697              		.file 3 "/opt/tools_arm/lib/gcc/arm-none-eabi/4.7.3/include/stddef.h"
 698              		.file 4 "/opt/tools_arm/lib/gcc/arm-none-eabi/4.7.3/../../../../arm-none-eabi/include/stdint.h"
 699              		.file 5 "/home/felix/Documents/ChibiOS/os/ports/GCC/ARMCMx/chtypes.h"
 700              		.file 6 "<built-in>"
 701              		.file 7 "/home/felix/Documents/ChibiOS/os/kernel/include/chstreams.h"