ARM GAS  /tmp/cc0XfTja.s 			page 1


   1              		.syntax unified
   2              		.cpu cortex-m4
   3              		.fpu softvfp
   4              		.eabi_attribute 20, 1
   5              		.eabi_attribute 21, 1
   6              		.eabi_attribute 23, 3
   7              		.eabi_attribute 24, 1
   8              		.eabi_attribute 25, 1
   9              		.eabi_attribute 26, 1
  10              		.eabi_attribute 30, 2
  11              		.eabi_attribute 34, 1
  12              		.eabi_attribute 18, 4
  13              		.thumb
  14              		.file	"chqueues.c"
  15              		.text
  16              	.Ltext0:
  17              		.cfi_sections	.debug_frame
  18              		.section	.text.qwait,"ax",%progbits
  19              		.align	2
  20              		.p2align 4,,15
  21              		.thumb
  22              		.thumb_func
  23              		.type	qwait, %function
  24              	qwait:
  25              	.LFB7:
  26              		.file 1 "/home/felix/Documents/ChibiOS/os/kernel/src/chqueues.c"
  27              		.loc 1 70 0
  28              		.cfi_startproc
  29              		@ args = 0, pretend = 0, frame = 0
  30              		@ frame_needed = 0, uses_anonymous_args = 0
  31              		@ link register save eliminated.
  32              	.LVL0:
  33 0000 10B4     		push	{r4}
  34              	.LCFI0:
  35              		.cfi_def_cfa_offset 4
  36              		.cfi_offset 4, -4
  37              		.loc 1 70 0
  38 0002 0246     		mov	r2, r0
  39              		.loc 1 72 0
  40 0004 59B1     		cbz	r1, .L2
  41              		.loc 1 74 0
  42 0006 084B     		ldr	r3, .L4
  43 0008 9B69     		ldr	r3, [r3, #24]
  44 000a 5862     		str	r0, [r3, #36]
  45              	.LVL1:
  46              	.LBB12:
  47              	.LBB13:
  48              		.file 2 "/home/felix/Documents/ChibiOS/os/kernel/include/chinline.h"
  49              		.loc 2 55 0
  50 000c 4468     		ldr	r4, [r0, #4]
  51              	.LBE13:
  52              	.LBE12:
  53              		.loc 1 76 0
  54 000e 0D20     		movs	r0, #13
  55              	.LVL2:
  56              	.LBB15:
  57              	.LBB14:
ARM GAS  /tmp/cc0XfTja.s 			page 2


  58              		.loc 2 55 0
  59 0010 83E81400 		stmia	r3, {r2, r4}
  60              		.loc 2 56 0
  61 0014 5360     		str	r3, [r2, #4]
  62 0016 2360     		str	r3, [r4, #0]
  63              	.LBE14:
  64              	.LBE15:
  65              		.loc 1 77 0
  66 0018 10BC     		pop	{r4}
  67              		.loc 1 76 0
  68 001a FFF7FEBF 		b	chSchGoSleepTimeoutS
  69              	.LVL3:
  70              	.L2:
  71              		.loc 1 77 0
  72 001e 4FF0FF30 		mov	r0, #-1
  73              	.LVL4:
  74 0022 10BC     		pop	{r4}
  75 0024 7047     		bx	lr
  76              	.L5:
  77 0026 00BF     		.align	2
  78              	.L4:
  79 0028 00000000 		.word	rlist
  80              		.cfi_endproc
  81              	.LFE7:
  82              		.size	qwait, .-qwait
  83 002c AFF30080 		.section	.text.chIQInit,"ax",%progbits
  84              		.align	2
  85              		.p2align 4,,15
  86              		.global	chIQInit
  87              		.thumb
  88              		.thumb_func
  89              		.type	chIQInit, %function
  90              	chIQInit:
  91              	.LFB8:
  92              		.loc 1 96 0
  93              		.cfi_startproc
  94              		@ args = 4, pretend = 0, frame = 0
  95              		@ frame_needed = 0, uses_anonymous_args = 0
  96              		@ link register save eliminated.
  97              	.LVL5:
  98 0000 30B4     		push	{r4, r5}
  99              	.LCFI1:
 100              		.cfi_def_cfa_offset 8
 101              		.cfi_offset 4, -8
 102              		.cfi_offset 5, -4
 103              		.loc 1 96 0
 104 0002 029C     		ldr	r4, [sp, #8]
 105              		.loc 1 98 0
 106 0004 4060     		str	r0, [r0, #4]
 107              		.loc 1 101 0
 108 0006 8A18     		adds	r2, r1, r2
 109              	.LVL6:
 110              		.loc 1 99 0
 111 0008 0025     		movs	r5, #0
 112              		.loc 1 101 0
 113 000a 0261     		str	r2, [r0, #16]
 114              		.loc 1 98 0
ARM GAS  /tmp/cc0XfTja.s 			page 3


 115 000c 0060     		str	r0, [r0, #0]
 116              		.loc 1 100 0
 117 000e 4161     		str	r1, [r0, #20]
 118 0010 8161     		str	r1, [r0, #24]
 119 0012 C160     		str	r1, [r0, #12]
 120              		.loc 1 102 0
 121 0014 C361     		str	r3, [r0, #28]
 122              		.loc 1 99 0
 123 0016 8560     		str	r5, [r0, #8]
 124              		.loc 1 103 0
 125 0018 0462     		str	r4, [r0, #32]
 126              		.loc 1 104 0
 127 001a 30BC     		pop	{r4, r5}
 128 001c 7047     		bx	lr
 129              		.cfi_endproc
 130              	.LFE8:
 131              		.size	chIQInit, .-chIQInit
 132 001e 00BF     		.section	.text.chIQResetI,"ax",%progbits
 133              		.align	2
 134              		.p2align 4,,15
 135              		.global	chIQResetI
 136              		.thumb
 137              		.thumb_func
 138              		.type	chIQResetI, %function
 139              	chIQResetI:
 140              	.LFB9:
 141              		.loc 1 117 0
 142              		.cfi_startproc
 143              		@ args = 0, pretend = 0, frame = 0
 144              		@ frame_needed = 0, uses_anonymous_args = 0
 145              	.LVL7:
 146 0000 38B5     		push	{r3, r4, r5, lr}
 147              	.LCFI2:
 148              		.cfi_def_cfa_offset 16
 149              		.cfi_offset 3, -16
 150              		.cfi_offset 4, -12
 151              		.cfi_offset 5, -8
 152              		.cfi_offset 14, -4
 153              		.loc 1 117 0
 154 0002 0446     		mov	r4, r0
 155              		.loc 1 121 0
 156 0004 C368     		ldr	r3, [r0, #12]
 157              		.loc 1 123 0
 158 0006 0068     		ldr	r0, [r0, #0]
 159              	.LVL8:
 160              		.loc 1 121 0
 161 0008 6361     		str	r3, [r4, #20]
 162              		.loc 1 122 0
 163 000a 0022     		movs	r2, #0
 164              		.loc 1 123 0
 165 000c A042     		cmp	r0, r4
 166              		.loc 1 122 0
 167 000e A260     		str	r2, [r4, #8]
 168              		.loc 1 121 0
 169 0010 A361     		str	r3, [r4, #24]
 170              		.loc 1 123 0
 171 0012 0AD0     		beq	.L7
ARM GAS  /tmp/cc0XfTja.s 			page 4


 172              		.loc 1 124 0
 173 0014 6FF00105 		mvn	r5, #1
 174              	.L11:
 175              	.LVL9:
 176              	.LBB16:
 177              	.LBB17:
 178              		.loc 2 62 0
 179 0018 0368     		ldr	r3, [r0, #0]
 180 001a 2360     		str	r3, [r4, #0]
 181 001c 5C60     		str	r4, [r3, #4]
 182              	.LBE17:
 183              	.LBE16:
 184              		.loc 1 124 0
 185 001e FFF7FEFF 		bl	chSchReadyI
 186              	.LVL10:
 187 0022 4562     		str	r5, [r0, #36]
 188              		.loc 1 123 0
 189 0024 2068     		ldr	r0, [r4, #0]
 190 0026 A042     		cmp	r0, r4
 191 0028 F6D1     		bne	.L11
 192              	.LVL11:
 193              	.L7:
 194 002a 38BD     		pop	{r3, r4, r5, pc}
 195              		.cfi_endproc
 196              	.LFE9:
 197              		.size	chIQResetI, .-chIQResetI
 198 002c AFF30080 		.section	.text.chIQPutI,"ax",%progbits
 199              		.align	2
 200              		.p2align 4,,15
 201              		.global	chIQPutI
 202              		.thumb
 203              		.thumb_func
 204              		.type	chIQPutI, %function
 205              	chIQPutI:
 206              	.LFB10:
 207              		.loc 1 140 0
 208              		.cfi_startproc
 209              		@ args = 0, pretend = 0, frame = 0
 210              		@ frame_needed = 0, uses_anonymous_args = 0
 211              	.LVL12:
 212              		.loc 1 144 0
 213 0000 4269     		ldr	r2, [r0, #20]
 214              		.loc 1 140 0
 215 0002 08B5     		push	{r3, lr}
 216              	.LCFI3:
 217              		.cfi_def_cfa_offset 8
 218              		.cfi_offset 3, -8
 219              		.cfi_offset 14, -4
 220              		.loc 1 140 0
 221 0004 0346     		mov	r3, r0
 222              		.loc 1 144 0
 223 0006 8069     		ldr	r0, [r0, #24]
 224              	.LVL13:
 225 0008 8242     		cmp	r2, r0
 226 000a 9868     		ldr	r0, [r3, #8]
 227 000c 1AD0     		beq	.L22
 228              	.L16:
ARM GAS  /tmp/cc0XfTja.s 			page 5


 229              		.loc 1 147 0
 230 000e 0130     		adds	r0, r0, #1
 231 0010 9860     		str	r0, [r3, #8]
 232              		.loc 1 148 0
 233 0012 02F8011B 		strb	r1, [r2], #1
 234              		.loc 1 149 0
 235 0016 1969     		ldr	r1, [r3, #16]
 236              	.LVL14:
 237              		.loc 1 148 0
 238 0018 5A61     		str	r2, [r3, #20]
 239              		.loc 1 149 0
 240 001a 8A42     		cmp	r2, r1
 241 001c 0BD2     		bcs	.L17
 242              		.loc 1 152 0
 243 001e 1868     		ldr	r0, [r3, #0]
 244 0020 9842     		cmp	r0, r3
 245 0022 0DD0     		beq	.L20
 246              	.L23:
 247              	.LVL15:
 248              	.LBB18:
 249              	.LBB19:
 250              		.loc 2 62 0
 251 0024 0268     		ldr	r2, [r0, #0]
 252 0026 1A60     		str	r2, [r3, #0]
 253 0028 5360     		str	r3, [r2, #4]
 254              	.LBE19:
 255              	.LBE18:
 256              		.loc 1 153 0
 257 002a FFF7FEFF 		bl	chSchReadyI
 258              	.LVL16:
 259 002e 0023     		movs	r3, #0
 260 0030 4362     		str	r3, [r0, #36]
 261              		.loc 1 155 0
 262 0032 1846     		mov	r0, r3
 263 0034 08BD     		pop	{r3, pc}
 264              	.LVL17:
 265              	.L17:
 266              		.loc 1 152 0
 267 0036 1868     		ldr	r0, [r3, #0]
 268              		.loc 1 150 0
 269 0038 DA68     		ldr	r2, [r3, #12]
 270              		.loc 1 152 0
 271 003a 9842     		cmp	r0, r3
 272              		.loc 1 150 0
 273 003c 5A61     		str	r2, [r3, #20]
 274              		.loc 1 152 0
 275 003e F1D1     		bne	.L23
 276              	.L20:
 277              		.loc 1 155 0
 278 0040 0020     		movs	r0, #0
 279 0042 08BD     		pop	{r3, pc}
 280              	.LVL18:
 281              	.L22:
 282              		.loc 1 144 0 discriminator 1
 283 0044 0028     		cmp	r0, #0
 284 0046 E2D0     		beq	.L16
 285              		.loc 1 145 0
ARM GAS  /tmp/cc0XfTja.s 			page 6


 286 0048 6FF00300 		mvn	r0, #3
 287 004c 08BD     		pop	{r3, pc}
 288              		.cfi_endproc
 289              	.LFE10:
 290              		.size	chIQPutI, .-chIQPutI
 291 004e 00BF     		.section	.text.chIQGetTimeout,"ax",%progbits
 292              		.align	2
 293              		.p2align 4,,15
 294              		.global	chIQGetTimeout
 295              		.thumb
 296              		.thumb_func
 297              		.type	chIQGetTimeout, %function
 298              	chIQGetTimeout:
 299              	.LFB11:
 300              		.loc 1 178 0
 301              		.cfi_startproc
 302              		@ args = 0, pretend = 0, frame = 0
 303              		@ frame_needed = 0, uses_anonymous_args = 0
 304              	.LVL19:
 305 0000 70B5     		push	{r4, r5, r6, lr}
 306              	.LCFI4:
 307              		.cfi_def_cfa_offset 16
 308              		.cfi_offset 4, -16
 309              		.cfi_offset 5, -12
 310              		.cfi_offset 6, -8
 311              		.cfi_offset 14, -4
 312              	.LBB20:
 313              		.loc 1 181 0
 314 0002 2023     		movs	r3, #32
 315              	.LVL20:
 316              	.LBE20:
 317              		.loc 1 178 0
 318 0004 0E46     		mov	r6, r1
 319 0006 0446     		mov	r4, r0
 320              	.LBB21:
 321              		.loc 1 181 0
 322              	@ 181 "/home/felix/Documents/ChibiOS/os/kernel/src/chqueues.c" 1
 323 0008 83F31188 		msr     BASEPRI, r3
 324              	@ 0 "" 2
 325              	.LVL21:
 326              		.thumb
 327              	.LBE21:
 328              		.loc 1 182 0
 329 000c C369     		ldr	r3, [r0, #28]
 330              	.LVL22:
 331 000e 03B1     		cbz	r3, .L32
 332              		.loc 1 183 0
 333 0010 9847     		blx	r3
 334              	.LVL23:
 335              	.L32:
 336              		.loc 1 185 0 discriminator 1
 337 0012 A568     		ldr	r5, [r4, #8]
 338              	.LBB22:
 339              		.loc 1 187 0 discriminator 1
 340 0014 2046     		mov	r0, r4
 341 0016 3146     		mov	r1, r6
 342              	.LBE22:
ARM GAS  /tmp/cc0XfTja.s 			page 7


 343              		.loc 1 185 0 discriminator 1
 344 0018 3DB9     		cbnz	r5, .L35
 345              	.LVL24:
 346              	.LBB24:
 347              		.loc 1 187 0
 348 001a FFF7FEFF 		bl	qwait
 349              	.LVL25:
 350 001e 0028     		cmp	r0, #0
 351 0020 F7DA     		bge	.L32
 352              	.LBB23:
 353              		.loc 1 188 0
 354 0022 2B46     		mov	r3, r5
 355              	.LVL26:
 356              	@ 188 "/home/felix/Documents/ChibiOS/os/kernel/src/chqueues.c" 1
 357 0024 83F31188 		msr     BASEPRI, r3
 358              	@ 0 "" 2
 359              	.LVL27:
 360              		.thumb
 361              	.LBE23:
 362              		.loc 1 189 0
 363 0028 70BD     		pop	{r4, r5, r6, pc}
 364              	.LVL28:
 365              	.L35:
 366              	.LBE24:
 367              		.loc 1 194 0
 368 002a A369     		ldr	r3, [r4, #24]
 369              		.loc 1 195 0
 370 002c 2269     		ldr	r2, [r4, #16]
 371              		.loc 1 193 0
 372 002e 013D     		subs	r5, r5, #1
 373 0030 A560     		str	r5, [r4, #8]
 374              		.loc 1 194 0
 375 0032 13F8010B 		ldrb	r0, [r3], #1	@ zero_extendqisi2
 376              	.LVL29:
 377              		.loc 1 195 0
 378 0036 9342     		cmp	r3, r2
 379              		.loc 1 194 0
 380 0038 A361     		str	r3, [r4, #24]
 381              		.loc 1 196 0
 382 003a 24BF     		itt	cs
 383 003c E368     		ldrcs	r3, [r4, #12]
 384 003e A361     		strcs	r3, [r4, #24]
 385              	.LBB25:
 386              		.loc 1 198 0
 387 0040 0023     		movs	r3, #0
 388              	.LVL30:
 389              	@ 198 "/home/felix/Documents/ChibiOS/os/kernel/src/chqueues.c" 1
 390 0042 83F31188 		msr     BASEPRI, r3
 391              	@ 0 "" 2
 392              	.LVL31:
 393              		.thumb
 394              	.LBE25:
 395              		.loc 1 200 0
 396 0046 70BD     		pop	{r4, r5, r6, pc}
 397              		.cfi_endproc
 398              	.LFE11:
 399              		.size	chIQGetTimeout, .-chIQGetTimeout
ARM GAS  /tmp/cc0XfTja.s 			page 8


 400 0048 AFF30080 		.section	.text.chIQReadTimeout,"ax",%progbits
 400      AFF30080 
 401              		.align	2
 402              		.p2align 4,,15
 403              		.global	chIQReadTimeout
 404              		.thumb
 405              		.thumb_func
 406              		.type	chIQReadTimeout, %function
 407              	chIQReadTimeout:
 408              	.LFB12:
 409              		.loc 1 227 0
 410              		.cfi_startproc
 411              		@ args = 0, pretend = 0, frame = 0
 412              		@ frame_needed = 0, uses_anonymous_args = 0
 413              	.LVL32:
 414 0000 2DE9F047 		push	{r4, r5, r6, r7, r8, r9, sl, lr}
 415              	.LCFI5:
 416              		.cfi_def_cfa_offset 32
 417              		.cfi_offset 4, -32
 418              		.cfi_offset 5, -28
 419              		.cfi_offset 6, -24
 420              		.cfi_offset 7, -20
 421              		.cfi_offset 8, -16
 422              		.cfi_offset 9, -12
 423              		.cfi_offset 10, -8
 424              		.cfi_offset 14, -4
 425              		.loc 1 227 0
 426 0004 1E46     		mov	r6, r3
 427 0006 0446     		mov	r4, r0
 428              		.loc 1 228 0
 429 0008 C769     		ldr	r7, [r0, #28]
 430              	.LVL33:
 431              	.LBB26:
 432              		.loc 1 233 0
 433 000a 2023     		movs	r3, #32
 434              	.LVL34:
 435              	@ 233 "/home/felix/Documents/ChibiOS/os/kernel/src/chqueues.c" 1
 436 000c 83F31188 		msr     BASEPRI, r3
 437              	@ 0 "" 2
 438              	.LVL35:
 439              		.thumb
 440              	.LBE26:
 441              		.loc 1 229 0
 442 0010 4FF00008 		mov	r8, #0
 443              	.LBB27:
 444              		.loc 1 226 0
 445 0014 01EB020A 		add	sl, r1, r2
 446 0018 01F10109 		add	r9, r1, #1
 447              	.LVL36:
 448              	.L42:
 449              	.LBE27:
 450              		.loc 1 235 0
 451 001c 0FB1     		cbz	r7, .L47
 452              		.loc 1 236 0
 453 001e 2046     		mov	r0, r4
 454              	.LVL37:
 455 0020 B847     		blx	r7
ARM GAS  /tmp/cc0XfTja.s 			page 9


 456              	.LVL38:
 457              	.L47:
 458              		.loc 1 238 0 discriminator 1
 459 0022 A568     		ldr	r5, [r4, #8]
 460              		.loc 1 239 0 discriminator 1
 461 0024 2046     		mov	r0, r4
 462 0026 3146     		mov	r1, r6
 463              		.loc 1 238 0 discriminator 1
 464 0028 4DB9     		cbnz	r5, .L51
 465              	.LVL39:
 466              		.loc 1 239 0
 467 002a FFF7FEFF 		bl	qwait
 468              	.LVL40:
 469 002e 0028     		cmp	r0, #0
 470 0030 F7D0     		beq	.L47
 471              	.LBB28:
 472              		.loc 1 240 0
 473 0032 2B46     		mov	r3, r5
 474              	.LVL41:
 475              	@ 240 "/home/felix/Documents/ChibiOS/os/kernel/src/chqueues.c" 1
 476 0034 83F31188 		msr     BASEPRI, r3
 477              	@ 0 "" 2
 478              	.LVL42:
 479              		.thumb
 480              	.L39:
 481              	.LBE28:
 482              		.loc 1 257 0
 483 0038 4046     		mov	r0, r8
 484 003a BDE8F087 		pop	{r4, r5, r6, r7, r8, r9, sl, pc}
 485              	.LVL43:
 486              	.L51:
 487              		.loc 1 246 0
 488 003e A369     		ldr	r3, [r4, #24]
 489              	.LVL44:
 490              		.loc 1 245 0
 491 0040 013D     		subs	r5, r5, #1
 492 0042 A560     		str	r5, [r4, #8]
 493              		.loc 1 246 0
 494 0044 13F8012B 		ldrb	r2, [r3], #1	@ zero_extendqisi2
 495 0048 09F8012C 		strb	r2, [r9, #-1]
 496              		.loc 1 247 0
 497 004c 2269     		ldr	r2, [r4, #16]
 498              		.loc 1 246 0
 499 004e A361     		str	r3, [r4, #24]
 500              		.loc 1 247 0
 501 0050 9342     		cmp	r3, r2
 502              		.loc 1 248 0
 503 0052 24BF     		itt	cs
 504 0054 E368     		ldrcs	r3, [r4, #12]
 505 0056 A361     		strcs	r3, [r4, #24]
 506              	.LBB29:
 507              		.loc 1 250 0
 508 0058 0023     		movs	r3, #0
 509              	@ 250 "/home/felix/Documents/ChibiOS/os/kernel/src/chqueues.c" 1
 510 005a 83F31188 		msr     BASEPRI, r3
 511              	@ 0 "" 2
 512              	.LVL45:
ARM GAS  /tmp/cc0XfTja.s 			page 10


 513              		.thumb
 514              	.LBE29:
 515              		.loc 1 252 0
 516 005e D145     		cmp	r9, sl
 517              		.loc 1 251 0
 518 0060 08F10108 		add	r8, r8, #1
 519              	.LVL46:
 520              		.loc 1 252 0
 521 0064 E8D0     		beq	.L39
 522              	.LBB30:
 523              		.loc 1 255 0
 524 0066 2023     		movs	r3, #32
 525              	.LVL47:
 526              	@ 255 "/home/felix/Documents/ChibiOS/os/kernel/src/chqueues.c" 1
 527 0068 83F31188 		msr     BASEPRI, r3
 528              	@ 0 "" 2
 529              	.LVL48:
 530              		.thumb
 531 006c 09F10109 		add	r9, r9, #1
 532              	.LBE30:
 533              		.loc 1 256 0
 534 0070 D4E7     		b	.L42
 535              		.cfi_endproc
 536              	.LFE12:
 537              		.size	chIQReadTimeout, .-chIQReadTimeout
 538 0072 00BFAFF3 		.section	.text.chOQInit,"ax",%progbits
 538      0080AFF3 
 538      0080AFF3 
 538      0080
 539              		.align	2
 540              		.p2align 4,,15
 541              		.global	chOQInit
 542              		.thumb
 543              		.thumb_func
 544              		.type	chOQInit, %function
 545              	chOQInit:
 546              	.LFB13:
 547              		.loc 1 276 0
 548              		.cfi_startproc
 549              		@ args = 4, pretend = 0, frame = 0
 550              		@ frame_needed = 0, uses_anonymous_args = 0
 551              		@ link register save eliminated.
 552              	.LVL49:
 553 0000 30B4     		push	{r4, r5}
 554              	.LCFI6:
 555              		.cfi_def_cfa_offset 8
 556              		.cfi_offset 4, -8
 557              		.cfi_offset 5, -4
 558              		.loc 1 276 0
 559 0002 029C     		ldr	r4, [sp, #8]
 560              		.loc 1 278 0
 561 0004 4060     		str	r0, [r0, #4]
 562              		.loc 1 281 0
 563 0006 8D18     		adds	r5, r1, r2
 564              		.loc 1 278 0
 565 0008 0060     		str	r0, [r0, #0]
 566              		.loc 1 279 0
ARM GAS  /tmp/cc0XfTja.s 			page 11


 567 000a 8260     		str	r2, [r0, #8]
 568              		.loc 1 281 0
 569 000c 0561     		str	r5, [r0, #16]
 570              		.loc 1 280 0
 571 000e 4161     		str	r1, [r0, #20]
 572 0010 8161     		str	r1, [r0, #24]
 573 0012 C160     		str	r1, [r0, #12]
 574              		.loc 1 282 0
 575 0014 C361     		str	r3, [r0, #28]
 576              		.loc 1 283 0
 577 0016 0462     		str	r4, [r0, #32]
 578              		.loc 1 284 0
 579 0018 30BC     		pop	{r4, r5}
 580 001a 7047     		bx	lr
 581              		.cfi_endproc
 582              	.LFE13:
 583              		.size	chOQInit, .-chOQInit
 584 001c AFF30080 		.section	.text.chOQResetI,"ax",%progbits
 585              		.align	2
 586              		.p2align 4,,15
 587              		.global	chOQResetI
 588              		.thumb
 589              		.thumb_func
 590              		.type	chOQResetI, %function
 591              	chOQResetI:
 592              	.LFB14:
 593              		.loc 1 297 0
 594              		.cfi_startproc
 595              		@ args = 0, pretend = 0, frame = 0
 596              		@ frame_needed = 0, uses_anonymous_args = 0
 597              	.LVL50:
 598 0000 38B5     		push	{r3, r4, r5, lr}
 599              	.LCFI7:
 600              		.cfi_def_cfa_offset 16
 601              		.cfi_offset 3, -16
 602              		.cfi_offset 4, -12
 603              		.cfi_offset 5, -8
 604              		.cfi_offset 14, -4
 605              		.loc 1 302 0
 606 0002 0269     		ldr	r2, [r0, #16]
 607              		.loc 1 301 0
 608 0004 C368     		ldr	r3, [r0, #12]
 609              		.loc 1 297 0
 610 0006 0446     		mov	r4, r0
 611              		.loc 1 303 0
 612 0008 0068     		ldr	r0, [r0, #0]
 613              	.LVL51:
 614              		.loc 1 301 0
 615 000a 6361     		str	r3, [r4, #20]
 616              		.loc 1 302 0
 617 000c D21A     		subs	r2, r2, r3
 618              		.loc 1 303 0
 619 000e A042     		cmp	r0, r4
 620              		.loc 1 301 0
 621 0010 A361     		str	r3, [r4, #24]
 622              		.loc 1 302 0
 623 0012 A260     		str	r2, [r4, #8]
ARM GAS  /tmp/cc0XfTja.s 			page 12


 624              		.loc 1 303 0
 625 0014 0AD0     		beq	.L53
 626              		.loc 1 304 0
 627 0016 6FF00105 		mvn	r5, #1
 628              	.L57:
 629              	.LVL52:
 630              	.LBB31:
 631              	.LBB32:
 632              		.loc 2 62 0
 633 001a 0368     		ldr	r3, [r0, #0]
 634 001c 2360     		str	r3, [r4, #0]
 635 001e 5C60     		str	r4, [r3, #4]
 636              	.LBE32:
 637              	.LBE31:
 638              		.loc 1 304 0
 639 0020 FFF7FEFF 		bl	chSchReadyI
 640              	.LVL53:
 641 0024 4562     		str	r5, [r0, #36]
 642              		.loc 1 303 0
 643 0026 2068     		ldr	r0, [r4, #0]
 644 0028 A042     		cmp	r0, r4
 645 002a F6D1     		bne	.L57
 646              	.LVL54:
 647              	.L53:
 648 002c 38BD     		pop	{r3, r4, r5, pc}
 649              		.cfi_endproc
 650              	.LFE14:
 651              		.size	chOQResetI, .-chOQResetI
 652 002e 00BF     		.section	.text.chOQPutTimeout,"ax",%progbits
 653              		.align	2
 654              		.p2align 4,,15
 655              		.global	chOQPutTimeout
 656              		.thumb
 657              		.thumb_func
 658              		.type	chOQPutTimeout, %function
 659              	chOQPutTimeout:
 660              	.LFB15:
 661              		.loc 1 329 0
 662              		.cfi_startproc
 663              		@ args = 0, pretend = 0, frame = 0
 664              		@ frame_needed = 0, uses_anonymous_args = 0
 665              	.LVL55:
 666 0000 F8B5     		push	{r3, r4, r5, r6, r7, lr}
 667              	.LCFI8:
 668              		.cfi_def_cfa_offset 24
 669              		.cfi_offset 3, -24
 670              		.cfi_offset 4, -20
 671              		.cfi_offset 5, -16
 672              		.cfi_offset 6, -12
 673              		.cfi_offset 7, -8
 674              		.cfi_offset 14, -4
 675              		.loc 1 329 0
 676 0002 0446     		mov	r4, r0
 677 0004 0F46     		mov	r7, r1
 678 0006 1646     		mov	r6, r2
 679              	.LBB33:
 680              		.loc 1 331 0
ARM GAS  /tmp/cc0XfTja.s 			page 13


 681 0008 2023     		movs	r3, #32
 682              	.LVL56:
 683              	@ 331 "/home/felix/Documents/ChibiOS/os/kernel/src/chqueues.c" 1
 684 000a 83F31188 		msr     BASEPRI, r3
 685              	@ 0 "" 2
 686              	.LVL57:
 687              		.thumb
 688              	.L60:
 689              	.LBE33:
 690              		.loc 1 332 0 discriminator 1
 691 000e A568     		ldr	r5, [r4, #8]
 692              	.LBB34:
 693              		.loc 1 335 0 discriminator 1
 694 0010 2046     		mov	r0, r4
 695 0012 3146     		mov	r1, r6
 696              	.LBE34:
 697              		.loc 1 332 0 discriminator 1
 698 0014 3DB9     		cbnz	r5, .L69
 699              	.LVL58:
 700              	.LBB36:
 701              		.loc 1 335 0
 702 0016 FFF7FEFF 		bl	qwait
 703              	.LVL59:
 704 001a 0028     		cmp	r0, #0
 705 001c F7DA     		bge	.L60
 706              	.LBB35:
 707              		.loc 1 336 0
 708 001e 2B46     		mov	r3, r5
 709              	.LVL60:
 710              	@ 336 "/home/felix/Documents/ChibiOS/os/kernel/src/chqueues.c" 1
 711 0020 83F31188 		msr     BASEPRI, r3
 712              	@ 0 "" 2
 713              	.LVL61:
 714              		.thumb
 715              	.LBE35:
 716              		.loc 1 337 0
 717 0024 F8BD     		pop	{r3, r4, r5, r6, r7, pc}
 718              	.LVL62:
 719              	.L69:
 720              	.LBE36:
 721              		.loc 1 342 0
 722 0026 6369     		ldr	r3, [r4, #20]
 723              	.LVL63:
 724              		.loc 1 341 0
 725 0028 013D     		subs	r5, r5, #1
 726 002a A560     		str	r5, [r4, #8]
 727              		.loc 1 342 0
 728 002c 03F8017B 		strb	r7, [r3], #1
 729              		.loc 1 343 0
 730 0030 2269     		ldr	r2, [r4, #16]
 731              		.loc 1 342 0
 732 0032 6361     		str	r3, [r4, #20]
 733              		.loc 1 343 0
 734 0034 9342     		cmp	r3, r2
 735              		.loc 1 344 0
 736 0036 24BF     		itt	cs
 737 0038 E368     		ldrcs	r3, [r4, #12]
ARM GAS  /tmp/cc0XfTja.s 			page 14


 738 003a 6361     		strcs	r3, [r4, #20]
 739              		.loc 1 346 0
 740 003c E369     		ldr	r3, [r4, #28]
 741 003e 0BB1     		cbz	r3, .L64
 742              		.loc 1 347 0
 743 0040 2046     		mov	r0, r4
 744              	.LVL64:
 745 0042 9847     		blx	r3
 746              	.LVL65:
 747              	.L64:
 748              	.LBB37:
 749              		.loc 1 349 0
 750 0044 0023     		movs	r3, #0
 751              	.LVL66:
 752              	@ 349 "/home/felix/Documents/ChibiOS/os/kernel/src/chqueues.c" 1
 753 0046 83F31188 		msr     BASEPRI, r3
 754              	@ 0 "" 2
 755              	.LVL67:
 756              		.thumb
 757              	.LBE37:
 758              		.loc 1 350 0
 759 004a 1846     		mov	r0, r3
 760              		.loc 1 351 0
 761 004c F8BD     		pop	{r3, r4, r5, r6, r7, pc}
 762              		.cfi_endproc
 763              	.LFE15:
 764              		.size	chOQPutTimeout, .-chOQPutTimeout
 765 004e 00BF     		.section	.text.chOQGetI,"ax",%progbits
 766              		.align	2
 767              		.p2align 4,,15
 768              		.global	chOQGetI
 769              		.thumb
 770              		.thumb_func
 771              		.type	chOQGetI, %function
 772              	chOQGetI:
 773              	.LFB16:
 774              		.loc 1 363 0
 775              		.cfi_startproc
 776              		@ args = 0, pretend = 0, frame = 0
 777              		@ frame_needed = 0, uses_anonymous_args = 0
 778              	.LVL68:
 779              		.loc 1 368 0
 780 0000 4169     		ldr	r1, [r0, #20]
 781 0002 8269     		ldr	r2, [r0, #24]
 782 0004 9142     		cmp	r1, r2
 783              		.loc 1 363 0
 784 0006 10B5     		push	{r4, lr}
 785              	.LCFI9:
 786              		.cfi_def_cfa_offset 8
 787              		.cfi_offset 4, -8
 788              		.cfi_offset 14, -4
 789              		.loc 1 363 0
 790 0008 0346     		mov	r3, r0
 791              		.loc 1 368 0
 792 000a 8168     		ldr	r1, [r0, #8]
 793 000c 16D0     		beq	.L79
 794              	.L73:
ARM GAS  /tmp/cc0XfTja.s 			page 15


 795              		.loc 1 371 0
 796 000e 0131     		adds	r1, r1, #1
 797 0010 9960     		str	r1, [r3, #8]
 798              		.loc 1 372 0
 799 0012 12F8014B 		ldrb	r4, [r2], #1	@ zero_extendqisi2
 800              	.LVL69:
 801              		.loc 1 373 0
 802 0016 1969     		ldr	r1, [r3, #16]
 803              		.loc 1 372 0
 804 0018 9A61     		str	r2, [r3, #24]
 805              		.loc 1 373 0
 806 001a 8A42     		cmp	r2, r1
 807 001c 0BD2     		bcs	.L75
 808              	.L76:
 809              		.loc 1 376 0
 810 001e 1868     		ldr	r0, [r3, #0]
 811              	.LVL70:
 812 0020 9842     		cmp	r0, r3
 813 0022 06D0     		beq	.L74
 814              	.LVL71:
 815              	.LBB38:
 816              	.LBB39:
 817              		.loc 2 62 0
 818 0024 0268     		ldr	r2, [r0, #0]
 819 0026 1A60     		str	r2, [r3, #0]
 820 0028 5360     		str	r3, [r2, #4]
 821              	.LBE39:
 822              	.LBE38:
 823              		.loc 1 377 0
 824 002a FFF7FEFF 		bl	chSchReadyI
 825              	.LVL72:
 826 002e 0023     		movs	r3, #0
 827 0030 4362     		str	r3, [r0, #36]
 828              	.LVL73:
 829              	.L74:
 830              		.loc 1 379 0
 831 0032 2046     		mov	r0, r4
 832 0034 10BD     		pop	{r4, pc}
 833              	.LVL74:
 834              	.L75:
 835              		.loc 1 374 0
 836 0036 DA68     		ldr	r2, [r3, #12]
 837 0038 9A61     		str	r2, [r3, #24]
 838 003a F0E7     		b	.L76
 839              	.LVL75:
 840              	.L79:
 841              		.loc 1 368 0 discriminator 1
 842 003c 0029     		cmp	r1, #0
 843 003e E6D0     		beq	.L73
 844              		.loc 1 369 0
 845 0040 6FF00200 		mvn	r0, #2
 846              	.LVL76:
 847 0044 10BD     		pop	{r4, pc}
 848              		.cfi_endproc
 849              	.LFE16:
 850              		.size	chOQGetI, .-chOQGetI
 851 0046 00BFAFF3 		.section	.text.chOQWriteTimeout,"ax",%progbits
ARM GAS  /tmp/cc0XfTja.s 			page 16


 851      0080AFF3 
 851      0080
 852              		.align	2
 853              		.p2align 4,,15
 854              		.global	chOQWriteTimeout
 855              		.thumb
 856              		.thumb_func
 857              		.type	chOQWriteTimeout, %function
 858              	chOQWriteTimeout:
 859              	.LFB17:
 860              		.loc 1 407 0
 861              		.cfi_startproc
 862              		@ args = 0, pretend = 0, frame = 0
 863              		@ frame_needed = 0, uses_anonymous_args = 0
 864              	.LVL77:
 865 0000 2DE9F047 		push	{r4, r5, r6, r7, r8, r9, sl, lr}
 866              	.LCFI10:
 867              		.cfi_def_cfa_offset 32
 868              		.cfi_offset 4, -32
 869              		.cfi_offset 5, -28
 870              		.cfi_offset 6, -24
 871              		.cfi_offset 7, -20
 872              		.cfi_offset 8, -16
 873              		.cfi_offset 9, -12
 874              		.cfi_offset 10, -8
 875              		.cfi_offset 14, -4
 876              		.loc 1 407 0
 877 0004 9A46     		mov	sl, r3
 878 0006 0446     		mov	r4, r0
 879 0008 8846     		mov	r8, r1
 880 000a 1646     		mov	r6, r2
 881              		.loc 1 408 0
 882 000c D0F81C90 		ldr	r9, [r0, #28]
 883              	.LVL78:
 884              	.LBB40:
 885              		.loc 1 413 0
 886 0010 2023     		movs	r3, #32
 887              	.LVL79:
 888              	@ 413 "/home/felix/Documents/ChibiOS/os/kernel/src/chqueues.c" 1
 889 0012 83F31188 		msr     BASEPRI, r3
 890              	@ 0 "" 2
 891              	.LVL80:
 892              		.loc 1 409 0
 893              		.thumb
 894 0016 0027     		movs	r7, #0
 895              	.LVL81:
 896              	.L98:
 897              	.LBE40:
 898              		.loc 1 415 0 discriminator 1
 899 0018 A568     		ldr	r5, [r4, #8]
 900              		.loc 1 427 0 discriminator 1
 901 001a 2046     		mov	r0, r4
 902              		.loc 1 421 0 discriminator 1
 903 001c 6B1E     		subs	r3, r5, #1
 904              	.LVL82:
 905              		.loc 1 415 0 discriminator 1
 906 001e F5B1     		cbz	r5, .L84
ARM GAS  /tmp/cc0XfTja.s 			page 17


 907              	.LVL83:
 908              	.L99:
 909              		.loc 1 421 0
 910 0020 A360     		str	r3, [r4, #8]
 911              		.loc 1 422 0
 912 0022 18F8013B 		ldrb	r3, [r8], #1	@ zero_extendqisi2
 913              	.LVL84:
 914 0026 6569     		ldr	r5, [r4, #20]
 915 0028 05F8013B 		strb	r3, [r5], #1
 916              		.loc 1 423 0
 917 002c 2369     		ldr	r3, [r4, #16]
 918              		.loc 1 422 0
 919 002e 6561     		str	r5, [r4, #20]
 920              	.LVL85:
 921              		.loc 1 423 0
 922 0030 9D42     		cmp	r5, r3
 923              		.loc 1 424 0
 924 0032 24BF     		itt	cs
 925 0034 E368     		ldrcs	r3, [r4, #12]
 926 0036 6361     		strcs	r3, [r4, #20]
 927              		.loc 1 426 0
 928 0038 B9F1000F 		cmp	r9, #0
 929 003c 00D0     		beq	.L86
 930              		.loc 1 427 0
 931 003e C847     		blx	r9
 932              	.LVL86:
 933              	.L86:
 934              	.LBB41:
 935              		.loc 1 429 0
 936 0040 0023     		movs	r3, #0
 937              	.LVL87:
 938              	@ 429 "/home/felix/Documents/ChibiOS/os/kernel/src/chqueues.c" 1
 939 0042 83F31188 		msr     BASEPRI, r3
 940              	@ 0 "" 2
 941              	.LVL88:
 942              		.thumb
 943              	.LBE41:
 944              		.loc 1 431 0
 945 0046 013E     		subs	r6, r6, #1
 946              	.LVL89:
 947              		.loc 1 430 0
 948 0048 07F10107 		add	r7, r7, #1
 949              	.LVL90:
 950              		.loc 1 431 0
 951 004c 10D0     		beq	.L83
 952              	.LBB42:
 953              		.loc 1 433 0
 954 004e 2023     		movs	r3, #32
 955              	.LVL91:
 956              	@ 433 "/home/felix/Documents/ChibiOS/os/kernel/src/chqueues.c" 1
 957 0050 83F31188 		msr     BASEPRI, r3
 958              	@ 0 "" 2
 959              	.LVL92:
 960              		.thumb
 961              	.LBE42:
 962              		.loc 1 415 0
 963 0054 A568     		ldr	r5, [r4, #8]
ARM GAS  /tmp/cc0XfTja.s 			page 18


 964              		.loc 1 427 0
 965 0056 2046     		mov	r0, r4
 966              		.loc 1 421 0
 967 0058 6B1E     		subs	r3, r5, #1
 968              	.LVL93:
 969              		.loc 1 415 0
 970 005a 002D     		cmp	r5, #0
 971 005c E0D1     		bne	.L99
 972              	.LVL94:
 973              	.L84:
 974              		.loc 1 416 0
 975 005e 2046     		mov	r0, r4
 976              	.LVL95:
 977 0060 5146     		mov	r1, sl
 978 0062 FFF7FEFF 		bl	qwait
 979              	.LVL96:
 980 0066 0028     		cmp	r0, #0
 981 0068 D6D0     		beq	.L98
 982              	.LBB43:
 983              		.loc 1 417 0
 984 006a 2B46     		mov	r3, r5
 985              	.LVL97:
 986              	@ 417 "/home/felix/Documents/ChibiOS/os/kernel/src/chqueues.c" 1
 987 006c 83F31188 		msr     BASEPRI, r3
 988              	@ 0 "" 2
 989              	.LVL98:
 990              		.thumb
 991              	.L83:
 992              	.LBE43:
 993              		.loc 1 435 0
 994 0070 3846     		mov	r0, r7
 995 0072 BDE8F087 		pop	{r4, r5, r6, r7, r8, r9, sl, pc}
 996              		.cfi_endproc
 997              	.LFE17:
 998              		.size	chOQWriteTimeout, .-chOQWriteTimeout
 999 0076 00BFAFF3 		.text
 999      0080AFF3 
 999      0080
 1000              	.Letext0:
 1001              		.file 3 "/opt/tools_arm/lib/gcc/arm-none-eabi/4.7.3/include/stddef.h"
 1002              		.file 4 "/opt/tools_arm/lib/gcc/arm-none-eabi/4.7.3/../../../../arm-none-eabi/include/stdint.h"
 1003              		.file 5 "/home/felix/Documents/ChibiOS/os/ports/GCC/ARMCMx/chtypes.h"
 1004              		.file 6 "/home/felix/Documents/ChibiOS/os/kernel/include/chlists.h"
 1005              		.file 7 "/home/felix/Documents/ChibiOS/os/kernel/include/chthreads.h"
 1006              		.file 8 "/home/felix/Documents/ChibiOS/os/ports/GCC/ARMCMx/chcore_v7m.h"
 1007              		.file 9 "/home/felix/Documents/ChibiOS/os/kernel/include/chschd.h"
 1008              		.file 10 "/home/felix/Documents/ChibiOS/os/kernel/include/chmtx.h"
 1009              		.file 11 "/home/felix/Documents/ChibiOS/os/kernel/include/chqueues.h"