ARM GAS  /tmp/ccBIkE9l.s 			page 1


   1              		.syntax unified
   2              		.cpu cortex-m4
   3              		.fpu softvfp
   4              		.eabi_attribute 20, 1
   5              		.eabi_attribute 21, 1
   6              		.eabi_attribute 23, 3
   7              		.eabi_attribute 24, 1
   8              		.eabi_attribute 25, 1
   9              		.eabi_attribute 26, 1
  10              		.eabi_attribute 30, 2
  11              		.eabi_attribute 34, 1
  12              		.eabi_attribute 18, 4
  13              		.thumb
  14              		.file	"chschd.c"
  15              		.text
  16              	.Ltext0:
  17              		.cfi_sections	.debug_frame
  18              		.section	.text.wakeup,"ax",%progbits
  19              		.align	2
  20              		.p2align 4,,15
  21              		.thumb
  22              		.thumb_func
  23              		.type	wakeup, %function
  24              	wakeup:
  25              	.LFB10:
  26              		.file 1 "/home/felix/Documents/ChibiOS/os/kernel/src/chschd.c"
  27              		.loc 1 136 0
  28              		.cfi_startproc
  29              		@ args = 0, pretend = 0, frame = 0
  30              		@ frame_needed = 0, uses_anonymous_args = 0
  31              		@ link register save eliminated.
  32              	.LVL0:
  33 0000 10B4     		push	{r4}
  34              	.LCFI0:
  35              		.cfi_def_cfa_offset 4
  36              		.cfi_offset 4, -4
  37              	.LBB22:
  38              		.loc 1 139 0
  39 0002 2023     		movs	r3, #32
  40              	.LVL1:
  41              	@ 139 "/home/felix/Documents/ChibiOS/os/kernel/src/chschd.c" 1
  42 0004 83F31188 		msr     BASEPRI, r3
  43              	@ 0 "" 2
  44              	.LVL2:
  45              		.thumb
  46              	.LBE22:
  47              		.loc 1 140 0
  48 0008 037F     		ldrb	r3, [r0, #28]	@ zero_extendqisi2
  49              	.LVL3:
  50 000a 0D2B     		cmp	r3, #13
  51 000c 11D8     		bhi	.L2
  52 000e DFE803F0 		tbb	[pc, r3]
  53              	.L6:
  54 0012 20       		.byte	(.L10-.L6)/2
  55 0013 10       		.byte	(.L2-.L6)/2
  56 0014 10       		.byte	(.L2-.L6)/2
  57 0015 07       		.byte	(.L4-.L6)/2
ARM GAS  /tmp/ccBIkE9l.s 			page 2


  58 0016 10       		.byte	(.L2-.L6)/2
  59 0017 0B       		.byte	(.L5-.L6)/2
  60 0018 10       		.byte	(.L2-.L6)/2
  61 0019 10       		.byte	(.L2-.L6)/2
  62 001a 10       		.byte	(.L2-.L6)/2
  63 001b 10       		.byte	(.L2-.L6)/2
  64 001c 10       		.byte	(.L2-.L6)/2
  65 001d 10       		.byte	(.L2-.L6)/2
  66 001e 10       		.byte	(.L2-.L6)/2
  67 001f 0B       		.byte	(.L5-.L6)/2
  68              		.align	1
  69              	.L4:
  70              		.loc 1 150 0
  71 0020 436A     		ldr	r3, [r0, #36]
  72 0022 9A68     		ldr	r2, [r3, #8]
  73 0024 0132     		adds	r2, r2, #1
  74 0026 9A60     		str	r2, [r3, #8]
  75              	.L5:
  76              	.LVL4:
  77              	.LBB23:
  78              	.LBB24:
  79              		.file 2 "/home/felix/Documents/ChibiOS/os/kernel/include/chinline.h"
  80              		.loc 2 75 0
  81 0028 90E80C00 		ldmia	r0, {r2, r3}
  82 002c 1A60     		str	r2, [r3, #0]
  83              		.loc 2 76 0
  84 002e 0268     		ldr	r2, [r0, #0]
  85 0030 5360     		str	r3, [r2, #4]
  86              	.LVL5:
  87              	.L2:
  88              	.LBE24:
  89              	.LBE23:
  90              		.loc 1 163 0
  91 0032 4FF0FF34 		mov	r4, #-1
  92              	.LBB25:
  93              	.LBB26:
  94              		.loc 1 92 0
  95 0036 0022     		movs	r2, #0
  96 0038 8168     		ldr	r1, [r0, #8]
  97              		.loc 1 93 0
  98 003a 084B     		ldr	r3, .L12
  99              	.LBE26:
 100              	.LBE25:
 101              		.loc 1 163 0
 102 003c 4462     		str	r4, [r0, #36]
 103              	.LVL6:
 104              	.LBB28:
 105              	.LBB27:
 106              		.loc 1 92 0
 107 003e 0277     		strb	r2, [r0, #28]
 108              	.LVL7:
 109              	.L8:
 110              		.loc 1 95 0
 111 0040 1B68     		ldr	r3, [r3, #0]
 112              	.LVL8:
 113              		.loc 1 96 0
 114 0042 9A68     		ldr	r2, [r3, #8]
ARM GAS  /tmp/ccBIkE9l.s 			page 3


 115 0044 8A42     		cmp	r2, r1
 116 0046 FBD2     		bcs	.L8
 117              		.loc 1 99 0
 118 0048 5A68     		ldr	r2, [r3, #4]
 119              		.loc 1 98 0
 120 004a 0360     		str	r3, [r0, #0]
 121              		.loc 1 99 0
 122 004c 4260     		str	r2, [r0, #4]
 123              		.loc 1 100 0
 124 004e 1060     		str	r0, [r2, #0]
 125 0050 5860     		str	r0, [r3, #4]
 126              	.LVL9:
 127              	.L10:
 128              	.LBE27:
 129              	.LBE28:
 130              	.LBB29:
 131              		.loc 1 165 0
 132 0052 0023     		movs	r3, #0
 133              	.LVL10:
 134              	@ 165 "/home/felix/Documents/ChibiOS/os/kernel/src/chschd.c" 1
 135 0054 83F31188 		msr     BASEPRI, r3
 136              	@ 0 "" 2
 137              	.LVL11:
 138              		.thumb
 139              	.LBE29:
 140              		.loc 1 166 0
 141 0058 10BC     		pop	{r4}
 142 005a 7047     		bx	lr
 143              	.L13:
 144              		.align	2
 145              	.L12:
 146 005c 00000000 		.word	.LANCHOR0
 147              		.cfi_endproc
 148              	.LFE10:
 149              		.size	wakeup, .-wakeup
 150              		.section	.text._scheduler_init,"ax",%progbits
 151              		.align	2
 152              		.p2align 4,,15
 153              		.global	_scheduler_init
 154              		.thumb
 155              		.thumb_func
 156              		.type	_scheduler_init, %function
 157              	_scheduler_init:
 158              	.LFB7:
 159              		.loc 1 55 0
 160              		.cfi_startproc
 161              		@ args = 0, pretend = 0, frame = 0
 162              		@ frame_needed = 0, uses_anonymous_args = 0
 163              		@ link register save eliminated.
 164              		.loc 1 57 0
 165 0000 40F20003 		movw	r3, #:lower16:.LANCHOR0
 166 0004 C0F20003 		movt	r3, #:upper16:.LANCHOR0
 167              		.loc 1 58 0
 168 0008 0022     		movs	r2, #0
 169              		.loc 1 57 0
 170 000a 5B60     		str	r3, [r3, #4]
 171 000c 1B60     		str	r3, [r3, #0]
ARM GAS  /tmp/ccBIkE9l.s 			page 4


 172              		.loc 1 60 0
 173 000e 5B61     		str	r3, [r3, #20]
 174 0010 1B61     		str	r3, [r3, #16]
 175              		.loc 1 58 0
 176 0012 9A60     		str	r2, [r3, #8]
 177 0014 7047     		bx	lr
 178              		.cfi_endproc
 179              	.LFE7:
 180              		.size	_scheduler_init, .-_scheduler_init
 181 0016 00BFAFF3 		.section	.text.chSchReadyI,"ax",%progbits
 181      0080AFF3 
 181      0080
 182              		.align	2
 183              		.p2align 4,,15
 184              		.global	chSchReadyI
 185              		.thumb
 186              		.thumb_func
 187              		.type	chSchReadyI, %function
 188              	chSchReadyI:
 189              	.LFB8:
 190              		.loc 1 81 0
 191              		.cfi_startproc
 192              		@ args = 0, pretend = 0, frame = 0
 193              		@ frame_needed = 0, uses_anonymous_args = 0
 194              		@ link register save eliminated.
 195              	.LVL12:
 196              		.loc 1 92 0
 197 0000 0022     		movs	r2, #0
 198 0002 8168     		ldr	r1, [r0, #8]
 199              		.loc 1 93 0
 200 0004 054B     		ldr	r3, .L18
 201              		.loc 1 92 0
 202 0006 0277     		strb	r2, [r0, #28]
 203              	.LVL13:
 204              	.L16:
 205              		.loc 1 95 0 discriminator 1
 206 0008 1B68     		ldr	r3, [r3, #0]
 207              	.LVL14:
 208              		.loc 1 96 0 discriminator 1
 209 000a 9A68     		ldr	r2, [r3, #8]
 210 000c 8A42     		cmp	r2, r1
 211 000e FBD2     		bcs	.L16
 212              		.loc 1 99 0
 213 0010 5A68     		ldr	r2, [r3, #4]
 214              		.loc 1 98 0
 215 0012 0360     		str	r3, [r0, #0]
 216              		.loc 1 99 0
 217 0014 4260     		str	r2, [r0, #4]
 218              		.loc 1 100 0
 219 0016 1060     		str	r0, [r2, #0]
 220 0018 5860     		str	r0, [r3, #4]
 221              		.loc 1 102 0
 222 001a 7047     		bx	lr
 223              	.L19:
 224              		.align	2
 225              	.L18:
 226 001c 00000000 		.word	.LANCHOR0
ARM GAS  /tmp/ccBIkE9l.s 			page 5


 227              		.cfi_endproc
 228              	.LFE8:
 229              		.size	chSchReadyI, .-chSchReadyI
 230              		.section	.text.chSchGoSleepS,"ax",%progbits
 231              		.align	2
 232              		.p2align 4,,15
 233              		.global	chSchGoSleepS
 234              		.thumb
 235              		.thumb_func
 236              		.type	chSchGoSleepS, %function
 237              	chSchGoSleepS:
 238              	.LFB9:
 239              		.loc 1 115 0
 240              		.cfi_startproc
 241              		@ args = 0, pretend = 0, frame = 0
 242              		@ frame_needed = 0, uses_anonymous_args = 0
 243              		@ link register save eliminated.
 244              	.LVL15:
 245              		.loc 1 120 0
 246 0000 40F20003 		movw	r3, #:lower16:.LANCHOR0
 247 0004 C0F20003 		movt	r3, #:upper16:.LANCHOR0
 248              		.loc 1 115 0
 249 0008 30B4     		push	{r4, r5}
 250              	.LCFI1:
 251              		.cfi_def_cfa_offset 8
 252              		.cfi_offset 4, -8
 253              		.cfi_offset 5, -4
 254              	.LBB30:
 255              	.LBB31:
 256              		.loc 2 60 0
 257 000a 1A68     		ldr	r2, [r3, #0]
 258              	.LBE31:
 259              	.LBE30:
 260              		.loc 1 120 0
 261 000c 9969     		ldr	r1, [r3, #24]
 262              	.LVL16:
 263              	.LBB35:
 264              	.LBB32:
 265              		.loc 2 62 0
 266 000e 1468     		ldr	r4, [r2, #0]
 267              	.LBE32:
 268              	.LBE35:
 269              		.loc 1 120 0
 270 0010 0877     		strb	r0, [r1, #28]
 271              		.loc 1 124 0
 272 0012 1420     		movs	r0, #20
 273              	.LVL17:
 274              		.loc 1 127 0
 275 0014 0125     		movs	r5, #1
 276              		.loc 1 124 0
 277 0016 C877     		strb	r0, [r1, #31]
 278              	.LVL18:
 279              		.loc 1 128 0
 280 0018 1046     		mov	r0, r2
 281              	.LBB36:
 282              	.LBB33:
 283              		.loc 2 62 0
ARM GAS  /tmp/ccBIkE9l.s 			page 6


 284 001a 6360     		str	r3, [r4, #4]
 285              	.LBE33:
 286              	.LBE36:
 287              		.loc 1 127 0
 288 001c 1577     		strb	r5, [r2, #28]
 289              	.LBB37:
 290              	.LBB34:
 291              		.loc 2 62 0
 292 001e 1C60     		str	r4, [r3, #0]
 293              	.LBE34:
 294              	.LBE37:
 295              		.loc 1 126 0
 296 0020 9A61     		str	r2, [r3, #24]
 297              		.loc 1 129 0
 298 0022 30BC     		pop	{r4, r5}
 299              		.loc 1 128 0
 300 0024 FFF7FEBF 		b	_port_switch
 301              	.LVL19:
 302              		.cfi_endproc
 303              	.LFE9:
 304              		.size	chSchGoSleepS, .-chSchGoSleepS
 305 0028 AFF30080 		.section	.text.chSchGoSleepTimeoutS,"ax",%progbits
 305      AFF30080 
 306              		.align	2
 307              		.p2align 4,,15
 308              		.global	chSchGoSleepTimeoutS
 309              		.thumb
 310              		.thumb_func
 311              		.type	chSchGoSleepTimeoutS, %function
 312              	chSchGoSleepTimeoutS:
 313              	.LFB11:
 314              		.loc 1 189 0
 315              		.cfi_startproc
 316              		@ args = 0, pretend = 0, frame = 24
 317              		@ frame_needed = 0, uses_anonymous_args = 0
 318              	.LVL20:
 319 0000 30B5     		push	{r4, r5, lr}
 320              	.LCFI2:
 321              		.cfi_def_cfa_offset 12
 322              		.cfi_offset 4, -12
 323              		.cfi_offset 5, -8
 324              		.cfi_offset 14, -4
 325              		.loc 1 193 0
 326 0002 4B1C     		adds	r3, r1, #1
 327              		.loc 1 189 0
 328 0004 87B0     		sub	sp, sp, #28
 329              	.LCFI3:
 330              		.cfi_def_cfa_offset 40
 331              		.loc 1 189 0
 332 0006 0546     		mov	r5, r0
 333              		.loc 1 193 0
 334 0008 11D0     		beq	.L22
 335              	.LBB38:
 336              		.loc 1 196 0
 337 000a 0B4C     		ldr	r4, .L28
 338 000c 0B4A     		ldr	r2, .L28+4
 339 000e A369     		ldr	r3, [r4, #24]
ARM GAS  /tmp/ccBIkE9l.s 			page 7


 340 0010 01A8     		add	r0, sp, #4
 341              	.LVL21:
 342 0012 FFF7FEFF 		bl	chVTSetI
 343              	.LVL22:
 344              		.loc 1 197 0
 345 0016 2846     		mov	r0, r5
 346 0018 FFF7FEFF 		bl	chSchGoSleepS
 347              	.LVL23:
 348              		.loc 1 198 0
 349 001c 049B     		ldr	r3, [sp, #16]
 350 001e 13B1     		cbz	r3, .L24
 351              		.loc 1 199 0
 352 0020 01A8     		add	r0, sp, #4
 353 0022 FFF7FEFF 		bl	chVTResetI
 354              	.LVL24:
 355              	.L24:
 356              	.LBE38:
 357              		.loc 1 203 0
 358 0026 A369     		ldr	r3, [r4, #24]
 359              		.loc 1 204 0
 360 0028 586A     		ldr	r0, [r3, #36]
 361 002a 07B0     		add	sp, sp, #28
 362 002c 30BD     		pop	{r4, r5, pc}
 363              	.LVL25:
 364              	.L22:
 365              		.loc 1 202 0
 366 002e FFF7FEFF 		bl	chSchGoSleepS
 367              	.LVL26:
 368 0032 014C     		ldr	r4, .L28
 369 0034 F7E7     		b	.L24
 370              	.L29:
 371 0036 00BF     		.align	2
 372              	.L28:
 373 0038 00000000 		.word	.LANCHOR0
 374 003c 00000000 		.word	wakeup
 375              		.cfi_endproc
 376              	.LFE11:
 377              		.size	chSchGoSleepTimeoutS, .-chSchGoSleepTimeoutS
 378              		.section	.text.chSchWakeupS,"ax",%progbits
 379              		.align	2
 380              		.p2align 4,,15
 381              		.global	chSchWakeupS
 382              		.thumb
 383              		.thumb_func
 384              		.type	chSchWakeupS, %function
 385              	chSchWakeupS:
 386              	.LFB12:
 387              		.loc 1 225 0
 388              		.cfi_startproc
 389              		@ args = 0, pretend = 0, frame = 0
 390              		@ frame_needed = 0, uses_anonymous_args = 0
 391              		@ link register save eliminated.
 392              	.LVL27:
 393 0000 F0B4     		push	{r4, r5, r6, r7}
 394              	.LCFI4:
 395              		.cfi_def_cfa_offset 16
 396              		.cfi_offset 4, -16
ARM GAS  /tmp/ccBIkE9l.s 			page 8


 397              		.cfi_offset 5, -12
 398              		.cfi_offset 6, -8
 399              		.cfi_offset 7, -4
 400              		.loc 1 234 0
 401 0002 154F     		ldr	r7, .L38
 402 0004 8568     		ldr	r5, [r0, #8]
 403 0006 BE69     		ldr	r6, [r7, #24]
 404              		.loc 1 225 0
 405 0008 0446     		mov	r4, r0
 406              		.loc 1 234 0
 407 000a B068     		ldr	r0, [r6, #8]
 408              	.LVL28:
 409              		.loc 1 229 0
 410 000c 6162     		str	r1, [r4, #36]
 411              		.loc 1 234 0
 412 000e 8542     		cmp	r5, r0
 413 0010 0DD8     		bhi	.L31
 414              	.LVL29:
 415              	.LBB39:
 416              	.LBB40:
 417              		.loc 1 92 0
 418 0012 0022     		movs	r2, #0
 419              		.loc 1 93 0
 420 0014 3B46     		mov	r3, r7
 421              		.loc 1 92 0
 422 0016 2277     		strb	r2, [r4, #28]
 423              	.LVL30:
 424              	.L32:
 425              		.loc 1 95 0
 426 0018 1B68     		ldr	r3, [r3, #0]
 427              	.LVL31:
 428              		.loc 1 96 0
 429 001a 9A68     		ldr	r2, [r3, #8]
 430 001c 9542     		cmp	r5, r2
 431 001e FBD9     		bls	.L32
 432              		.loc 1 99 0
 433 0020 5A68     		ldr	r2, [r3, #4]
 434              		.loc 1 98 0
 435 0022 2360     		str	r3, [r4, #0]
 436              		.loc 1 99 0
 437 0024 6260     		str	r2, [r4, #4]
 438              		.loc 1 100 0
 439 0026 1460     		str	r4, [r2, #0]
 440 0028 5C60     		str	r4, [r3, #4]
 441              	.LBE40:
 442              	.LBE39:
 443              		.loc 1 242 0
 444 002a F0BC     		pop	{r4, r5, r6, r7}
 445 002c 7047     		bx	lr
 446              	.LVL32:
 447              	.L31:
 448              	.LBB41:
 449              	.LBB42:
 450              	.LBB43:
 451              		.loc 1 92 0
 452 002e 0023     		movs	r3, #0
 453 0030 3377     		strb	r3, [r6, #28]
ARM GAS  /tmp/ccBIkE9l.s 			page 9


 454              	.LVL33:
 455              		.loc 1 93 0
 456 0032 3B46     		mov	r3, r7
 457              	.LVL34:
 458              	.L34:
 459              		.loc 1 95 0
 460 0034 1B68     		ldr	r3, [r3, #0]
 461              	.LVL35:
 462              		.loc 1 96 0
 463 0036 9A68     		ldr	r2, [r3, #8]
 464 0038 9042     		cmp	r0, r2
 465 003a FBD9     		bls	.L34
 466              		.loc 1 99 0
 467 003c 5A68     		ldr	r2, [r3, #4]
 468              		.loc 1 98 0
 469 003e 3360     		str	r3, [r6, #0]
 470              	.LBE43:
 471              	.LBE42:
 472              		.loc 1 239 0
 473 0040 0120     		movs	r0, #1
 474 0042 2077     		strb	r0, [r4, #28]
 475              		.loc 1 240 0
 476 0044 3146     		mov	r1, r6
 477              	.LVL36:
 478 0046 2046     		mov	r0, r4
 479              	.LBB45:
 480              	.LBB44:
 481              		.loc 1 99 0
 482 0048 7260     		str	r2, [r6, #4]
 483              		.loc 1 100 0
 484 004a 1660     		str	r6, [r2, #0]
 485 004c 5E60     		str	r6, [r3, #4]
 486              	.LBE44:
 487              	.LBE45:
 488              		.loc 1 238 0
 489 004e BC61     		str	r4, [r7, #24]
 490              	.LBE41:
 491              		.loc 1 242 0
 492 0050 F0BC     		pop	{r4, r5, r6, r7}
 493              	.LBB46:
 494              		.loc 1 240 0
 495 0052 FFF7FEBF 		b	_port_switch
 496              	.LVL37:
 497              	.L39:
 498 0056 00BF     		.align	2
 499              	.L38:
 500 0058 00000000 		.word	.LANCHOR0
 501              	.LBE46:
 502              		.cfi_endproc
 503              	.LFE12:
 504              		.size	chSchWakeupS, .-chSchWakeupS
 505 005c AFF30080 		.section	.text.chSchDoRescheduleBehind,"ax",%progbits
 506              		.align	2
 507              		.p2align 4,,15
 508              		.global	chSchDoRescheduleBehind
 509              		.thumb
 510              		.thumb_func
ARM GAS  /tmp/ccBIkE9l.s 			page 10


 511              		.type	chSchDoRescheduleBehind, %function
 512              	chSchDoRescheduleBehind:
 513              	.LFB14:
 514              		.loc 1 304 0
 515              		.cfi_startproc
 516              		@ args = 0, pretend = 0, frame = 0
 517              		@ frame_needed = 0, uses_anonymous_args = 0
 518              		@ link register save eliminated.
 519              		.loc 1 307 0
 520 0000 0E4B     		ldr	r3, .L44
 521              	.LBB47:
 522              	.LBB48:
 523              		.loc 2 60 0
 524 0002 1868     		ldr	r0, [r3, #0]
 525              	.LBE48:
 526              	.LBE47:
 527              		.loc 1 307 0
 528 0004 9969     		ldr	r1, [r3, #24]
 529              	.LVL38:
 530              	.LBB51:
 531              	.LBB49:
 532              		.loc 2 62 0
 533 0006 0268     		ldr	r2, [r0, #0]
 534              	.LBE49:
 535              	.LBE51:
 536              		.loc 1 304 0
 537 0008 F0B4     		push	{r4, r5, r6, r7}
 538              	.LCFI5:
 539              		.cfi_def_cfa_offset 16
 540              		.cfi_offset 4, -16
 541              		.cfi_offset 5, -12
 542              		.cfi_offset 6, -8
 543              		.cfi_offset 7, -4
 544              		.loc 1 310 0
 545 000a 0127     		movs	r7, #1
 546              		.loc 1 312 0
 547 000c 1426     		movs	r6, #20
 548              	.LBB52:
 549              	.LBB53:
 550              		.loc 1 92 0
 551 000e 0025     		movs	r5, #0
 552              	.LBE53:
 553              	.LBE52:
 554              	.LBB55:
 555              	.LBB50:
 556              		.loc 2 62 0
 557 0010 5360     		str	r3, [r2, #4]
 558 0012 8C68     		ldr	r4, [r1, #8]
 559 0014 1A60     		str	r2, [r3, #0]
 560              	.LBE50:
 561              	.LBE55:
 562              		.loc 1 310 0
 563 0016 0777     		strb	r7, [r0, #28]
 564              		.loc 1 309 0
 565 0018 9861     		str	r0, [r3, #24]
 566              		.loc 1 312 0
 567 001a CE77     		strb	r6, [r1, #31]
ARM GAS  /tmp/ccBIkE9l.s 			page 11


 568              	.LVL39:
 569              	.LBB56:
 570              	.LBB54:
 571              		.loc 1 92 0
 572 001c 0D77     		strb	r5, [r1, #28]
 573              	.LVL40:
 574 001e 0346     		mov	r3, r0
 575 0020 00E0     		b	.L42
 576              	.LVL41:
 577              	.L43:
 578 0022 1B68     		ldr	r3, [r3, #0]
 579              	.LVL42:
 580              	.L42:
 581              		.loc 1 96 0
 582 0024 9A68     		ldr	r2, [r3, #8]
 583 0026 A242     		cmp	r2, r4
 584 0028 FBD2     		bcs	.L43
 585              		.loc 1 99 0
 586 002a 5A68     		ldr	r2, [r3, #4]
 587              		.loc 1 98 0
 588 002c 0B60     		str	r3, [r1, #0]
 589              		.loc 1 99 0
 590 002e 4A60     		str	r2, [r1, #4]
 591              		.loc 1 100 0
 592 0030 1160     		str	r1, [r2, #0]
 593 0032 5960     		str	r1, [r3, #4]
 594              	.LBE54:
 595              	.LBE56:
 596              		.loc 1 316 0
 597 0034 F0BC     		pop	{r4, r5, r6, r7}
 598              		.loc 1 315 0
 599 0036 FFF7FEBF 		b	_port_switch
 600              	.LVL43:
 601              	.L45:
 602 003a 00BF     		.align	2
 603              	.L44:
 604 003c 00000000 		.word	.LANCHOR0
 605              		.cfi_endproc
 606              	.LFE14:
 607              		.size	chSchDoRescheduleBehind, .-chSchDoRescheduleBehind
 608              		.section	.text.chSchDoRescheduleAhead,"ax",%progbits
 609              		.align	2
 610              		.p2align 4,,15
 611              		.global	chSchDoRescheduleAhead
 612              		.thumb
 613              		.thumb_func
 614              		.type	chSchDoRescheduleAhead, %function
 615              	chSchDoRescheduleAhead:
 616              	.LFB15:
 617              		.loc 1 329 0
 618              		.cfi_startproc
 619              		@ args = 0, pretend = 0, frame = 0
 620              		@ frame_needed = 0, uses_anonymous_args = 0
 621              		@ link register save eliminated.
 622              		.loc 1 332 0
 623 0000 0D4B     		ldr	r3, .L50
 624              	.LBB57:
ARM GAS  /tmp/ccBIkE9l.s 			page 12


 625              	.LBB58:
 626              		.loc 2 60 0
 627 0002 1868     		ldr	r0, [r3, #0]
 628              	.LBE58:
 629              	.LBE57:
 630              		.loc 1 332 0
 631 0004 9969     		ldr	r1, [r3, #24]
 632              	.LVL44:
 633              	.LBB61:
 634              	.LBB59:
 635              		.loc 2 62 0
 636 0006 0268     		ldr	r2, [r0, #0]
 637              	.LBE59:
 638              	.LBE61:
 639              		.loc 1 329 0
 640 0008 70B4     		push	{r4, r5, r6}
 641              	.LCFI6:
 642              		.cfi_def_cfa_offset 12
 643              		.cfi_offset 4, -12
 644              		.cfi_offset 5, -8
 645              		.cfi_offset 6, -4
 646              		.loc 1 335 0
 647 000a 0126     		movs	r6, #1
 648              		.loc 1 337 0
 649 000c 0025     		movs	r5, #0
 650              	.LBB62:
 651              	.LBB60:
 652              		.loc 2 62 0
 653 000e 5360     		str	r3, [r2, #4]
 654 0010 8C68     		ldr	r4, [r1, #8]
 655 0012 1A60     		str	r2, [r3, #0]
 656              	.LBE60:
 657              	.LBE62:
 658              		.loc 1 335 0
 659 0014 0677     		strb	r6, [r0, #28]
 660              		.loc 1 334 0
 661 0016 9861     		str	r0, [r3, #24]
 662              		.loc 1 337 0
 663 0018 0D77     		strb	r5, [r1, #28]
 664              	.LVL45:
 665 001a 0346     		mov	r3, r0
 666 001c 00E0     		b	.L48
 667              	.LVL46:
 668              	.L49:
 669 001e 1B68     		ldr	r3, [r3, #0]
 670              	.LVL47:
 671              	.L48:
 672              		.loc 1 341 0 discriminator 1
 673 0020 9A68     		ldr	r2, [r3, #8]
 674 0022 A242     		cmp	r2, r4
 675 0024 FBD8     		bhi	.L49
 676              		.loc 1 344 0
 677 0026 5A68     		ldr	r2, [r3, #4]
 678              		.loc 1 343 0
 679 0028 0B60     		str	r3, [r1, #0]
 680              		.loc 1 344 0
 681 002a 4A60     		str	r2, [r1, #4]
ARM GAS  /tmp/ccBIkE9l.s 			page 13


 682              		.loc 1 345 0
 683 002c 1160     		str	r1, [r2, #0]
 684 002e 5960     		str	r1, [r3, #4]
 685              		.loc 1 348 0
 686 0030 70BC     		pop	{r4, r5, r6}
 687              		.loc 1 347 0
 688 0032 FFF7FEBF 		b	_port_switch
 689              	.LVL48:
 690              	.L51:
 691 0036 00BF     		.align	2
 692              	.L50:
 693 0038 00000000 		.word	.LANCHOR0
 694              		.cfi_endproc
 695              	.LFE15:
 696              		.size	chSchDoRescheduleAhead, .-chSchDoRescheduleAhead
 697 003c AFF30080 		.section	.text.chSchRescheduleS,"ax",%progbits
 698              		.align	2
 699              		.p2align 4,,15
 700              		.global	chSchRescheduleS
 701              		.thumb
 702              		.thumb_func
 703              		.type	chSchRescheduleS, %function
 704              	chSchRescheduleS:
 705              	.LFB13:
 706              		.loc 1 253 0
 707              		.cfi_startproc
 708              		@ args = 0, pretend = 0, frame = 0
 709              		@ frame_needed = 0, uses_anonymous_args = 0
 710              		@ link register save eliminated.
 711              		.loc 1 257 0
 712 0000 044B     		ldr	r3, .L55
 713 0002 1A68     		ldr	r2, [r3, #0]
 714 0004 9B69     		ldr	r3, [r3, #24]
 715 0006 9268     		ldr	r2, [r2, #8]
 716 0008 9B68     		ldr	r3, [r3, #8]
 717 000a 9A42     		cmp	r2, r3
 718 000c 00D8     		bhi	.L54
 719 000e 7047     		bx	lr
 720              	.L54:
 721              		.loc 1 259 0
 722              		.loc 1 258 0
 723 0010 FFF7FEBF 		b	chSchDoRescheduleAhead
 724              	.LVL49:
 725              	.L56:
 726              		.align	2
 727              	.L55:
 728 0014 00000000 		.word	.LANCHOR0
 729              		.cfi_endproc
 730              	.LFE13:
 731              		.size	chSchRescheduleS, .-chSchRescheduleS
 732 0018 AFF30080 		.section	.text.chSchDoReschedule,"ax",%progbits
 732      AFF30080 
 733              		.align	2
 734              		.p2align 4,,15
 735              		.global	chSchDoReschedule
 736              		.thumb
 737              		.thumb_func
ARM GAS  /tmp/ccBIkE9l.s 			page 14


 738              		.type	chSchDoReschedule, %function
 739              	chSchDoReschedule:
 740              	.LFB16:
 741              		.loc 1 362 0
 742              		.cfi_startproc
 743              		@ args = 0, pretend = 0, frame = 0
 744              		@ frame_needed = 0, uses_anonymous_args = 0
 745              		@ link register save eliminated.
 746              		.loc 1 367 0
 747 0000 034B     		ldr	r3, .L60
 748 0002 9B69     		ldr	r3, [r3, #24]
 749 0004 DB7F     		ldrb	r3, [r3, #31]	@ zero_extendqisi2
 750 0006 0BB1     		cbz	r3, .L59
 751              		.loc 1 382 0
 752              		.loc 1 375 0
 753 0008 FFF7FEBF 		b	chSchDoRescheduleAhead
 754              	.LVL50:
 755              	.L59:
 756              		.loc 1 382 0
 757              		.loc 1 370 0
 758 000c FFF7FEBF 		b	chSchDoRescheduleBehind
 759              	.LVL51:
 760              	.L61:
 761              		.align	2
 762              	.L60:
 763 0010 00000000 		.word	.LANCHOR0
 764              		.cfi_endproc
 765              	.LFE16:
 766              		.size	chSchDoReschedule, .-chSchDoReschedule
 767              		.global	rlist
 768 0014 AFF30080 		.section	.bss.rlist,"aw",%nobits
 768      AFF30080 
 768      AFF30080 
 769              		.align	2
 770              		.set	.LANCHOR0,. + 0
 771              		.type	rlist, %object
 772              		.size	rlist, 28
 773              	rlist:
 774 0000 00000000 		.space	28
 774      00000000 
 774      00000000 
 774      00000000 
 774      00000000 
 775              		.text
 776              	.Letext0:
 777              		.file 3 "/opt/tools_arm/lib/gcc/arm-none-eabi/4.7.3/../../../../arm-none-eabi/include/stdint.h"
 778              		.file 4 "/home/felix/Documents/ChibiOS/os/ports/GCC/ARMCMx/chtypes.h"
 779              		.file 5 "/home/felix/Documents/ChibiOS/os/kernel/include/chlists.h"
 780              		.file 6 "/home/felix/Documents/ChibiOS/os/kernel/include/chthreads.h"
 781              		.file 7 "/home/felix/Documents/ChibiOS/os/ports/GCC/ARMCMx/chcore_v7m.h"
 782              		.file 8 "/home/felix/Documents/ChibiOS/os/kernel/include/chvt.h"
 783              		.file 9 "/home/felix/Documents/ChibiOS/os/kernel/include/chschd.h"
 784              		.file 10 "/home/felix/Documents/ChibiOS/os/kernel/include/chsem.h"
 785              		.file 11 "/home/felix/Documents/ChibiOS/os/kernel/include/chmtx.h"