ARM GAS  /tmp/ccRSxe19.s 			page 1


   1              		.syntax unified
   2              		.cpu cortex-m4
   3              		.fpu softvfp
   4              		.eabi_attribute 20, 1
   5              		.eabi_attribute 21, 1
   6              		.eabi_attribute 23, 3
   7              		.eabi_attribute 24, 1
   8              		.eabi_attribute 25, 1
   9              		.eabi_attribute 26, 1
  10              		.eabi_attribute 30, 2
  11              		.eabi_attribute 34, 1
  12              		.eabi_attribute 18, 4
  13              		.thumb
  14              		.file	"chsys.c"
  15              		.text
  16              	.Ltext0:
  17              		.cfi_sections	.debug_frame
  18              		.section	.text._idle_thread,"ax",%progbits
  19              		.align	2
  20              		.p2align 4,,15
  21              		.global	_idle_thread
  22              		.thumb
  23              		.thumb_func
  24              		.type	_idle_thread, %function
  25              	_idle_thread:
  26              	.LFB7:
  27              		.file 1 "/home/felix/Documents/ChibiOS/os/kernel/src/chsys.c"
  28              		.loc 1 61 0
  29              		.cfi_startproc
  30              		@ args = 0, pretend = 0, frame = 0
  31              		@ frame_needed = 0, uses_anonymous_args = 0
  32              		@ link register save eliminated.
  33              	.LVL0:
  34              		.loc 1 64 0
  35 0000 024B     		ldr	r3, .L4
  36 0002 034A     		ldr	r2, .L4+4
  37 0004 9B69     		ldr	r3, [r3, #24]
  38 0006 9A61     		str	r2, [r3, #24]
  39              	.L2:
  40 0008 FEE7     		b	.L2
  41              	.L5:
  42 000a 00BF     		.align	2
  43              	.L4:
  44 000c 00000000 		.word	rlist
  45 0010 00000000 		.word	.LC0
  46              		.cfi_endproc
  47              	.LFE7:
  48              		.size	_idle_thread, .-_idle_thread
  49 0014 AFF30080 		.section	.text.chSysInit,"ax",%progbits
  49      AFF30080 
  49      AFF30080 
  50              		.align	2
  51              		.p2align 4,,15
  52              		.global	chSysInit
  53              		.thumb
  54              		.thumb_func
  55              		.type	chSysInit, %function
ARM GAS  /tmp/ccRSxe19.s 			page 2


  56              	chSysInit:
  57              	.LFB8:
  58              		.loc 1 84 0
  59              		.cfi_startproc
  60              		@ args = 0, pretend = 0, frame = 0
  61              		@ frame_needed = 0, uses_anonymous_args = 0
  62 0000 30B5     		push	{r4, r5, lr}
  63              	.LCFI0:
  64              		.cfi_def_cfa_offset 12
  65              		.cfi_offset 4, -12
  66              		.cfi_offset 5, -8
  67              		.cfi_offset 14, -4
  68 0002 83B0     		sub	sp, sp, #12
  69              	.LCFI1:
  70              		.cfi_def_cfa_offset 24
  71              		.loc 1 90 0
  72 0004 FFF7FEFF 		bl	_port_init
  73              	.LVL1:
  74              		.loc 1 91 0
  75 0008 FFF7FEFF 		bl	_scheduler_init
  76              	.LVL2:
  77              		.loc 1 92 0
  78 000c FFF7FEFF 		bl	_vt_init
  79              	.LVL3:
  80              		.loc 1 94 0
  81 0010 FFF7FEFF 		bl	_core_init
  82              	.LVL4:
  83              		.loc 1 97 0
  84 0014 FFF7FEFF 		bl	_heap_init
  85              	.LVL5:
  86              		.loc 1 104 0
  87 0018 40F20000 		movw	r0, #:lower16:.LANCHOR0
  88 001c 4021     		movs	r1, #64
  89 001e C0F20000 		movt	r0, #:upper16:.LANCHOR0
  90 0022 FFF7FEFF 		bl	_thread_init
  91              	.LVL6:
  92 0026 40F20001 		movw	r1, #:lower16:rlist
  93 002a C0F20001 		movt	r1, #:upper16:rlist
  94              		.loc 1 105 0
  95 002e 0122     		movs	r2, #1
  96              		.loc 1 104 0
  97 0030 8861     		str	r0, [r1, #24]
  98              		.loc 1 105 0
  99 0032 0277     		strb	r2, [r0, #28]
 100              	.LBB2:
 101              		.loc 1 111 0
 102 0034 0023     		movs	r3, #0
 103              	.LVL7:
 104              	@ 111 "/home/felix/Documents/ChibiOS/os/kernel/src/chsys.c" 1
 105 0036 83F31188 		msr     BASEPRI, r3                    
 106 003a 62B6     		cpsie   i
 107              	@ 0 "" 2
 108              	.LVL8:
 109              		.thumb
 110              	.LBE2:
 111              		.loc 1 115 0
 112 003c 40F20005 		movw	r5, #:lower16:ch_debug
ARM GAS  /tmp/ccRSxe19.s 			page 3


 113 0040 8C69     		ldr	r4, [r1, #24]
 114 0042 C0F20005 		movt	r5, #:upper16:ch_debug
 115              		.loc 1 121 0
 116 0046 40F20001 		movw	r1, #:lower16:_idle_thread
 117              		.loc 1 115 0
 118 004a A561     		str	r5, [r4, #24]
 119              		.loc 1 121 0
 120 004c 40F20000 		movw	r0, #:lower16:.LANCHOR1
 121 0050 0093     		str	r3, [sp, #0]
 122 0052 0B46     		mov	r3, r1
 123              	.LVL9:
 124 0054 C0F20003 		movt	r3, #:upper16:_idle_thread
 125 0058 C021     		movs	r1, #192
 126 005a C0F20000 		movt	r0, #:upper16:.LANCHOR1
 127 005e FFF7FEFF 		bl	chThdCreateStatic
 128              	.LVL10:
 129              		.loc 1 124 0
 130 0062 03B0     		add	sp, sp, #12
 131 0064 30BD     		pop	{r4, r5, pc}
 132              		.cfi_endproc
 133              	.LFE8:
 134              		.size	chSysInit, .-chSysInit
 135 0066 00BFAFF3 		.section	.text.chSysTimerHandlerI,"ax",%progbits
 135      0080AFF3 
 135      0080
 136              		.align	2
 137              		.p2align 4,,15
 138              		.global	chSysTimerHandlerI
 139              		.thumb
 140              		.thumb_func
 141              		.type	chSysTimerHandlerI, %function
 142              	chSysTimerHandlerI:
 143              	.LFB9:
 144              		.loc 1 137 0
 145              		.cfi_startproc
 146              		@ args = 0, pretend = 0, frame = 0
 147              		@ frame_needed = 0, uses_anonymous_args = 0
 148 0000 38B5     		push	{r3, r4, r5, lr}
 149              	.LCFI2:
 150              		.cfi_def_cfa_offset 16
 151              		.cfi_offset 3, -16
 152              		.cfi_offset 4, -12
 153              		.cfi_offset 5, -8
 154              		.cfi_offset 14, -4
 155              		.loc 1 143 0
 156 0002 134B     		ldr	r3, .L20
 157 0004 9B69     		ldr	r3, [r3, #24]
 158 0006 DA7F     		ldrb	r2, [r3, #31]	@ zero_extendqisi2
 159 0008 0AB1     		cbz	r2, .L8
 160              		.loc 1 145 0
 161 000a 013A     		subs	r2, r2, #1
 162 000c DA77     		strb	r2, [r3, #31]
 163              	.L8:
 164              		.loc 1 148 0
 165 000e 1A6A     		ldr	r2, [r3, #32]
 166              		.loc 1 150 0
 167 0010 104C     		ldr	r4, .L20+4
ARM GAS  /tmp/ccRSxe19.s 			page 4


 168              		.loc 1 148 0
 169 0012 0132     		adds	r2, r2, #1
 170 0014 1A62     		str	r2, [r3, #32]
 171              		.loc 1 150 0
 172 0016 E368     		ldr	r3, [r4, #12]
 173 0018 2268     		ldr	r2, [r4, #0]
 174 001a 0133     		adds	r3, r3, #1
 175 001c A242     		cmp	r2, r4
 176 001e E360     		str	r3, [r4, #12]
 177 0020 14D0     		beq	.L7
 178              	.LBB3:
 179              		.loc 1 150 0 is_stmt 0 discriminator 1
 180 0022 9568     		ldr	r5, [r2, #8]
 181 0024 013D     		subs	r5, r5, #1
 182 0026 9560     		str	r5, [r2, #8]
 183              	.LVL11:
 184 0028 85B9     		cbnz	r5, .L7
 185              	.L16:
 186              	.LBB4:
 187              		.loc 1 150 0 discriminator 3
 188 002a 1368     		ldr	r3, [r2, #0]
 189 002c D168     		ldr	r1, [r2, #12]
 190              	.LVL12:
 191 002e 5C60     		str	r4, [r3, #4]
 192 0030 2360     		str	r3, [r4, #0]
 193 0032 D560     		str	r5, [r2, #12]
 194              	.LBB5:
 195 0034 0023     		movs	r3, #0
 196              	.LVL13:
 197              	@ 150 "/home/felix/Documents/ChibiOS/os/kernel/src/chsys.c" 1
 198 0036 83F31188 		msr     BASEPRI, r3
 199              	@ 0 "" 2
 200              	.LVL14:
 201              		.thumb
 202              	.LBE5:
 203 003a 1069     		ldr	r0, [r2, #16]
 204 003c 8847     		blx	r1
 205              	.LVL15:
 206              	.LBB6:
 207 003e 2023     		movs	r3, #32
 208              	.LVL16:
 209              	@ 150 "/home/felix/Documents/ChibiOS/os/kernel/src/chsys.c" 1
 210 0040 83F31188 		msr     BASEPRI, r3
 211              	@ 0 "" 2
 212              	.LVL17:
 213              		.thumb
 214              	.LBE6:
 215              	.LBE4:
 216 0044 2268     		ldr	r2, [r4, #0]
 217              	.LVL18:
 218 0046 9368     		ldr	r3, [r2, #8]
 219              	.LVL19:
 220 0048 002B     		cmp	r3, #0
 221 004a EED0     		beq	.L16
 222              	.LVL20:
 223              	.L7:
 224 004c 38BD     		pop	{r3, r4, r5, pc}
ARM GAS  /tmp/ccRSxe19.s 			page 5


 225              	.L21:
 226 004e 00BF     		.align	2
 227              	.L20:
 228 0050 00000000 		.word	rlist
 229 0054 00000000 		.word	vtlist
 230              	.LBE3:
 231              		.cfi_endproc
 232              	.LFE9:
 233              		.size	chSysTimerHandlerI, .-chSysTimerHandlerI
 234              		.global	_idle_thread_wa
 235 0058 AFF30080 		.section	.bss.mainthread.4772,"aw",%nobits
 235      AFF30080 
 236              		.align	2
 237              		.set	.LANCHOR0,. + 0
 238              		.type	mainthread.4772, %object
 239              		.size	mainthread.4772, 72
 240              	mainthread.4772:
 241 0000 00000000 		.space	72
 241      00000000 
 241      00000000 
 241      00000000 
 241      00000000 
 242              		.section	.rodata.str1.4,"aMS",%progbits,1
 243              		.align	2
 244              	.LC0:
 245 0000 69646C65 		.ascii	"idle\000"
 245      00
 246 0005 000000   		.section	.bss._idle_thread_wa,"aw",%nobits
 247              		.align	3
 248              		.set	.LANCHOR1,. + 0
 249              		.type	_idle_thread_wa, %object
 250              		.size	_idle_thread_wa, 192
 251              	_idle_thread_wa:
 252 0000 00000000 		.space	192
 252      00000000 
 252      00000000 
 252      00000000 
 252      00000000 
 253              		.text
 254              	.Letext0:
 255              		.file 2 "/opt/tools_arm/lib/gcc/arm-none-eabi/4.7.3/include/stddef.h"
 256              		.file 3 "/opt/tools_arm/lib/gcc/arm-none-eabi/4.7.3/../../../../arm-none-eabi/include/stdint.h"
 257              		.file 4 "/home/felix/Documents/ChibiOS/os/ports/GCC/ARMCMx/chtypes.h"
 258              		.file 5 "/home/felix/Documents/ChibiOS/os/kernel/include/chlists.h"
 259              		.file 6 "/home/felix/Documents/ChibiOS/os/kernel/include/chthreads.h"
 260              		.file 7 "/home/felix/Documents/ChibiOS/os/ports/GCC/ARMCMx/chcore_v7m.h"
 261              		.file 8 "/home/felix/Documents/ChibiOS/os/kernel/include/chvt.h"
 262              		.file 9 "/home/felix/Documents/ChibiOS/os/kernel/include/chschd.h"
 263              		.file 10 "/home/felix/Documents/ChibiOS/os/kernel/include/chmtx.h"
 264              		.file 11 "/home/felix/Documents/ChibiOS/os/kernel/include/chregistry.h"
 265              		.file 12 "/home/felix/Documents/ChibiOS/os/kernel/include/chmemcore.h"
 266              		.file 13 "/home/felix/Documents/ChibiOS/os/kernel/include/chheap.h"