ARM GAS  /tmp/ccRSxe19.s 			page 1


   1              		.syntax unified
   2              		.cpu cortex-m4
   3              		.fpu softvfp
   4              		.eabi_attribute 20, 1
   5              		.eabi_attribute 21, 1
   6              		.eabi_attribute 23, 3
   7              		.eabi_attribute 24, 1
   8              		.eabi_attribute 25, 1
   9              		.eabi_attribute 26, 1
  10              		.eabi_attribute 30, 2
  11              		.eabi_attribute 34, 1
  12              		.eabi_attribute 18, 4
  13              		.thumb
  14              		.file	"chsys.c"
  15              		.text
  16              	.Ltext0:
  17              		.cfi_sections	.debug_frame
  18              		.section	.text._idle_thread,"ax",%progbits
  19              		.align	2
  20              		.p2align 4,,15
  21              		.global	_idle_thread
  22              		.thumb
  23              		.thumb_func
  24              		.type	_idle_thread, %function
  25              	_idle_thread:
  26              	.LFB7:
  27              		.file 1 "/home/felix/Documents/ChibiOS/os/kernel/src/chsys.c"
  28              		.loc 1 61 0
  29              		.cfi_startproc
  30              		@ args = 0, pretend = 0, frame = 0
  31              		@ frame_needed = 0, uses_anonymous_args = 0
  32              		@ link register save eliminated.
  33              	.LVL0:
  34              		.loc 1 64 0
  35 0000 024B     		ldr	r3, .L4
  36 0002 034A     		ldr	r2, .L4+4
  37 0004 9B69     		ldr	r3, [r3, #24]
  38 0006 9A61     		str	r2, [r3, #24]
  39              	.L2:
  40 0008 FEE7     		b	.L2
  41              	.L5:
  42 000a 00BF     		.align	2
  43              	.L4:
  44 000c 00000000 		.word	rlist
  45 0010 00000000 		.word	.LC0
  46              		.cfi_endproc
  47              	.LFE7:
  48              		.size	_idle_thread, .-_idle_thread
  49 0014 AFF30080 		.section	.text.chSysInit,"ax",%progbits
  49      AFF30080 
  49      AFF30080 
  50              		.align	2
  51              		.p2align 4,,15
  52              		.global	chSysInit
  53              		.thumb
  54              		.thumb_func
  55              		.type	chSysInit, %function
ARM GAS  /tmp/ccRSxe19.s 			page 2


  56              	chSysInit:
  57              	.LFB8:
  58              		.loc 1 84 0
  59              		.cfi_startproc
  60              		@ args = 0, pretend = 0, frame = 0
  61              		@ frame_needed = 0, uses_anonymous_args = 0
  62 0000 30B5     		push	{r4, r5, lr}
  63              	.LCFI0:
  64              		.cfi_def_cfa_offset 12
  65              		.cfi_offset 4, -12
  66              		.cfi_offset 5, -8
  67              		.cfi_offset 14, -4
  68 0002 83B0     		sub	sp, sp, #12
  69              	.LCFI1:
  70              		.cfi_def_cfa_offset 24
  71              		.loc 1 90 0
  72 0004 FFF7FEFF 		bl	_port_init
  73              	.LVL1:
  74              		.loc 1 91 0
  75 0008 FFF7FEFF 		bl	_scheduler_init
  76              	.LVL2:
  77              		.loc 1 92 0
  78 000c FFF7FEFF 		bl	_vt_init
  79              	.LVL3:
  80              		.loc 1 94 0
  81 0010 FFF7FEFF 		bl	_core_init
  82              	.LVL4:
  83              		.loc 1 97 0
  84 0014 FFF7FEFF 		bl	_heap_init
  85              	.LVL5:
  86              		.loc 1 104 0
  87 0018 40F20000 		movw	r0, #:lower16:.LANCHOR0
  88 001c 4021     		movs	r1, #64
  89 001e C0F20000 		movt	r0, #:upper16:.LANCHOR0
  90 0022 FFF7FEFF 		bl	_thread_init
  91              	.LVL6:
  92 0026 40F20001 		movw	r1, #:lower16:rlist
  93 002a C0F20001 		movt	r1, #:upper16:rlist
  94              		.loc 1 105 0
  95 002e 0122     		movs	r2, #1
  96              		.loc 1 104 0
  97 0030 8861     		str	r0, [r1, #24]
  98              		.loc 1 105 0
  99 0032 0277     		strb	r2, [r0, #28]
 100              	.LBB2:
 101              		.loc 1 111 0
 102 0034 0023     		movs	r3, #0
 103              	.LVL7:
 104              	@ 111 "/home/felix/Documents/ChibiOS/os/kernel/src/chsys.c" 1
 105 0036 83F31188 		msr     BASEPRI, r3                    
 106 003a 62B6     		cpsie   i
 107              	@ 0 "" 2
 108              	.LVL8:
 109              		.thumb
 110              	.LBE2:
 111              		.loc 1 115 0
 112 003c 40F20005 		movw	r5, #:lower16:ch_debug
ARM GAS  /tmp/ccRSxe19.s 			page 3


 113 0040 8C69     		ldr	r4, [r1, #24]
 114 0042 C0F20005 		movt	r5, #:upper16:ch_debug
 115              		.loc 1 121 0
 116 0046 40F20001 		movw	r1, #:lower16:_idle_thread
 117              		.loc 1 115 0
 118 004a A561     		str	r5, [r4, #24]
 119              		.loc 1 121 0
 120 004c 40F20000 		movw	r0, #:lower16:.LANCHOR1
 121 0050 0093     		str	r3, [sp, #0]
 122 0052 0B46     		mov	r3, r1
 123              	.LVL9:
 124 0054 C0F20003 		movt	r3, #:upper16:_idle_thread
 125 0058 C021     		movs	r1, #192
 126 005a C0F20000 		movt	r0, #:upper16:.LANCHOR1
 127 005e FFF7FEFF 		bl	chThdCreateStatic
 128              	.LVL10:
 129              		.loc 1 124 0
 130 0062 03B0     		add	sp, sp, #12
 131 0064 30BD     		pop	{r4, r5, pc}
 132              		.cfi_endproc
 133              	.LFE8:
 134              		.size	chSysInit, .-chSysInit
 135 0066 00BFAFF3 		.section	.text.chSysTimerHandlerI,"ax",%progbits
 135      0080AFF3 
 135      0080
 136              		.align	2
 137              		.p2align 4,,15
 138              		.global	chSysTimerHandlerI
 139              		.thumb
 140              		.thumb_func
 141              		.type	chSysTimerHandlerI, %function
 142              	chSysTimerHandlerI:
 143              	.LFB9:
 144              		.loc 1 137 0
 145              		.cfi_startproc
 146              		@ args = 0, pretend = 0, frame = 0
 147              		@ frame_needed = 0, uses_anonymous_args = 0
 148 0000 38B5     		push	{r3, r4, r5, lr}
 149              	.LCFI2:
 150              		.cfi_def_cfa_offset 16
 151              		.cfi_offset 3, -16
 152              		.cfi_offset 4, -12
 153              		.cfi_offset 5, -8
 154              		.cfi_offset 14, -4
 155              		.loc 1 143 0
 156 0002 134B     		ldr	r3, .L20
 157 0004 9B69     		ldr	r3, [r3, #24]
 158 0006 DA7F     		ldrb	r2, [r3, #31]	@ zero_extendqisi2
 159 0008 0AB1     		cbz	r2, .L8
 160              		.loc 1 145 0
 161 000a 013A     		subs	r2, r2, #1
 162 000c DA77     		strb	r2, [r3, #31]
 163              	.L8:
 164              		.loc 1 148 0
 165 000e 1A6A     		ldr	r2, [r3, #32]
 166              		.loc 1 150 0
 167 0010 104C     		ldr	r4, .L20+4
ARM GAS  /tmp/ccRSxe19.s 			page 4


 168              		.loc 1 148 0
 169 0012 0132     		adds	r2, r2, #1
 170 0014 1A62     		str	r2, [r3, #32]
 171              		.loc 1 150 0
 172 0016 E368     		ldr	r3, [r4, #12]
 173 0018 2268     		ldr	r2, [r4, #0]
 174 001a 0133     		adds	r3, r3, #1
 175 001c A242     		cmp	r2, r4
 176 001e E360     		str	r3, [r4, #12]
 177 0020 14D0     		beq	.L7
 178              	.LBB3:
 179              		.loc 1 150 0 is_stmt 0 discriminator 1
 180 0022 9568     		ldr	r5, [r2, #8]
 181 0024 013D     		subs	r5, r5, #1
 182 0026 9560     		str	r5, [r2, #8]
 183              	.LVL11:
 184 0028 85B9     		cbnz	r5, .L7
 185              	.L16:
 186              	.LBB4:
 187              		.loc 1 150 0 discriminator 3
 188 002a 1368     		ldr	r3, [r2, #0]
 189 002c D168     		ldr	r1, [r2, #12]
 190              	.LVL12:
 191 002e 5C60     		str	r4, [r3, #4]
 192 0030 2360     		str	r3, [r4, #0]
 193 0032 D560     		str	r5, [r2, #12]
 194              	.LBB5:
 195 0034 0023     		movs	r3, #0
 196              	.LVL13:
 197              	@ 150 "/home/felix/Documents/ChibiOS/os/kernel/src/chsys.c" 1
 198 0036 83F31188 		msr     BASEPRI, r3
 199              	@ 0 "" 2
 200              	.LVL14:
 201              		.thumb
 202              	.LBE5:
 203 003a 1069     		ldr	r0, [r2, #16]
 204 003c 8847     		blx	r1
 205              	.LVL15:
 206              	.LBB6:
 207 003e 2023     		movs	r3, #32
 208              	.LVL16:
 209              	@ 150 "/home/felix/Documents/ChibiOS/os/kernel/src/chsys.c" 1
 210 0040 83F31188 		msr     BASEPRI, r3
 211              	@ 0 "" 2
 212              	.LVL17:
 213              		.thumb
 214              	.LBE6:
 215              	.LBE4:
 216 0044 2268     		ldr	r2, [r4, #0]
 217              	.LVL18:
 218 0046 9368     		ldr	r3, [r2, #8]
 219              	.LVL19:
 220 0048 002B     		cmp	r3, #0
 221 004a EED0     		beq	.L16
 222              	.LVL20:
 223              	.L7:
 224 004c 38BD     		pop	{r3, r4, r5, pc}
ARM GAS  /tmp/ccRSxe19.s 			page 5


 225              	.L21:
 226 004e 00BF     		.align	2
 227              	.L20:
 228 0050 00000000 		.word	rlist
 229 0054 00000000 		.word	vtlist
 230              	.LBE3:
 231              		.cfi_endproc
 232              	.LFE9:
 233              		.size	chSysTimerHandlerI, .-chSysTimerHandlerI
 234              		.global	_idle_thread_wa
 235 0058 AFF30080 		.section	.bss.mainthread.4772,"aw",%nobits
 235      AFF30080 
 236              		.align	2
 237              		.set	.LANCHOR0,. + 0
 238              		.type	mainthread.4772, %object
 239              		.size	mainthread.4772, 72
 240              	mainthread.4772:
 241 0000 00000000 		.space	72
 241      00000000 
 241      00000000 
 241      00000000 
 241      00000000 
 242              		.section	.rodata.str1.4,"aMS",%progbits,1
 243              		.align	2
 244              	.LC0:
 245 0000 69646C65 		.ascii	"idle\000"
 245      00
 246 0005 000000   		.section	.bss._idle_thread_wa,"aw",%nobits
 247              		.align	3
 248              		.set	.LANCHOR1,. + 0
 249              		.type	_idle_thread_wa, %object
 250              		.size	_idle_thread_wa, 192
 251              	_idle_thread_wa:
 252 0000 00000000 		.space	192
 252      00000000 
 252      00000000 
 252      00000000 
 252      00000000 
 253              		.text
 254              	.Letext0:
 255              		.file 2 "/opt/tools_arm/lib/gcc/arm-none-eabi/4.7.3/include/stddef.h"
 256              		.file 3 "/opt/tools_arm/lib/gcc/arm-none-eabi/4.7.3/../../../../arm-none-eabi/include/stdint.h"
 257              		.file 4 "/home/felix/Documents/ChibiOS/os/ports/GCC/ARMCMx/chtypes.h"
 258              		.file 5 "/home/felix/Documents/ChibiOS/os/kernel/include/chlists.h"
 259              		.file 6 "/home/felix/Documents/ChibiOS/os/kernel/include/chthreads.h"
 260              		.file 7 "/home/felix/Documents/ChibiOS/os/ports/GCC/ARMCMx/chcore_v7m.h"
 261              		.file 8 "/home/felix/Documents/ChibiOS/os/kernel/include/chvt.h"
 262              		.file 9 "/home/felix/Documents/ChibiOS/os/kernel/include/chschd.h"
 263              		.file 10 "/home/felix/Documents/ChibiOS/os/kernel/include/chmtx.h"
 264              		.file 11 "/home/felix/Documents/ChibiOS/os/kernel/include/chregistry.h"
 265              		.file 12 "/home/felix/Documents/ChibiOS/os/kernel/include/chmemcore.h"
 266              		.file 13 "/home/felix/Documents/ChibiOS/os/kernel/include/chheap.h"
 267              		.section	.debug_info,"",%progbits
 268              	.Ldebug_info0:
 269 0000 A0080000 		.4byte	0x8a0
 270 0004 0200     		.2byte	0x2
 271 0006 00000000 		.4byte	.Ldebug_abbrev0
ARM GAS  /tmp/ccRSxe19.s 			page 6


 272 000a 04       		.byte	0x4
 273 000b 01       		.uleb128 0x1
 274 000c 3C040000 		.4byte	.LASF109
 275 0010 01       		.byte	0x1
 276 0011 56030000 		.4byte	.LASF110
 277 0015 00000000 		.4byte	.Ldebug_ranges0+0
 278 0019 00000000 		.4byte	0
 279 001d 00000000 		.4byte	0
 280 0021 00000000 		.4byte	.Ldebug_line0
 281 0025 02       		.uleb128 0x2
 282 0026 04       		.byte	0x4
 283 0027 05       		.byte	0x5
 284 0028 696E7400 		.ascii	"int\000"
 285 002c 03       		.uleb128 0x3
 286 002d 1B000000 		.4byte	.LASF2
 287 0031 02       		.byte	0x2
 288 0032 D5       		.byte	0xd5
 289 0033 37000000 		.4byte	0x37
 290 0037 04       		.uleb128 0x4
 291 0038 04       		.byte	0x4
 292 0039 07       		.byte	0x7
 293 003a 65010000 		.4byte	.LASF0
 294 003e 04       		.uleb128 0x4
 295 003f 01       		.byte	0x1
 296 0040 06       		.byte	0x6
 297 0041 B7000000 		.4byte	.LASF1
 298 0045 03       		.uleb128 0x3
 299 0046 34040000 		.4byte	.LASF3
 300 004a 03       		.byte	0x3
 301 004b 2A       		.byte	0x2a
 302 004c 50000000 		.4byte	0x50
 303 0050 04       		.uleb128 0x4
 304 0051 01       		.byte	0x1
 305 0052 08       		.byte	0x8
 306 0053 CB020000 		.4byte	.LASF4
 307 0057 04       		.uleb128 0x4
 308 0058 02       		.byte	0x2
 309 0059 05       		.byte	0x5
 310 005a EE020000 		.4byte	.LASF5
 311 005e 03       		.uleb128 0x3
 312 005f 0C010000 		.4byte	.LASF6
 313 0063 03       		.byte	0x3
 314 0064 36       		.byte	0x36
 315 0065 69000000 		.4byte	0x69
 316 0069 04       		.uleb128 0x4
 317 006a 02       		.byte	0x2
 318 006b 07       		.byte	0x7
 319 006c B8010000 		.4byte	.LASF7
 320 0070 03       		.uleb128 0x3
 321 0071 C3020000 		.4byte	.LASF8
 322 0075 03       		.byte	0x3
 323 0076 4F       		.byte	0x4f
 324 0077 7B000000 		.4byte	0x7b
 325 007b 04       		.uleb128 0x4
 326 007c 04       		.byte	0x4
 327 007d 05       		.byte	0x5
 328 007e FA000000 		.4byte	.LASF9
ARM GAS  /tmp/ccRSxe19.s 			page 7


 329 0082 03       		.uleb128 0x3
 330 0083 95030000 		.4byte	.LASF10
 331 0087 03       		.byte	0x3
 332 0088 50       		.byte	0x50
 333 0089 8D000000 		.4byte	0x8d
 334 008d 04       		.uleb128 0x4
 335 008e 04       		.byte	0x4
 336 008f 07       		.byte	0x7
 337 0090 87010000 		.4byte	.LASF11
 338 0094 04       		.uleb128 0x4
 339 0095 08       		.byte	0x8
 340 0096 05       		.byte	0x5
 341 0097 A9000000 		.4byte	.LASF12
 342 009b 03       		.uleb128 0x3
 343 009c 29000000 		.4byte	.LASF13
 344 00a0 03       		.byte	0x3
 345 00a1 78       		.byte	0x78
 346 00a2 A6000000 		.4byte	0xa6
 347 00a6 04       		.uleb128 0x4
 348 00a7 08       		.byte	0x8
 349 00a8 07       		.byte	0x7
 350 00a9 4C000000 		.4byte	.LASF14
 351 00ad 04       		.uleb128 0x4
 352 00ae 01       		.byte	0x1
 353 00af 02       		.byte	0x2
 354 00b0 BD020000 		.4byte	.LASF15
 355 00b4 03       		.uleb128 0x3
 356 00b5 D1010000 		.4byte	.LASF16
 357 00b9 04       		.byte	0x4
 358 00ba 2C       		.byte	0x2c
 359 00bb 45000000 		.4byte	0x45
 360 00bf 03       		.uleb128 0x3
 361 00c0 03010000 		.4byte	.LASF17
 362 00c4 04       		.byte	0x4
 363 00c5 2D       		.byte	0x2d
 364 00c6 45000000 		.4byte	0x45
 365 00ca 03       		.uleb128 0x3
 366 00cb 9B020000 		.4byte	.LASF18
 367 00cf 04       		.byte	0x4
 368 00d0 2E       		.byte	0x2e
 369 00d1 45000000 		.4byte	0x45
 370 00d5 03       		.uleb128 0x3
 371 00d6 F0000000 		.4byte	.LASF19
 372 00da 04       		.byte	0x4
 373 00db 2F       		.byte	0x2f
 374 00dc 45000000 		.4byte	0x45
 375 00e0 03       		.uleb128 0x3
 376 00e1 B5020000 		.4byte	.LASF20
 377 00e5 04       		.byte	0x4
 378 00e6 30       		.byte	0x30
 379 00e7 82000000 		.4byte	0x82
 380 00eb 03       		.uleb128 0x3
 381 00ec CB010000 		.4byte	.LASF21
 382 00f0 04       		.byte	0x4
 383 00f1 31       		.byte	0x31
 384 00f2 70000000 		.4byte	0x70
 385 00f6 03       		.uleb128 0x3
ARM GAS  /tmp/ccRSxe19.s 			page 8


 386 00f7 E5010000 		.4byte	.LASF22
 387 00fb 04       		.byte	0x4
 388 00fc 33       		.byte	0x33
 389 00fd 82000000 		.4byte	0x82
 390 0101 03       		.uleb128 0x3
 391 0102 CB030000 		.4byte	.LASF23
 392 0106 04       		.byte	0x4
 393 0107 35       		.byte	0x35
 394 0108 82000000 		.4byte	0x82
 395 010c 03       		.uleb128 0x3
 396 010d 42030000 		.4byte	.LASF24
 397 0111 05       		.byte	0x5
 398 0112 2A       		.byte	0x2a
 399 0113 17010000 		.4byte	0x117
 400 0117 05       		.uleb128 0x5
 401 0118 42030000 		.4byte	.LASF24
 402 011c 48       		.byte	0x48
 403 011d 06       		.byte	0x6
 404 011e 5E       		.byte	0x5e
 405 011f 3C020000 		.4byte	0x23c
 406 0123 06       		.uleb128 0x6
 407 0124 24030000 		.4byte	.LASF25
 408 0128 06       		.byte	0x6
 409 0129 5F       		.byte	0x5f
 410 012a 61020000 		.4byte	0x261
 411 012e 02       		.byte	0x2
 412 012f 23       		.byte	0x23
 413 0130 00       		.uleb128 0
 414 0131 06       		.uleb128 0x6
 415 0132 AE020000 		.4byte	.LASF26
 416 0136 06       		.byte	0x6
 417 0137 61       		.byte	0x61
 418 0138 61020000 		.4byte	0x261
 419 013c 02       		.byte	0x2
 420 013d 23       		.byte	0x23
 421 013e 04       		.uleb128 0x4
 422 013f 06       		.uleb128 0x6
 423 0140 85000000 		.4byte	.LASF27
 424 0144 06       		.byte	0x6
 425 0145 63       		.byte	0x63
 426 0146 E0000000 		.4byte	0xe0
 427 014a 02       		.byte	0x2
 428 014b 23       		.byte	0x23
 429 014c 08       		.uleb128 0x8
 430 014d 06       		.uleb128 0x6
 431 014e 9C040000 		.4byte	.LASF28
 432 0152 06       		.byte	0x6
 433 0153 64       		.byte	0x64
 434 0154 3A030000 		.4byte	0x33a
 435 0158 02       		.byte	0x2
 436 0159 23       		.byte	0x23
 437 015a 0C       		.uleb128 0xc
 438 015b 06       		.uleb128 0x6
 439 015c 1F010000 		.4byte	.LASF29
 440 0160 06       		.byte	0x6
 441 0161 66       		.byte	0x66
 442 0162 61020000 		.4byte	0x261
ARM GAS  /tmp/ccRSxe19.s 			page 9


 443 0166 02       		.byte	0x2
 444 0167 23       		.byte	0x23
 445 0168 10       		.uleb128 0x10
 446 0169 06       		.uleb128 0x6
 447 016a 59020000 		.4byte	.LASF30
 448 016e 06       		.byte	0x6
 449 016f 67       		.byte	0x67
 450 0170 61020000 		.4byte	0x261
 451 0174 02       		.byte	0x2
 452 0175 23       		.byte	0x23
 453 0176 14       		.uleb128 0x14
 454 0177 06       		.uleb128 0x6
 455 0178 70040000 		.4byte	.LASF31
 456 017c 06       		.byte	0x6
 457 017d 6E       		.byte	0x6e
 458 017e 1B050000 		.4byte	0x51b
 459 0182 02       		.byte	0x2
 460 0183 23       		.byte	0x23
 461 0184 18       		.uleb128 0x18
 462 0185 06       		.uleb128 0x6
 463 0186 F8020000 		.4byte	.LASF32
 464 018a 06       		.byte	0x6
 465 018b 79       		.byte	0x79
 466 018c BF000000 		.4byte	0xbf
 467 0190 02       		.byte	0x2
 468 0191 23       		.byte	0x23
 469 0192 1C       		.uleb128 0x1c
 470 0193 06       		.uleb128 0x6
 471 0194 3A030000 		.4byte	.LASF33
 472 0198 06       		.byte	0x6
 473 0199 7D       		.byte	0x7d
 474 019a B4000000 		.4byte	0xb4
 475 019e 02       		.byte	0x2
 476 019f 23       		.byte	0x23
 477 01a0 1D       		.uleb128 0x1d
 478 01a1 06       		.uleb128 0x6
 479 01a2 1D040000 		.4byte	.LASF34
 480 01a6 06       		.byte	0x6
 481 01a7 82       		.byte	0x82
 482 01a8 CA000000 		.4byte	0xca
 483 01ac 02       		.byte	0x2
 484 01ad 23       		.byte	0x23
 485 01ae 1E       		.uleb128 0x1e
 486 01af 06       		.uleb128 0x6
 487 01b0 00030000 		.4byte	.LASF35
 488 01b4 06       		.byte	0x6
 489 01b5 88       		.byte	0x88
 490 01b6 D5000000 		.4byte	0xd5
 491 01ba 02       		.byte	0x2
 492 01bb 23       		.byte	0x23
 493 01bc 1F       		.uleb128 0x1f
 494 01bd 06       		.uleb128 0x6
 495 01be F2030000 		.4byte	.LASF36
 496 01c2 06       		.byte	0x6
 497 01c3 8F       		.byte	0x8f
 498 01c4 26040000 		.4byte	0x426
 499 01c8 02       		.byte	0x2
ARM GAS  /tmp/ccRSxe19.s 			page 10


 500 01c9 23       		.byte	0x23
 501 01ca 20       		.uleb128 0x20
 502 01cb 07       		.uleb128 0x7
 503 01cc 705F7500 		.ascii	"p_u\000"
 504 01d0 06       		.byte	0x6
 505 01d1 B4       		.byte	0xb4
 506 01d2 E6040000 		.4byte	0x4e6
 507 01d6 02       		.byte	0x2
 508 01d7 23       		.byte	0x23
 509 01d8 24       		.uleb128 0x24
 510 01d9 06       		.uleb128 0x6
 511 01da A2040000 		.4byte	.LASF37
 512 01de 06       		.byte	0x6
 513 01df B9       		.byte	0xb9
 514 01e0 89020000 		.4byte	0x289
 515 01e4 02       		.byte	0x2
 516 01e5 23       		.byte	0x23
 517 01e6 28       		.uleb128 0x28
 518 01e7 06       		.uleb128 0x6
 519 01e8 00040000 		.4byte	.LASF38
 520 01ec 06       		.byte	0x6
 521 01ed BF       		.byte	0xbf
 522 01ee 67020000 		.4byte	0x267
 523 01f2 02       		.byte	0x2
 524 01f3 23       		.byte	0x23
 525 01f4 2C       		.uleb128 0x2c
 526 01f5 06       		.uleb128 0x6
 527 01f6 15000000 		.4byte	.LASF39
 528 01fa 06       		.byte	0x6
 529 01fb C3       		.byte	0xc3
 530 01fc EB000000 		.4byte	0xeb
 531 0200 02       		.byte	0x2
 532 0201 23       		.byte	0x23
 533 0202 34       		.uleb128 0x34
 534 0203 06       		.uleb128 0x6
 535 0204 8A030000 		.4byte	.LASF40
 536 0208 06       		.byte	0x6
 537 0209 C9       		.byte	0xc9
 538 020a F6000000 		.4byte	0xf6
 539 020e 02       		.byte	0x2
 540 020f 23       		.byte	0x23
 541 0210 38       		.uleb128 0x38
 542 0211 06       		.uleb128 0x6
 543 0212 E4020000 		.4byte	.LASF41
 544 0216 06       		.byte	0x6
 545 0217 D0       		.byte	0xd0
 546 0218 2D050000 		.4byte	0x52d
 547 021c 02       		.byte	0x2
 548 021d 23       		.byte	0x23
 549 021e 3C       		.uleb128 0x3c
 550 021f 06       		.uleb128 0x6
 551 0220 D5030000 		.4byte	.LASF42
 552 0224 06       		.byte	0x6
 553 0225 D4       		.byte	0xd4
 554 0226 E0000000 		.4byte	0xe0
 555 022a 02       		.byte	0x2
 556 022b 23       		.byte	0x23
ARM GAS  /tmp/ccRSxe19.s 			page 11


 557 022c 40       		.uleb128 0x40
 558 022d 06       		.uleb128 0x6
 559 022e E0000000 		.4byte	.LASF43
 560 0232 06       		.byte	0x6
 561 0233 DA       		.byte	0xda
 562 0234 9F020000 		.4byte	0x29f
 563 0238 02       		.byte	0x2
 564 0239 23       		.byte	0x23
 565 023a 44       		.uleb128 0x44
 566 023b 00       		.byte	0
 567 023c 08       		.uleb128 0x8
 568 023d 08       		.byte	0x8
 569 023e 05       		.byte	0x5
 570 023f 61       		.byte	0x61
 571 0240 61020000 		.4byte	0x261
 572 0244 06       		.uleb128 0x6
 573 0245 24030000 		.4byte	.LASF25
 574 0249 05       		.byte	0x5
 575 024a 62       		.byte	0x62
 576 024b 61020000 		.4byte	0x261
 577 024f 02       		.byte	0x2
 578 0250 23       		.byte	0x23
 579 0251 00       		.uleb128 0
 580 0252 06       		.uleb128 0x6
 581 0253 AE020000 		.4byte	.LASF26
 582 0257 05       		.byte	0x5
 583 0258 64       		.byte	0x64
 584 0259 61020000 		.4byte	0x261
 585 025d 02       		.byte	0x2
 586 025e 23       		.byte	0x23
 587 025f 04       		.uleb128 0x4
 588 0260 00       		.byte	0
 589 0261 09       		.uleb128 0x9
 590 0262 04       		.byte	0x4
 591 0263 0C010000 		.4byte	0x10c
 592 0267 03       		.uleb128 0x3
 593 0268 67020000 		.4byte	.LASF44
 594 026c 05       		.byte	0x5
 595 026d 66       		.byte	0x66
 596 026e 3C020000 		.4byte	0x23c
 597 0272 08       		.uleb128 0x8
 598 0273 04       		.byte	0x4
 599 0274 05       		.byte	0x5
 600 0275 6B       		.byte	0x6b
 601 0276 89020000 		.4byte	0x289
 602 027a 06       		.uleb128 0x6
 603 027b 24030000 		.4byte	.LASF25
 604 027f 05       		.byte	0x5
 605 0280 6D       		.byte	0x6d
 606 0281 61020000 		.4byte	0x261
 607 0285 02       		.byte	0x2
 608 0286 23       		.byte	0x23
 609 0287 00       		.uleb128 0
 610 0288 00       		.byte	0
 611 0289 03       		.uleb128 0x3
 612 028a D9010000 		.4byte	.LASF45
 613 028e 05       		.byte	0x5
ARM GAS  /tmp/ccRSxe19.s 			page 12


 614 028f 70       		.byte	0x70
 615 0290 72020000 		.4byte	0x272
 616 0294 03       		.uleb128 0x3
 617 0295 3F010000 		.4byte	.LASF46
 618 0299 07       		.byte	0x7
 619 029a E5       		.byte	0xe5
 620 029b 9F020000 		.4byte	0x29f
 621 029f 0A       		.uleb128 0xa
 622 02a0 04       		.byte	0x4
 623 02a1 03       		.uleb128 0x3
 624 02a2 F7010000 		.4byte	.LASF47
 625 02a6 07       		.byte	0x7
 626 02a7 EB       		.byte	0xeb
 627 02a8 9B000000 		.4byte	0x9b
 628 02ac 0B       		.uleb128 0xb
 629 02ad F9030000 		.4byte	.LASF48
 630 02b1 24       		.byte	0x24
 631 02b2 07       		.byte	0x7
 632 02b3 0C01     		.2byte	0x10c
 633 02b5 3A030000 		.4byte	0x33a
 634 02b9 0C       		.uleb128 0xc
 635 02ba 723400   		.ascii	"r4\000"
 636 02bd 07       		.byte	0x7
 637 02be 1F01     		.2byte	0x11f
 638 02c0 94020000 		.4byte	0x294
 639 02c4 02       		.byte	0x2
 640 02c5 23       		.byte	0x23
 641 02c6 00       		.uleb128 0
 642 02c7 0C       		.uleb128 0xc
 643 02c8 723500   		.ascii	"r5\000"
 644 02cb 07       		.byte	0x7
 645 02cc 2001     		.2byte	0x120
 646 02ce 94020000 		.4byte	0x294
 647 02d2 02       		.byte	0x2
 648 02d3 23       		.byte	0x23
 649 02d4 04       		.uleb128 0x4
 650 02d5 0C       		.uleb128 0xc
 651 02d6 723600   		.ascii	"r6\000"
 652 02d9 07       		.byte	0x7
 653 02da 2101     		.2byte	0x121
 654 02dc 94020000 		.4byte	0x294
 655 02e0 02       		.byte	0x2
 656 02e1 23       		.byte	0x23
 657 02e2 08       		.uleb128 0x8
 658 02e3 0C       		.uleb128 0xc
 659 02e4 723700   		.ascii	"r7\000"
 660 02e7 07       		.byte	0x7
 661 02e8 2201     		.2byte	0x122
 662 02ea 94020000 		.4byte	0x294
 663 02ee 02       		.byte	0x2
 664 02ef 23       		.byte	0x23
 665 02f0 0C       		.uleb128 0xc
 666 02f1 0C       		.uleb128 0xc
 667 02f2 723800   		.ascii	"r8\000"
 668 02f5 07       		.byte	0x7
 669 02f6 2301     		.2byte	0x123
 670 02f8 94020000 		.4byte	0x294
ARM GAS  /tmp/ccRSxe19.s 			page 13


 671 02fc 02       		.byte	0x2
 672 02fd 23       		.byte	0x23
 673 02fe 10       		.uleb128 0x10
 674 02ff 0C       		.uleb128 0xc
 675 0300 723900   		.ascii	"r9\000"
 676 0303 07       		.byte	0x7
 677 0304 2401     		.2byte	0x124
 678 0306 94020000 		.4byte	0x294
 679 030a 02       		.byte	0x2
 680 030b 23       		.byte	0x23
 681 030c 14       		.uleb128 0x14
 682 030d 0C       		.uleb128 0xc
 683 030e 72313000 		.ascii	"r10\000"
 684 0312 07       		.byte	0x7
 685 0313 2501     		.2byte	0x125
 686 0315 94020000 		.4byte	0x294
 687 0319 02       		.byte	0x2
 688 031a 23       		.byte	0x23
 689 031b 18       		.uleb128 0x18
 690 031c 0C       		.uleb128 0xc
 691 031d 72313100 		.ascii	"r11\000"
 692 0321 07       		.byte	0x7
 693 0322 2601     		.2byte	0x126
 694 0324 94020000 		.4byte	0x294
 695 0328 02       		.byte	0x2
 696 0329 23       		.byte	0x23
 697 032a 1C       		.uleb128 0x1c
 698 032b 0C       		.uleb128 0xc
 699 032c 6C7200   		.ascii	"lr\000"
 700 032f 07       		.byte	0x7
 701 0330 2701     		.2byte	0x127
 702 0332 94020000 		.4byte	0x294
 703 0336 02       		.byte	0x2
 704 0337 23       		.byte	0x23
 705 0338 20       		.uleb128 0x20
 706 0339 00       		.byte	0
 707 033a 0B       		.uleb128 0xb
 708 033b B0010000 		.4byte	.LASF49
 709 033f 04       		.byte	0x4
 710 0340 07       		.byte	0x7
 711 0341 3101     		.2byte	0x131
 712 0343 57030000 		.4byte	0x357
 713 0347 0C       		.uleb128 0xc
 714 0348 72313300 		.ascii	"r13\000"
 715 034c 07       		.byte	0x7
 716 034d 3201     		.2byte	0x132
 717 034f 57030000 		.4byte	0x357
 718 0353 02       		.byte	0x2
 719 0354 23       		.byte	0x23
 720 0355 00       		.uleb128 0
 721 0356 00       		.byte	0
 722 0357 09       		.uleb128 0x9
 723 0358 04       		.byte	0x4
 724 0359 AC020000 		.4byte	0x2ac
 725 035d 04       		.uleb128 0x4
 726 035e 04       		.byte	0x4
 727 035f 07       		.byte	0x7
ARM GAS  /tmp/ccRSxe19.s 			page 14


 728 0360 30020000 		.4byte	.LASF50
 729 0364 03       		.uleb128 0x3
 730 0365 E0030000 		.4byte	.LASF51
 731 0369 08       		.byte	0x8
 732 036a 55       		.byte	0x55
 733 036b 6F030000 		.4byte	0x36f
 734 036f 09       		.uleb128 0x9
 735 0370 04       		.byte	0x4
 736 0371 75030000 		.4byte	0x375
 737 0375 0D       		.uleb128 0xd
 738 0376 01       		.byte	0x1
 739 0377 81030000 		.4byte	0x381
 740 037b 0E       		.uleb128 0xe
 741 037c 9F020000 		.4byte	0x29f
 742 0380 00       		.byte	0
 743 0381 03       		.uleb128 0x3
 744 0382 B2030000 		.4byte	.LASF52
 745 0386 08       		.byte	0x8
 746 0387 5A       		.byte	0x5a
 747 0388 8C030000 		.4byte	0x38c
 748 038c 05       		.uleb128 0x5
 749 038d B2030000 		.4byte	.LASF52
 750 0391 14       		.byte	0x14
 751 0392 08       		.byte	0x8
 752 0393 61       		.byte	0x61
 753 0394 DF030000 		.4byte	0x3df
 754 0398 06       		.uleb128 0x6
 755 0399 7F010000 		.4byte	.LASF53
 756 039d 08       		.byte	0x8
 757 039e 62       		.byte	0x62
 758 039f DF030000 		.4byte	0x3df
 759 03a3 02       		.byte	0x2
 760 03a4 23       		.byte	0x23
 761 03a5 00       		.uleb128 0
 762 03a6 06       		.uleb128 0x6
 763 03a7 48010000 		.4byte	.LASF54
 764 03ab 08       		.byte	0x8
 765 03ac 64       		.byte	0x64
 766 03ad DF030000 		.4byte	0x3df
 767 03b1 02       		.byte	0x2
 768 03b2 23       		.byte	0x23
 769 03b3 04       		.uleb128 0x4
 770 03b4 06       		.uleb128 0x6
 771 03b5 28020000 		.4byte	.LASF55
 772 03b9 08       		.byte	0x8
 773 03ba 66       		.byte	0x66
 774 03bb 01010000 		.4byte	0x101
 775 03bf 02       		.byte	0x2
 776 03c0 23       		.byte	0x23
 777 03c1 08       		.uleb128 0x8
 778 03c2 06       		.uleb128 0x6
 779 03c3 39020000 		.4byte	.LASF56
 780 03c7 08       		.byte	0x8
 781 03c8 67       		.byte	0x67
 782 03c9 64030000 		.4byte	0x364
 783 03cd 02       		.byte	0x2
 784 03ce 23       		.byte	0x23
ARM GAS  /tmp/ccRSxe19.s 			page 15


 785 03cf 0C       		.uleb128 0xc
 786 03d0 06       		.uleb128 0x6
 787 03d1 0B040000 		.4byte	.LASF57
 788 03d5 08       		.byte	0x8
 789 03d6 69       		.byte	0x69
 790 03d7 9F020000 		.4byte	0x29f
 791 03db 02       		.byte	0x2
 792 03dc 23       		.byte	0x23
 793 03dd 10       		.uleb128 0x10
 794 03de 00       		.byte	0
 795 03df 09       		.uleb128 0x9
 796 03e0 04       		.byte	0x4
 797 03e1 81030000 		.4byte	0x381
 798 03e5 08       		.uleb128 0x8
 799 03e6 10       		.byte	0x10
 800 03e7 08       		.byte	0x8
 801 03e8 73       		.byte	0x73
 802 03e9 26040000 		.4byte	0x426
 803 03ed 06       		.uleb128 0x6
 804 03ee 7F010000 		.4byte	.LASF53
 805 03f2 08       		.byte	0x8
 806 03f3 74       		.byte	0x74
 807 03f4 DF030000 		.4byte	0x3df
 808 03f8 02       		.byte	0x2
 809 03f9 23       		.byte	0x23
 810 03fa 00       		.uleb128 0
 811 03fb 06       		.uleb128 0x6
 812 03fc 48010000 		.4byte	.LASF54
 813 0400 08       		.byte	0x8
 814 0401 76       		.byte	0x76
 815 0402 DF030000 		.4byte	0x3df
 816 0406 02       		.byte	0x2
 817 0407 23       		.byte	0x23
 818 0408 04       		.uleb128 0x4
 819 0409 06       		.uleb128 0x6
 820 040a 28020000 		.4byte	.LASF55
 821 040e 08       		.byte	0x8
 822 040f 78       		.byte	0x78
 823 0410 01010000 		.4byte	0x101
 824 0414 02       		.byte	0x2
 825 0415 23       		.byte	0x23
 826 0416 08       		.uleb128 0x8
 827 0417 06       		.uleb128 0x6
 828 0418 77040000 		.4byte	.LASF58
 829 041c 08       		.byte	0x8
 830 041d 79       		.byte	0x79
 831 041e 26040000 		.4byte	0x426
 832 0422 02       		.byte	0x2
 833 0423 23       		.byte	0x23
 834 0424 0C       		.uleb128 0xc
 835 0425 00       		.byte	0
 836 0426 0F       		.uleb128 0xf
 837 0427 01010000 		.4byte	0x101
 838 042b 03       		.uleb128 0x3
 839 042c 8D040000 		.4byte	.LASF59
 840 0430 08       		.byte	0x8
 841 0431 7A       		.byte	0x7a
ARM GAS  /tmp/ccRSxe19.s 			page 16


 842 0432 E5030000 		.4byte	0x3e5
 843 0436 08       		.uleb128 0x8
 844 0437 1C       		.byte	0x1c
 845 0438 09       		.byte	0x9
 846 0439 5E       		.byte	0x5e
 847 043a 93040000 		.4byte	0x493
 848 043e 06       		.uleb128 0x6
 849 043f AA030000 		.4byte	.LASF60
 850 0443 09       		.byte	0x9
 851 0444 5F       		.byte	0x5f
 852 0445 67020000 		.4byte	0x267
 853 0449 02       		.byte	0x2
 854 044a 23       		.byte	0x23
 855 044b 00       		.uleb128 0
 856 044c 06       		.uleb128 0x6
 857 044d 16030000 		.4byte	.LASF61
 858 0451 09       		.byte	0x9
 859 0452 60       		.byte	0x60
 860 0453 E0000000 		.4byte	0xe0
 861 0457 02       		.byte	0x2
 862 0458 23       		.byte	0x23
 863 0459 08       		.uleb128 0x8
 864 045a 06       		.uleb128 0x6
 865 045b 61020000 		.4byte	.LASF62
 866 045f 09       		.byte	0x9
 867 0460 62       		.byte	0x62
 868 0461 3A030000 		.4byte	0x33a
 869 0465 02       		.byte	0x2
 870 0466 23       		.byte	0x23
 871 0467 0C       		.uleb128 0xc
 872 0468 06       		.uleb128 0x6
 873 0469 37010000 		.4byte	.LASF63
 874 046d 09       		.byte	0x9
 875 046e 65       		.byte	0x65
 876 046f 61020000 		.4byte	0x261
 877 0473 02       		.byte	0x2
 878 0474 23       		.byte	0x23
 879 0475 10       		.uleb128 0x10
 880 0476 06       		.uleb128 0x6
 881 0477 86020000 		.4byte	.LASF64
 882 047b 09       		.byte	0x9
 883 047c 66       		.byte	0x66
 884 047d 61020000 		.4byte	0x261
 885 0481 02       		.byte	0x2
 886 0482 23       		.byte	0x23
 887 0483 14       		.uleb128 0x14
 888 0484 06       		.uleb128 0x6
 889 0485 7C020000 		.4byte	.LASF65
 890 0489 09       		.byte	0x9
 891 048a 69       		.byte	0x69
 892 048b 61020000 		.4byte	0x261
 893 048f 02       		.byte	0x2
 894 0490 23       		.byte	0x23
 895 0491 18       		.uleb128 0x18
 896 0492 00       		.byte	0
 897 0493 03       		.uleb128 0x3
 898 0494 24040000 		.4byte	.LASF66
ARM GAS  /tmp/ccRSxe19.s 			page 17


 899 0498 09       		.byte	0x9
 900 0499 6B       		.byte	0x6b
 901 049a 36040000 		.4byte	0x436
 902 049e 05       		.uleb128 0x5
 903 049f F1010000 		.4byte	.LASF67
 904 04a3 10       		.byte	0x10
 905 04a4 0A       		.byte	0xa
 906 04a5 2C       		.byte	0x2c
 907 04a6 D5040000 		.4byte	0x4d5
 908 04aa 06       		.uleb128 0x6
 909 04ab E8000000 		.4byte	.LASF68
 910 04af 0A       		.byte	0xa
 911 04b0 2D       		.byte	0x2d
 912 04b1 67020000 		.4byte	0x267
 913 04b5 02       		.byte	0x2
 914 04b6 23       		.byte	0x23
 915 04b7 00       		.uleb128 0
 916 04b8 06       		.uleb128 0x6
 917 04b9 94040000 		.4byte	.LASF69
 918 04bd 0A       		.byte	0xa
 919 04be 2F       		.byte	0x2f
 920 04bf 61020000 		.4byte	0x261
 921 04c3 02       		.byte	0x2
 922 04c4 23       		.byte	0x23
 923 04c5 08       		.uleb128 0x8
 924 04c6 06       		.uleb128 0x6
 925 04c7 C4030000 		.4byte	.LASF70
 926 04cb 0A       		.byte	0xa
 927 04cc 31       		.byte	0x31
 928 04cd D5040000 		.4byte	0x4d5
 929 04d1 02       		.byte	0x2
 930 04d2 23       		.byte	0x23
 931 04d3 0C       		.uleb128 0xc
 932 04d4 00       		.byte	0
 933 04d5 09       		.uleb128 0x9
 934 04d6 04       		.byte	0x4
 935 04d7 9E040000 		.4byte	0x49e
 936 04db 03       		.uleb128 0x3
 937 04dc F1010000 		.4byte	.LASF67
 938 04e0 0A       		.byte	0xa
 939 04e1 33       		.byte	0x33
 940 04e2 9E040000 		.4byte	0x49e
 941 04e6 10       		.uleb128 0x10
 942 04e7 04       		.byte	0x4
 943 04e8 06       		.byte	0x6
 944 04e9 96       		.byte	0x96
 945 04ea 1B050000 		.4byte	0x51b
 946 04ee 11       		.uleb128 0x11
 947 04ef 22000000 		.4byte	.LASF71
 948 04f3 06       		.byte	0x6
 949 04f4 9D       		.byte	0x9d
 950 04f5 EB000000 		.4byte	0xeb
 951 04f9 11       		.uleb128 0x11
 952 04fa 71000000 		.4byte	.LASF72
 953 04fe 06       		.byte	0x6
 954 04ff A4       		.byte	0xa4
 955 0500 EB000000 		.4byte	0xeb
ARM GAS  /tmp/ccRSxe19.s 			page 18


 956 0504 11       		.uleb128 0x11
 957 0505 69040000 		.4byte	.LASF73
 958 0509 06       		.byte	0x6
 959 050a AB       		.byte	0xab
 960 050b 9F020000 		.4byte	0x29f
 961 050f 11       		.uleb128 0x11
 962 0510 1D030000 		.4byte	.LASF74
 963 0514 06       		.byte	0x6
 964 0515 B2       		.byte	0xb2
 965 0516 F6000000 		.4byte	0xf6
 966 051a 00       		.byte	0
 967 051b 09       		.uleb128 0x9
 968 051c 04       		.byte	0x4
 969 051d 21050000 		.4byte	0x521
 970 0521 12       		.uleb128 0x12
 971 0522 26050000 		.4byte	0x526
 972 0526 04       		.uleb128 0x4
 973 0527 01       		.byte	0x1
 974 0528 08       		.byte	0x8
 975 0529 BF030000 		.4byte	.LASF75
 976 052d 09       		.uleb128 0x9
 977 052e 04       		.byte	0x4
 978 052f DB040000 		.4byte	0x4db
 979 0533 03       		.uleb128 0x3
 980 0534 00000000 		.4byte	.LASF76
 981 0538 06       		.byte	0x6
 982 0539 E5       		.byte	0xe5
 983 053a 3E050000 		.4byte	0x53e
 984 053e 09       		.uleb128 0x9
 985 053f 04       		.byte	0x4
 986 0540 44050000 		.4byte	0x544
 987 0544 13       		.uleb128 0x13
 988 0545 01       		.byte	0x1
 989 0546 EB000000 		.4byte	0xeb
 990 054a 54050000 		.4byte	0x554
 991 054e 0E       		.uleb128 0xe
 992 054f 9F020000 		.4byte	0x29f
 993 0553 00       		.byte	0
 994 0554 08       		.uleb128 0x8
 995 0555 16       		.byte	0x16
 996 0556 0B       		.byte	0xb
 997 0557 2C       		.byte	0x2c
 998 0558 59060000 		.4byte	0x659
 999 055c 06       		.uleb128 0x6
 1000 055d A2010000 		.4byte	.LASF77
 1001 0561 0B       		.byte	0xb
 1002 0562 2D       		.byte	0x2d
 1003 0563 59060000 		.4byte	0x659
 1004 0567 02       		.byte	0x2
 1005 0568 23       		.byte	0x23
 1006 0569 00       		.uleb128 0
 1007 056a 06       		.uleb128 0x6
 1008 056b 14020000 		.4byte	.LASF78
 1009 056f 0B       		.byte	0xb
 1010 0570 2E       		.byte	0x2e
 1011 0571 45000000 		.4byte	0x45
 1012 0575 02       		.byte	0x2
ARM GAS  /tmp/ccRSxe19.s 			page 19


 1013 0576 23       		.byte	0x23
 1014 0577 04       		.uleb128 0x4
 1015 0578 06       		.uleb128 0x6
 1016 0579 74020000 		.4byte	.LASF79
 1017 057d 0B       		.byte	0xb
 1018 057e 2F       		.byte	0x2f
 1019 057f 45000000 		.4byte	0x45
 1020 0583 02       		.byte	0x2
 1021 0584 23       		.byte	0x23
 1022 0585 05       		.uleb128 0x5
 1023 0586 06       		.uleb128 0x6
 1024 0587 82040000 		.4byte	.LASF80
 1025 058b 0B       		.byte	0xb
 1026 058c 30       		.byte	0x30
 1027 058d 5E000000 		.4byte	0x5e
 1028 0591 02       		.byte	0x2
 1029 0592 23       		.byte	0x23
 1030 0593 06       		.uleb128 0x6
 1031 0594 06       		.uleb128 0x6
 1032 0595 A3020000 		.4byte	.LASF81
 1033 0599 0B       		.byte	0xb
 1034 059a 31       		.byte	0x31
 1035 059b 45000000 		.4byte	0x45
 1036 059f 02       		.byte	0x2
 1037 05a0 23       		.byte	0x23
 1038 05a1 08       		.uleb128 0x8
 1039 05a2 06       		.uleb128 0x6
 1040 05a3 41020000 		.4byte	.LASF82
 1041 05a7 0B       		.byte	0xb
 1042 05a8 32       		.byte	0x32
 1043 05a9 45000000 		.4byte	0x45
 1044 05ad 02       		.byte	0x2
 1045 05ae 23       		.byte	0x23
 1046 05af 09       		.uleb128 0x9
 1047 05b0 06       		.uleb128 0x6
 1048 05b1 63000000 		.4byte	.LASF83
 1049 05b5 0B       		.byte	0xb
 1050 05b6 33       		.byte	0x33
 1051 05b7 45000000 		.4byte	0x45
 1052 05bb 02       		.byte	0x2
 1053 05bc 23       		.byte	0x23
 1054 05bd 0A       		.uleb128 0xa
 1055 05be 06       		.uleb128 0x6
 1056 05bf 9E030000 		.4byte	.LASF84
 1057 05c3 0B       		.byte	0xb
 1058 05c4 34       		.byte	0x34
 1059 05c5 45000000 		.4byte	0x45
 1060 05c9 02       		.byte	0x2
 1061 05ca 23       		.byte	0x23
 1062 05cb 0B       		.uleb128 0xb
 1063 05cc 06       		.uleb128 0x6
 1064 05cd 12040000 		.4byte	.LASF85
 1065 05d1 0B       		.byte	0xb
 1066 05d2 35       		.byte	0x35
 1067 05d3 45000000 		.4byte	0x45
 1068 05d7 02       		.byte	0x2
 1069 05d8 23       		.byte	0x23
ARM GAS  /tmp/ccRSxe19.s 			page 20


 1070 05d9 0C       		.uleb128 0xc
 1071 05da 06       		.uleb128 0x6
 1072 05db 49030000 		.4byte	.LASF86
 1073 05df 0B       		.byte	0xb
 1074 05e0 36       		.byte	0x36
 1075 05e1 45000000 		.4byte	0x45
 1076 05e5 02       		.byte	0x2
 1077 05e6 23       		.byte	0x23
 1078 05e7 0D       		.uleb128 0xd
 1079 05e8 06       		.uleb128 0x6
 1080 05e9 08000000 		.4byte	.LASF87
 1081 05ed 0B       		.byte	0xb
 1082 05ee 37       		.byte	0x37
 1083 05ef 45000000 		.4byte	0x45
 1084 05f3 02       		.byte	0x2
 1085 05f4 23       		.byte	0x23
 1086 05f5 0E       		.uleb128 0xe
 1087 05f6 06       		.uleb128 0x6
 1088 05f7 4D020000 		.4byte	.LASF88
 1089 05fb 0B       		.byte	0xb
 1090 05fc 38       		.byte	0x38
 1091 05fd 45000000 		.4byte	0x45
 1092 0601 02       		.byte	0x2
 1093 0602 23       		.byte	0x23
 1094 0603 0F       		.uleb128 0xf
 1095 0604 06       		.uleb128 0x6
 1096 0605 C3000000 		.4byte	.LASF89
 1097 0609 0B       		.byte	0xb
 1098 060a 39       		.byte	0x39
 1099 060b 45000000 		.4byte	0x45
 1100 060f 02       		.byte	0x2
 1101 0610 23       		.byte	0x23
 1102 0611 10       		.uleb128 0x10
 1103 0612 06       		.uleb128 0x6
 1104 0613 8C000000 		.4byte	.LASF90
 1105 0617 0B       		.byte	0xb
 1106 0618 3B       		.byte	0x3b
 1107 0619 45000000 		.4byte	0x45
 1108 061d 02       		.byte	0x2
 1109 061e 23       		.byte	0x23
 1110 061f 11       		.uleb128 0x11
 1111 0620 06       		.uleb128 0x6
 1112 0621 D3000000 		.4byte	.LASF91
 1113 0625 0B       		.byte	0xb
 1114 0626 3C       		.byte	0x3c
 1115 0627 45000000 		.4byte	0x45
 1116 062b 02       		.byte	0x2
 1117 062c 23       		.byte	0x23
 1118 062d 12       		.uleb128 0x12
 1119 062e 06       		.uleb128 0x6
 1120 062f 1C020000 		.4byte	.LASF92
 1121 0633 0B       		.byte	0xb
 1122 0634 3D       		.byte	0x3d
 1123 0635 45000000 		.4byte	0x45
 1124 0639 02       		.byte	0x2
 1125 063a 23       		.byte	0x23
 1126 063b 13       		.uleb128 0x13
ARM GAS  /tmp/ccRSxe19.s 			page 21


 1127 063c 06       		.uleb128 0x6
 1128 063d 2B030000 		.4byte	.LASF93
 1129 0641 0B       		.byte	0xb
 1130 0642 3E       		.byte	0x3e
 1131 0643 45000000 		.4byte	0x45
 1132 0647 02       		.byte	0x2
 1133 0648 23       		.byte	0x23
 1134 0649 14       		.uleb128 0x14
 1135 064a 06       		.uleb128 0x6
 1136 064b 0A030000 		.4byte	.LASF94
 1137 064f 0B       		.byte	0xb
 1138 0650 40       		.byte	0x40
 1139 0651 45000000 		.4byte	0x45
 1140 0655 02       		.byte	0x2
 1141 0656 23       		.byte	0x23
 1142 0657 15       		.uleb128 0x15
 1143 0658 00       		.byte	0
 1144 0659 14       		.uleb128 0x14
 1145 065a 26050000 		.4byte	0x526
 1146 065e 69060000 		.4byte	0x669
 1147 0662 15       		.uleb128 0x15
 1148 0663 5D030000 		.4byte	0x35d
 1149 0667 03       		.byte	0x3
 1150 0668 00       		.byte	0
 1151 0669 03       		.uleb128 0x3
 1152 066a 15010000 		.4byte	.LASF95
 1153 066e 0B       		.byte	0xb
 1154 066f 41       		.byte	0x41
 1155 0670 54050000 		.4byte	0x554
 1156 0674 16       		.uleb128 0x16
 1157 0675 01       		.byte	0x1
 1158 0676 8E020000 		.4byte	.LASF96
 1159 067a 01       		.byte	0x1
 1160 067b 3D       		.byte	0x3d
 1161 067c 01       		.byte	0x1
 1162 067d 00000000 		.4byte	.LFB7
 1163 0681 14000000 		.4byte	.LFE7
 1164 0685 02       		.byte	0x2
 1165 0686 7D       		.byte	0x7d
 1166 0687 00       		.sleb128 0
 1167 0688 01       		.byte	0x1
 1168 0689 99060000 		.4byte	0x699
 1169 068d 17       		.uleb128 0x17
 1170 068e 7000     		.ascii	"p\000"
 1171 0690 01       		.byte	0x1
 1172 0691 3D       		.byte	0x3d
 1173 0692 9F020000 		.4byte	0x29f
 1174 0696 01       		.byte	0x1
 1175 0697 50       		.byte	0x50
 1176 0698 00       		.byte	0
 1177 0699 18       		.uleb128 0x18
 1178 069a 01       		.byte	0x1
 1179 069b 50010000 		.4byte	.LASF97
 1180 069f 01       		.byte	0x1
 1181 06a0 54       		.byte	0x54
 1182 06a1 01       		.byte	0x1
 1183 06a2 00000000 		.4byte	.LFB8
ARM GAS  /tmp/ccRSxe19.s 			page 22


 1184 06a6 66000000 		.4byte	.LFE8
 1185 06aa 00000000 		.4byte	.LLST0
 1186 06ae 01       		.byte	0x1
 1187 06af 59070000 		.4byte	0x759
 1188 06b3 19       		.uleb128 0x19
 1189 06b4 7A000000 		.4byte	.LASF98
 1190 06b8 01       		.byte	0x1
 1191 06b9 55       		.byte	0x55
 1192 06ba 0C010000 		.4byte	0x10c
 1193 06be 05       		.byte	0x5
 1194 06bf 03       		.byte	0x3
 1195 06c0 00000000 		.4byte	mainthread.4772
 1196 06c4 1A       		.uleb128 0x1a
 1197 06c5 34000000 		.4byte	.LBB2
 1198 06c9 3C000000 		.4byte	.LBE2
 1199 06cd E1060000 		.4byte	0x6e1
 1200 06d1 1B       		.uleb128 0x1b
 1201 06d2 746D7000 		.ascii	"tmp\000"
 1202 06d6 01       		.byte	0x1
 1203 06d7 6F       		.byte	0x6f
 1204 06d8 82000000 		.4byte	0x82
 1205 06dc 2C000000 		.4byte	.LLST1
 1206 06e0 00       		.byte	0
 1207 06e1 1C       		.uleb128 0x1c
 1208 06e2 08000000 		.4byte	.LVL1
 1209 06e6 29080000 		.4byte	0x829
 1210 06ea 1C       		.uleb128 0x1c
 1211 06eb 0C000000 		.4byte	.LVL2
 1212 06ef 34080000 		.4byte	0x834
 1213 06f3 1C       		.uleb128 0x1c
 1214 06f4 10000000 		.4byte	.LVL3
 1215 06f8 3E080000 		.4byte	0x83e
 1216 06fc 1C       		.uleb128 0x1c
 1217 06fd 14000000 		.4byte	.LVL4
 1218 0701 48080000 		.4byte	0x848
 1219 0705 1C       		.uleb128 0x1c
 1220 0706 18000000 		.4byte	.LVL5
 1221 070a 52080000 		.4byte	0x852
 1222 070e 1D       		.uleb128 0x1d
 1223 070f 26000000 		.4byte	.LVL6
 1224 0713 5C080000 		.4byte	0x85c
 1225 0717 2B070000 		.4byte	0x72b
 1226 071b 1E       		.uleb128 0x1e
 1227 071c 01       		.byte	0x1
 1228 071d 51       		.byte	0x51
 1229 071e 02       		.byte	0x2
 1230 071f 08       		.byte	0x8
 1231 0720 40       		.byte	0x40
 1232 0721 1E       		.uleb128 0x1e
 1233 0722 01       		.byte	0x1
 1234 0723 50       		.byte	0x50
 1235 0724 05       		.byte	0x5
 1236 0725 03       		.byte	0x3
 1237 0726 00000000 		.4byte	.LANCHOR0
 1238 072a 00       		.byte	0
 1239 072b 1F       		.uleb128 0x1f
 1240 072c 62000000 		.4byte	.LVL10
ARM GAS  /tmp/ccRSxe19.s 			page 23


 1241 0730 7A080000 		.4byte	0x87a
 1242 0734 1E       		.uleb128 0x1e
 1243 0735 01       		.byte	0x1
 1244 0736 53       		.byte	0x53
 1245 0737 05       		.byte	0x5
 1246 0738 03       		.byte	0x3
 1247 0739 00000000 		.4byte	_idle_thread
 1248 073d 1E       		.uleb128 0x1e
 1249 073e 01       		.byte	0x1
 1250 073f 52       		.byte	0x52
 1251 0740 01       		.byte	0x1
 1252 0741 31       		.byte	0x31
 1253 0742 1E       		.uleb128 0x1e
 1254 0743 01       		.byte	0x1
 1255 0744 51       		.byte	0x51
 1256 0745 02       		.byte	0x2
 1257 0746 08       		.byte	0x8
 1258 0747 C0       		.byte	0xc0
 1259 0748 1E       		.uleb128 0x1e
 1260 0749 01       		.byte	0x1
 1261 074a 50       		.byte	0x50
 1262 074b 05       		.byte	0x5
 1263 074c 03       		.byte	0x3
 1264 074d 00000000 		.4byte	.LANCHOR1
 1265 0751 1E       		.uleb128 0x1e
 1266 0752 02       		.byte	0x2
 1267 0753 7D       		.byte	0x7d
 1268 0754 00       		.sleb128 0
 1269 0755 01       		.byte	0x1
 1270 0756 30       		.byte	0x30
 1271 0757 00       		.byte	0
 1272 0758 00       		.byte	0
 1273 0759 20       		.uleb128 0x20
 1274 075a 01       		.byte	0x1
 1275 075b 39000000 		.4byte	.LASF99
 1276 075f 01       		.byte	0x1
 1277 0760 89       		.byte	0x89
 1278 0761 01       		.byte	0x1
 1279 0762 00000000 		.4byte	.LFB9
 1280 0766 58000000 		.4byte	.LFE9
 1281 076a 3F000000 		.4byte	.LLST2
 1282 076e 01       		.byte	0x1
 1283 076f DB070000 		.4byte	0x7db
 1284 0773 21       		.uleb128 0x21
 1285 0774 22000000 		.4byte	.LBB3
 1286 0778 58000000 		.4byte	.LBE3
 1287 077c 1B       		.uleb128 0x1b
 1288 077d 76747000 		.ascii	"vtp\000"
 1289 0781 01       		.byte	0x1
 1290 0782 96       		.byte	0x96
 1291 0783 DF030000 		.4byte	0x3df
 1292 0787 5F000000 		.4byte	.LLST3
 1293 078b 21       		.uleb128 0x21
 1294 078c 2A000000 		.4byte	.LBB4
 1295 0790 44000000 		.4byte	.LBE4
 1296 0794 1B       		.uleb128 0x1b
 1297 0795 666E00   		.ascii	"fn\000"
ARM GAS  /tmp/ccRSxe19.s 			page 24


 1298 0798 01       		.byte	0x1
 1299 0799 96       		.byte	0x96
 1300 079a 64030000 		.4byte	0x364
 1301 079e 7D000000 		.4byte	.LLST4
 1302 07a2 1A       		.uleb128 0x1a
 1303 07a3 34000000 		.4byte	.LBB5
 1304 07a7 3A000000 		.4byte	.LBE5
 1305 07ab BF070000 		.4byte	0x7bf
 1306 07af 1B       		.uleb128 0x1b
 1307 07b0 746D7000 		.ascii	"tmp\000"
 1308 07b4 01       		.byte	0x1
 1309 07b5 96       		.byte	0x96
 1310 07b6 82000000 		.4byte	0x82
 1311 07ba 90000000 		.4byte	.LLST5
 1312 07be 00       		.byte	0
 1313 07bf 21       		.uleb128 0x21
 1314 07c0 3E000000 		.4byte	.LBB6
 1315 07c4 44000000 		.4byte	.LBE6
 1316 07c8 1B       		.uleb128 0x1b
 1317 07c9 746D7000 		.ascii	"tmp\000"
 1318 07cd 01       		.byte	0x1
 1319 07ce 96       		.byte	0x96
 1320 07cf 82000000 		.4byte	0x82
 1321 07d3 A3000000 		.4byte	.LLST6
 1322 07d7 00       		.byte	0
 1323 07d8 00       		.byte	0
 1324 07d9 00       		.byte	0
 1325 07da 00       		.byte	0
 1326 07db 22       		.uleb128 0x22
 1327 07dc 32000000 		.4byte	.LASF100
 1328 07e0 08       		.byte	0x8
 1329 07e1 D8       		.byte	0xd8
 1330 07e2 2B040000 		.4byte	0x42b
 1331 07e6 01       		.byte	0x1
 1332 07e7 01       		.byte	0x1
 1333 07e8 22       		.uleb128 0x22
 1334 07e9 2E040000 		.4byte	.LASF101
 1335 07ed 09       		.byte	0x9
 1336 07ee 6F       		.byte	0x6f
 1337 07ef 93040000 		.4byte	0x493
 1338 07f3 01       		.byte	0x1
 1339 07f4 01       		.byte	0x1
 1340 07f5 22       		.uleb128 0x22
 1341 07f6 99010000 		.4byte	.LASF102
 1342 07fa 0B       		.byte	0xb
 1343 07fb 7E       		.byte	0x7e
 1344 07fc 02080000 		.4byte	0x802
 1345 0800 01       		.byte	0x1
 1346 0801 01       		.byte	0x1
 1347 0802 12       		.uleb128 0x12
 1348 0803 69060000 		.4byte	0x669
 1349 0807 14       		.uleb128 0x14
 1350 0808 A1020000 		.4byte	0x2a1
 1351 080c 17080000 		.4byte	0x817
 1352 0810 15       		.uleb128 0x15
 1353 0811 5D030000 		.4byte	0x35d
 1354 0815 17       		.byte	0x17
ARM GAS  /tmp/ccRSxe19.s 			page 25


 1355 0816 00       		.byte	0
 1356 0817 23       		.uleb128 0x23
 1357 0818 27010000 		.4byte	.LASF103
 1358 081c 01       		.byte	0x1
 1359 081d 31       		.byte	0x31
 1360 081e 07080000 		.4byte	0x807
 1361 0822 01       		.byte	0x1
 1362 0823 05       		.byte	0x5
 1363 0824 03       		.byte	0x3
 1364 0825 00000000 		.4byte	_idle_thread_wa
 1365 0829 24       		.uleb128 0x24
 1366 082a 01       		.byte	0x1
 1367 082b 5E040000 		.4byte	.LASF104
 1368 082f 07       		.byte	0x7
 1369 0830 0202     		.2byte	0x202
 1370 0832 01       		.byte	0x1
 1371 0833 01       		.byte	0x1
 1372 0834 25       		.uleb128 0x25
 1373 0835 01       		.byte	0x1
 1374 0836 99000000 		.4byte	.LASF105
 1375 083a 09       		.byte	0x9
 1376 083b 8E       		.byte	0x8e
 1377 083c 01       		.byte	0x1
 1378 083d 01       		.byte	0x1
 1379 083e 25       		.uleb128 0x25
 1380 083f 01       		.byte	0x1
 1381 0840 E9030000 		.4byte	.LASF106
 1382 0844 08       		.byte	0x8
 1383 0845 E0       		.byte	0xe0
 1384 0846 01       		.byte	0x1
 1385 0847 01       		.byte	0x1
 1386 0848 25       		.uleb128 0x25
 1387 0849 01       		.byte	0x1
 1388 084a D9020000 		.4byte	.LASF107
 1389 084e 0C       		.byte	0xc
 1390 084f 51       		.byte	0x51
 1391 0850 01       		.byte	0x1
 1392 0851 01       		.byte	0x1
 1393 0852 25       		.uleb128 0x25
 1394 0853 01       		.byte	0x1
 1395 0854 5A010000 		.4byte	.LASF108
 1396 0858 0D       		.byte	0xd
 1397 0859 55       		.byte	0x55
 1398 085a 01       		.byte	0x1
 1399 085b 01       		.byte	0x1
 1400 085c 26       		.uleb128 0x26
 1401 085d 01       		.byte	0x1
 1402 085e 72010000 		.4byte	.LASF111
 1403 0862 06       		.byte	0x6
 1404 0863 6A01     		.2byte	0x16a
 1405 0865 01       		.byte	0x1
 1406 0866 61020000 		.4byte	0x261
 1407 086a 01       		.byte	0x1
 1408 086b 7A080000 		.4byte	0x87a
 1409 086f 0E       		.uleb128 0xe
 1410 0870 61020000 		.4byte	0x261
 1411 0874 0E       		.uleb128 0xe
ARM GAS  /tmp/ccRSxe19.s 			page 26


 1412 0875 E0000000 		.4byte	0xe0
 1413 0879 00       		.byte	0
 1414 087a 27       		.uleb128 0x27
 1415 087b 01       		.byte	0x1
 1416 087c 02020000 		.4byte	.LASF112
 1417 0880 06       		.byte	0x6
 1418 0881 7001     		.2byte	0x170
 1419 0883 01       		.byte	0x1
 1420 0884 61020000 		.4byte	0x261
 1421 0888 01       		.byte	0x1
 1422 0889 0E       		.uleb128 0xe
 1423 088a 9F020000 		.4byte	0x29f
 1424 088e 0E       		.uleb128 0xe
 1425 088f 2C000000 		.4byte	0x2c
 1426 0893 0E       		.uleb128 0xe
 1427 0894 E0000000 		.4byte	0xe0
 1428 0898 0E       		.uleb128 0xe
 1429 0899 33050000 		.4byte	0x533
 1430 089d 0E       		.uleb128 0xe
 1431 089e 9F020000 		.4byte	0x29f
 1432 08a2 00       		.byte	0
 1433 08a3 00       		.byte	0
 1434              		.section	.debug_abbrev,"",%progbits
 1435              	.Ldebug_abbrev0:
 1436 0000 01       		.uleb128 0x1
 1437 0001 11       		.uleb128 0x11
 1438 0002 01       		.byte	0x1
 1439 0003 25       		.uleb128 0x25
 1440 0004 0E       		.uleb128 0xe
 1441 0005 13       		.uleb128 0x13
 1442 0006 0B       		.uleb128 0xb
 1443 0007 03       		.uleb128 0x3
 1444 0008 0E       		.uleb128 0xe
 1445 0009 55       		.uleb128 0x55
 1446 000a 06       		.uleb128 0x6
 1447 000b 11       		.uleb128 0x11
 1448 000c 01       		.uleb128 0x1
 1449 000d 52       		.uleb128 0x52
 1450 000e 01       		.uleb128 0x1
 1451 000f 10       		.uleb128 0x10
 1452 0010 06       		.uleb128 0x6
 1453 0011 00       		.byte	0
 1454 0012 00       		.byte	0
 1455 0013 02       		.uleb128 0x2
 1456 0014 24       		.uleb128 0x24
 1457 0015 00       		.byte	0
 1458 0016 0B       		.uleb128 0xb
 1459 0017 0B       		.uleb128 0xb
 1460 0018 3E       		.uleb128 0x3e
 1461 0019 0B       		.uleb128 0xb
 1462 001a 03       		.uleb128 0x3
 1463 001b 08       		.uleb128 0x8
 1464 001c 00       		.byte	0
 1465 001d 00       		.byte	0
 1466 001e 03       		.uleb128 0x3
 1467 001f 16       		.uleb128 0x16
 1468 0020 00       		.byte	0
ARM GAS  /tmp/ccRSxe19.s 			page 27


 1469 0021 03       		.uleb128 0x3
 1470 0022 0E       		.uleb128 0xe
 1471 0023 3A       		.uleb128 0x3a
 1472 0024 0B       		.uleb128 0xb
 1473 0025 3B       		.uleb128 0x3b
 1474 0026 0B       		.uleb128 0xb
 1475 0027 49       		.uleb128 0x49
 1476 0028 13       		.uleb128 0x13
 1477 0029 00       		.byte	0
 1478 002a 00       		.byte	0
 1479 002b 04       		.uleb128 0x4
 1480 002c 24       		.uleb128 0x24
 1481 002d 00       		.byte	0
 1482 002e 0B       		.uleb128 0xb
 1483 002f 0B       		.uleb128 0xb
 1484 0030 3E       		.uleb128 0x3e
 1485 0031 0B       		.uleb128 0xb
 1486 0032 03       		.uleb128 0x3
 1487 0033 0E       		.uleb128 0xe
 1488 0034 00       		.byte	0
 1489 0035 00       		.byte	0
 1490 0036 05       		.uleb128 0x5
 1491 0037 13       		.uleb128 0x13
 1492 0038 01       		.byte	0x1
 1493 0039 03       		.uleb128 0x3
 1494 003a 0E       		.uleb128 0xe
 1495 003b 0B       		.uleb128 0xb
 1496 003c 0B       		.uleb128 0xb
 1497 003d 3A       		.uleb128 0x3a
 1498 003e 0B       		.uleb128 0xb
 1499 003f 3B       		.uleb128 0x3b
 1500 0040 0B       		.uleb128 0xb
 1501 0041 01       		.uleb128 0x1
 1502 0042 13       		.uleb128 0x13
 1503 0043 00       		.byte	0
 1504 0044 00       		.byte	0
 1505 0045 06       		.uleb128 0x6
 1506 0046 0D       		.uleb128 0xd
 1507 0047 00       		.byte	0
 1508 0048 03       		.uleb128 0x3
 1509 0049 0E       		.uleb128 0xe
 1510 004a 3A       		.uleb128 0x3a
 1511 004b 0B       		.uleb128 0xb
 1512 004c 3B       		.uleb128 0x3b
 1513 004d 0B       		.uleb128 0xb
 1514 004e 49       		.uleb128 0x49
 1515 004f 13       		.uleb128 0x13
 1516 0050 38       		.uleb128 0x38
 1517 0051 0A       		.uleb128 0xa
 1518 0052 00       		.byte	0
 1519 0053 00       		.byte	0
 1520 0054 07       		.uleb128 0x7
 1521 0055 0D       		.uleb128 0xd
 1522 0056 00       		.byte	0
 1523 0057 03       		.uleb128 0x3
 1524 0058 08       		.uleb128 0x8
 1525 0059 3A       		.uleb128 0x3a
ARM GAS  /tmp/ccRSxe19.s 			page 28


 1526 005a 0B       		.uleb128 0xb
 1527 005b 3B       		.uleb128 0x3b
 1528 005c 0B       		.uleb128 0xb
 1529 005d 49       		.uleb128 0x49
 1530 005e 13       		.uleb128 0x13
 1531 005f 38       		.uleb128 0x38
 1532 0060 0A       		.uleb128 0xa
 1533 0061 00       		.byte	0
 1534 0062 00       		.byte	0
 1535 0063 08       		.uleb128 0x8
 1536 0064 13       		.uleb128 0x13
 1537 0065 01       		.byte	0x1
 1538 0066 0B       		.uleb128 0xb
 1539 0067 0B       		.uleb128 0xb
 1540 0068 3A       		.uleb128 0x3a
 1541 0069 0B       		.uleb128 0xb
 1542 006a 3B       		.uleb128 0x3b
 1543 006b 0B       		.uleb128 0xb
 1544 006c 01       		.uleb128 0x1
 1545 006d 13       		.uleb128 0x13
 1546 006e 00       		.byte	0
 1547 006f 00       		.byte	0
 1548 0070 09       		.uleb128 0x9
 1549 0071 0F       		.uleb128 0xf
 1550 0072 00       		.byte	0
 1551 0073 0B       		.uleb128 0xb
 1552 0074 0B       		.uleb128 0xb
 1553 0075 49       		.uleb128 0x49
 1554 0076 13       		.uleb128 0x13
 1555 0077 00       		.byte	0
 1556 0078 00       		.byte	0
 1557 0079 0A       		.uleb128 0xa
 1558 007a 0F       		.uleb128 0xf
 1559 007b 00       		.byte	0
 1560 007c 0B       		.uleb128 0xb
 1561 007d 0B       		.uleb128 0xb
 1562 007e 00       		.byte	0
 1563 007f 00       		.byte	0
 1564 0080 0B       		.uleb128 0xb
 1565 0081 13       		.uleb128 0x13
 1566 0082 01       		.byte	0x1
 1567 0083 03       		.uleb128 0x3
 1568 0084 0E       		.uleb128 0xe
 1569 0085 0B       		.uleb128 0xb
 1570 0086 0B       		.uleb128 0xb
 1571 0087 3A       		.uleb128 0x3a
 1572 0088 0B       		.uleb128 0xb
 1573 0089 3B       		.uleb128 0x3b
 1574 008a 05       		.uleb128 0x5
 1575 008b 01       		.uleb128 0x1
 1576 008c 13       		.uleb128 0x13
 1577 008d 00       		.byte	0
 1578 008e 00       		.byte	0
 1579 008f 0C       		.uleb128 0xc
 1580 0090 0D       		.uleb128 0xd
 1581 0091 00       		.byte	0
 1582 0092 03       		.uleb128 0x3
ARM GAS  /tmp/ccRSxe19.s 			page 29


 1583 0093 08       		.uleb128 0x8
 1584 0094 3A       		.uleb128 0x3a
 1585 0095 0B       		.uleb128 0xb
 1586 0096 3B       		.uleb128 0x3b
 1587 0097 05       		.uleb128 0x5
 1588 0098 49       		.uleb128 0x49
 1589 0099 13       		.uleb128 0x13
 1590 009a 38       		.uleb128 0x38
 1591 009b 0A       		.uleb128 0xa
 1592 009c 00       		.byte	0
 1593 009d 00       		.byte	0
 1594 009e 0D       		.uleb128 0xd
 1595 009f 15       		.uleb128 0x15
 1596 00a0 01       		.byte	0x1
 1597 00a1 27       		.uleb128 0x27
 1598 00a2 0C       		.uleb128 0xc
 1599 00a3 01       		.uleb128 0x1
 1600 00a4 13       		.uleb128 0x13
 1601 00a5 00       		.byte	0
 1602 00a6 00       		.byte	0
 1603 00a7 0E       		.uleb128 0xe
 1604 00a8 05       		.uleb128 0x5
 1605 00a9 00       		.byte	0
 1606 00aa 49       		.uleb128 0x49
 1607 00ab 13       		.uleb128 0x13
 1608 00ac 00       		.byte	0
 1609 00ad 00       		.byte	0
 1610 00ae 0F       		.uleb128 0xf
 1611 00af 35       		.uleb128 0x35
 1612 00b0 00       		.byte	0
 1613 00b1 49       		.uleb128 0x49
 1614 00b2 13       		.uleb128 0x13
 1615 00b3 00       		.byte	0
 1616 00b4 00       		.byte	0
 1617 00b5 10       		.uleb128 0x10
 1618 00b6 17       		.uleb128 0x17
 1619 00b7 01       		.byte	0x1
 1620 00b8 0B       		.uleb128 0xb
 1621 00b9 0B       		.uleb128 0xb
 1622 00ba 3A       		.uleb128 0x3a
 1623 00bb 0B       		.uleb128 0xb
 1624 00bc 3B       		.uleb128 0x3b
 1625 00bd 0B       		.uleb128 0xb
 1626 00be 01       		.uleb128 0x1
 1627 00bf 13       		.uleb128 0x13
 1628 00c0 00       		.byte	0
 1629 00c1 00       		.byte	0
 1630 00c2 11       		.uleb128 0x11
 1631 00c3 0D       		.uleb128 0xd
 1632 00c4 00       		.byte	0
 1633 00c5 03       		.uleb128 0x3
 1634 00c6 0E       		.uleb128 0xe
 1635 00c7 3A       		.uleb128 0x3a
 1636 00c8 0B       		.uleb128 0xb
 1637 00c9 3B       		.uleb128 0x3b
 1638 00ca 0B       		.uleb128 0xb
 1639 00cb 49       		.uleb128 0x49
ARM GAS  /tmp/ccRSxe19.s 			page 30


 1640 00cc 13       		.uleb128 0x13
 1641 00cd 00       		.byte	0
 1642 00ce 00       		.byte	0
 1643 00cf 12       		.uleb128 0x12
 1644 00d0 26       		.uleb128 0x26
 1645 00d1 00       		.byte	0
 1646 00d2 49       		.uleb128 0x49
 1647 00d3 13       		.uleb128 0x13
 1648 00d4 00       		.byte	0
 1649 00d5 00       		.byte	0
 1650 00d6 13       		.uleb128 0x13
 1651 00d7 15       		.uleb128 0x15
 1652 00d8 01       		.byte	0x1
 1653 00d9 27       		.uleb128 0x27
 1654 00da 0C       		.uleb128 0xc
 1655 00db 49       		.uleb128 0x49
 1656 00dc 13       		.uleb128 0x13
 1657 00dd 01       		.uleb128 0x1
 1658 00de 13       		.uleb128 0x13
 1659 00df 00       		.byte	0
 1660 00e0 00       		.byte	0
 1661 00e1 14       		.uleb128 0x14
 1662 00e2 01       		.uleb128 0x1
 1663 00e3 01       		.byte	0x1
 1664 00e4 49       		.uleb128 0x49
 1665 00e5 13       		.uleb128 0x13
 1666 00e6 01       		.uleb128 0x1
 1667 00e7 13       		.uleb128 0x13
 1668 00e8 00       		.byte	0
 1669 00e9 00       		.byte	0
 1670 00ea 15       		.uleb128 0x15
 1671 00eb 21       		.uleb128 0x21
 1672 00ec 00       		.byte	0
 1673 00ed 49       		.uleb128 0x49
 1674 00ee 13       		.uleb128 0x13
 1675 00ef 2F       		.uleb128 0x2f
 1676 00f0 0B       		.uleb128 0xb
 1677 00f1 00       		.byte	0
 1678 00f2 00       		.byte	0
 1679 00f3 16       		.uleb128 0x16
 1680 00f4 2E       		.uleb128 0x2e
 1681 00f5 01       		.byte	0x1
 1682 00f6 3F       		.uleb128 0x3f
 1683 00f7 0C       		.uleb128 0xc
 1684 00f8 03       		.uleb128 0x3
 1685 00f9 0E       		.uleb128 0xe
 1686 00fa 3A       		.uleb128 0x3a
 1687 00fb 0B       		.uleb128 0xb
 1688 00fc 3B       		.uleb128 0x3b
 1689 00fd 0B       		.uleb128 0xb
 1690 00fe 27       		.uleb128 0x27
 1691 00ff 0C       		.uleb128 0xc
 1692 0100 11       		.uleb128 0x11
 1693 0101 01       		.uleb128 0x1
 1694 0102 12       		.uleb128 0x12
 1695 0103 01       		.uleb128 0x1
 1696 0104 40       		.uleb128 0x40
ARM GAS  /tmp/ccRSxe19.s 			page 31


 1697 0105 0A       		.uleb128 0xa
 1698 0106 9742     		.uleb128 0x2117
 1699 0108 0C       		.uleb128 0xc
 1700 0109 01       		.uleb128 0x1
 1701 010a 13       		.uleb128 0x13
 1702 010b 00       		.byte	0
 1703 010c 00       		.byte	0
 1704 010d 17       		.uleb128 0x17
 1705 010e 05       		.uleb128 0x5
 1706 010f 00       		.byte	0
 1707 0110 03       		.uleb128 0x3
 1708 0111 08       		.uleb128 0x8
 1709 0112 3A       		.uleb128 0x3a
 1710 0113 0B       		.uleb128 0xb
 1711 0114 3B       		.uleb128 0x3b
 1712 0115 0B       		.uleb128 0xb
 1713 0116 49       		.uleb128 0x49
 1714 0117 13       		.uleb128 0x13
 1715 0118 02       		.uleb128 0x2
 1716 0119 0A       		.uleb128 0xa
 1717 011a 00       		.byte	0
 1718 011b 00       		.byte	0
 1719 011c 18       		.uleb128 0x18
 1720 011d 2E       		.uleb128 0x2e
 1721 011e 01       		.byte	0x1
 1722 011f 3F       		.uleb128 0x3f
 1723 0120 0C       		.uleb128 0xc
 1724 0121 03       		.uleb128 0x3
 1725 0122 0E       		.uleb128 0xe
 1726 0123 3A       		.uleb128 0x3a
 1727 0124 0B       		.uleb128 0xb
 1728 0125 3B       		.uleb128 0x3b
 1729 0126 0B       		.uleb128 0xb
 1730 0127 27       		.uleb128 0x27
 1731 0128 0C       		.uleb128 0xc
 1732 0129 11       		.uleb128 0x11
 1733 012a 01       		.uleb128 0x1
 1734 012b 12       		.uleb128 0x12
 1735 012c 01       		.uleb128 0x1
 1736 012d 40       		.uleb128 0x40
 1737 012e 06       		.uleb128 0x6
 1738 012f 9742     		.uleb128 0x2117
 1739 0131 0C       		.uleb128 0xc
 1740 0132 01       		.uleb128 0x1
 1741 0133 13       		.uleb128 0x13
 1742 0134 00       		.byte	0
 1743 0135 00       		.byte	0
 1744 0136 19       		.uleb128 0x19
 1745 0137 34       		.uleb128 0x34
 1746 0138 00       		.byte	0
 1747 0139 03       		.uleb128 0x3
 1748 013a 0E       		.uleb128 0xe
 1749 013b 3A       		.uleb128 0x3a
 1750 013c 0B       		.uleb128 0xb
 1751 013d 3B       		.uleb128 0x3b
 1752 013e 0B       		.uleb128 0xb
 1753 013f 49       		.uleb128 0x49
ARM GAS  /tmp/ccRSxe19.s 			page 32


 1754 0140 13       		.uleb128 0x13
 1755 0141 02       		.uleb128 0x2
 1756 0142 0A       		.uleb128 0xa
 1757 0143 00       		.byte	0
 1758 0144 00       		.byte	0
 1759 0145 1A       		.uleb128 0x1a
 1760 0146 0B       		.uleb128 0xb
 1761 0147 01       		.byte	0x1
 1762 0148 11       		.uleb128 0x11
 1763 0149 01       		.uleb128 0x1
 1764 014a 12       		.uleb128 0x12
 1765 014b 01       		.uleb128 0x1
 1766 014c 01       		.uleb128 0x1
 1767 014d 13       		.uleb128 0x13
 1768 014e 00       		.byte	0
 1769 014f 00       		.byte	0
 1770 0150 1B       		.uleb128 0x1b
 1771 0151 34       		.uleb128 0x34
 1772 0152 00       		.byte	0
 1773 0153 03       		.uleb128 0x3
 1774 0154 08       		.uleb128 0x8
 1775 0155 3A       		.uleb128 0x3a
 1776 0156 0B       		.uleb128 0xb
 1777 0157 3B       		.uleb128 0x3b
 1778 0158 0B       		.uleb128 0xb
 1779 0159 49       		.uleb128 0x49
 1780 015a 13       		.uleb128 0x13
 1781 015b 02       		.uleb128 0x2
 1782 015c 06       		.uleb128 0x6
 1783 015d 00       		.byte	0
 1784 015e 00       		.byte	0
 1785 015f 1C       		.uleb128 0x1c
 1786 0160 898201   		.uleb128 0x4109
 1787 0163 00       		.byte	0
 1788 0164 11       		.uleb128 0x11
 1789 0165 01       		.uleb128 0x1
 1790 0166 31       		.uleb128 0x31
 1791 0167 13       		.uleb128 0x13
 1792 0168 00       		.byte	0
 1793 0169 00       		.byte	0
 1794 016a 1D       		.uleb128 0x1d
 1795 016b 898201   		.uleb128 0x4109
 1796 016e 01       		.byte	0x1
 1797 016f 11       		.uleb128 0x11
 1798 0170 01       		.uleb128 0x1
 1799 0171 31       		.uleb128 0x31
 1800 0172 13       		.uleb128 0x13
 1801 0173 01       		.uleb128 0x1
 1802 0174 13       		.uleb128 0x13
 1803 0175 00       		.byte	0
 1804 0176 00       		.byte	0
 1805 0177 1E       		.uleb128 0x1e
 1806 0178 8A8201   		.uleb128 0x410a
 1807 017b 00       		.byte	0
 1808 017c 02       		.uleb128 0x2
 1809 017d 0A       		.uleb128 0xa
 1810 017e 9142     		.uleb128 0x2111
ARM GAS  /tmp/ccRSxe19.s 			page 33


 1811 0180 0A       		.uleb128 0xa
 1812 0181 00       		.byte	0
 1813 0182 00       		.byte	0
 1814 0183 1F       		.uleb128 0x1f
 1815 0184 898201   		.uleb128 0x4109
 1816 0187 01       		.byte	0x1
 1817 0188 11       		.uleb128 0x11
 1818 0189 01       		.uleb128 0x1
 1819 018a 31       		.uleb128 0x31
 1820 018b 13       		.uleb128 0x13
 1821 018c 00       		.byte	0
 1822 018d 00       		.byte	0
 1823 018e 20       		.uleb128 0x20
 1824 018f 2E       		.uleb128 0x2e
 1825 0190 01       		.byte	0x1
 1826 0191 3F       		.uleb128 0x3f
 1827 0192 0C       		.uleb128 0xc
 1828 0193 03       		.uleb128 0x3
 1829 0194 0E       		.uleb128 0xe
 1830 0195 3A       		.uleb128 0x3a
 1831 0196 0B       		.uleb128 0xb
 1832 0197 3B       		.uleb128 0x3b
 1833 0198 0B       		.uleb128 0xb
 1834 0199 27       		.uleb128 0x27
 1835 019a 0C       		.uleb128 0xc
 1836 019b 11       		.uleb128 0x11
 1837 019c 01       		.uleb128 0x1
 1838 019d 12       		.uleb128 0x12
 1839 019e 01       		.uleb128 0x1
 1840 019f 40       		.uleb128 0x40
 1841 01a0 06       		.uleb128 0x6
 1842 01a1 9642     		.uleb128 0x2116
 1843 01a3 0C       		.uleb128 0xc
 1844 01a4 01       		.uleb128 0x1
 1845 01a5 13       		.uleb128 0x13
 1846 01a6 00       		.byte	0
 1847 01a7 00       		.byte	0
 1848 01a8 21       		.uleb128 0x21
 1849 01a9 0B       		.uleb128 0xb
 1850 01aa 01       		.byte	0x1
 1851 01ab 11       		.uleb128 0x11
 1852 01ac 01       		.uleb128 0x1
 1853 01ad 12       		.uleb128 0x12
 1854 01ae 01       		.uleb128 0x1
 1855 01af 00       		.byte	0
 1856 01b0 00       		.byte	0
 1857 01b1 22       		.uleb128 0x22
 1858 01b2 34       		.uleb128 0x34
 1859 01b3 00       		.byte	0
 1860 01b4 03       		.uleb128 0x3
 1861 01b5 0E       		.uleb128 0xe
 1862 01b6 3A       		.uleb128 0x3a
 1863 01b7 0B       		.uleb128 0xb
 1864 01b8 3B       		.uleb128 0x3b
 1865 01b9 0B       		.uleb128 0xb
 1866 01ba 49       		.uleb128 0x49
 1867 01bb 13       		.uleb128 0x13
ARM GAS  /tmp/ccRSxe19.s 			page 34


 1868 01bc 3F       		.uleb128 0x3f
 1869 01bd 0C       		.uleb128 0xc
 1870 01be 3C       		.uleb128 0x3c
 1871 01bf 0C       		.uleb128 0xc
 1872 01c0 00       		.byte	0
 1873 01c1 00       		.byte	0
 1874 01c2 23       		.uleb128 0x23
 1875 01c3 34       		.uleb128 0x34
 1876 01c4 00       		.byte	0
 1877 01c5 03       		.uleb128 0x3
 1878 01c6 0E       		.uleb128 0xe
 1879 01c7 3A       		.uleb128 0x3a
 1880 01c8 0B       		.uleb128 0xb
 1881 01c9 3B       		.uleb128 0x3b
 1882 01ca 0B       		.uleb128 0xb
 1883 01cb 49       		.uleb128 0x49
 1884 01cc 13       		.uleb128 0x13
 1885 01cd 3F       		.uleb128 0x3f
 1886 01ce 0C       		.uleb128 0xc
 1887 01cf 02       		.uleb128 0x2
 1888 01d0 0A       		.uleb128 0xa
 1889 01d1 00       		.byte	0
 1890 01d2 00       		.byte	0
 1891 01d3 24       		.uleb128 0x24
 1892 01d4 2E       		.uleb128 0x2e
 1893 01d5 00       		.byte	0
 1894 01d6 3F       		.uleb128 0x3f
 1895 01d7 0C       		.uleb128 0xc
 1896 01d8 03       		.uleb128 0x3
 1897 01d9 0E       		.uleb128 0xe
 1898 01da 3A       		.uleb128 0x3a
 1899 01db 0B       		.uleb128 0xb
 1900 01dc 3B       		.uleb128 0x3b
 1901 01dd 05       		.uleb128 0x5
 1902 01de 27       		.uleb128 0x27
 1903 01df 0C       		.uleb128 0xc
 1904 01e0 3C       		.uleb128 0x3c
 1905 01e1 0C       		.uleb128 0xc
 1906 01e2 00       		.byte	0
 1907 01e3 00       		.byte	0
 1908 01e4 25       		.uleb128 0x25
 1909 01e5 2E       		.uleb128 0x2e
 1910 01e6 00       		.byte	0
 1911 01e7 3F       		.uleb128 0x3f
 1912 01e8 0C       		.uleb128 0xc
 1913 01e9 03       		.uleb128 0x3
 1914 01ea 0E       		.uleb128 0xe
 1915 01eb 3A       		.uleb128 0x3a
 1916 01ec 0B       		.uleb128 0xb
 1917 01ed 3B       		.uleb128 0x3b
 1918 01ee 0B       		.uleb128 0xb
 1919 01ef 27       		.uleb128 0x27
 1920 01f0 0C       		.uleb128 0xc
 1921 01f1 3C       		.uleb128 0x3c
 1922 01f2 0C       		.uleb128 0xc
 1923 01f3 00       		.byte	0
 1924 01f4 00       		.byte	0
ARM GAS  /tmp/ccRSxe19.s 			page 35


 1925 01f5 26       		.uleb128 0x26
 1926 01f6 2E       		.uleb128 0x2e
 1927 01f7 01       		.byte	0x1
 1928 01f8 3F       		.uleb128 0x3f
 1929 01f9 0C       		.uleb128 0xc
 1930 01fa 03       		.uleb128 0x3
 1931 01fb 0E       		.uleb128 0xe
 1932 01fc 3A       		.uleb128 0x3a
 1933 01fd 0B       		.uleb128 0xb
 1934 01fe 3B       		.uleb128 0x3b
 1935 01ff 05       		.uleb128 0x5
 1936 0200 27       		.uleb128 0x27
 1937 0201 0C       		.uleb128 0xc
 1938 0202 49       		.uleb128 0x49
 1939 0203 13       		.uleb128 0x13
 1940 0204 3C       		.uleb128 0x3c
 1941 0205 0C       		.uleb128 0xc
 1942 0206 01       		.uleb128 0x1
 1943 0207 13       		.uleb128 0x13
 1944 0208 00       		.byte	0
 1945 0209 00       		.byte	0
 1946 020a 27       		.uleb128 0x27
 1947 020b 2E       		.uleb128 0x2e
 1948 020c 01       		.byte	0x1
 1949 020d 3F       		.uleb128 0x3f
 1950 020e 0C       		.uleb128 0xc
 1951 020f 03       		.uleb128 0x3
 1952 0210 0E       		.uleb128 0xe
 1953 0211 3A       		.uleb128 0x3a
 1954 0212 0B       		.uleb128 0xb
 1955 0213 3B       		.uleb128 0x3b
 1956 0214 05       		.uleb128 0x5
 1957 0215 27       		.uleb128 0x27
 1958 0216 0C       		.uleb128 0xc
 1959 0217 49       		.uleb128 0x49
 1960 0218 13       		.uleb128 0x13
 1961 0219 3C       		.uleb128 0x3c
 1962 021a 0C       		.uleb128 0xc
 1963 021b 00       		.byte	0
 1964 021c 00       		.byte	0
 1965 021d 00       		.byte	0
 1966              		.section	.debug_loc,"",%progbits
 1967              	.Ldebug_loc0:
 1968              	.LLST0:
 1969 0000 00000000 		.4byte	.LFB8
 1970 0004 02000000 		.4byte	.LCFI0
 1971 0008 0200     		.2byte	0x2
 1972 000a 7D       		.byte	0x7d
 1973 000b 00       		.sleb128 0
 1974 000c 02000000 		.4byte	.LCFI0
 1975 0010 04000000 		.4byte	.LCFI1
 1976 0014 0200     		.2byte	0x2
 1977 0016 7D       		.byte	0x7d
 1978 0017 0C       		.sleb128 12
 1979 0018 04000000 		.4byte	.LCFI1
 1980 001c 66000000 		.4byte	.LFE8
 1981 0020 0200     		.2byte	0x2
ARM GAS  /tmp/ccRSxe19.s 			page 36


 1982 0022 7D       		.byte	0x7d
 1983 0023 18       		.sleb128 24
 1984 0024 00000000 		.4byte	0
 1985 0028 00000000 		.4byte	0
 1986              	.LLST1:
 1987 002c 3C000000 		.4byte	.LVL8
 1988 0030 54000000 		.4byte	.LVL9
 1989 0034 0100     		.2byte	0x1
 1990 0036 53       		.byte	0x53
 1991 0037 00000000 		.4byte	0
 1992 003b 00000000 		.4byte	0
 1993              	.LLST2:
 1994 003f 00000000 		.4byte	.LFB9
 1995 0043 02000000 		.4byte	.LCFI2
 1996 0047 0200     		.2byte	0x2
 1997 0049 7D       		.byte	0x7d
 1998 004a 00       		.sleb128 0
 1999 004b 02000000 		.4byte	.LCFI2
 2000 004f 58000000 		.4byte	.LFE9
 2001 0053 0200     		.2byte	0x2
 2002 0055 7D       		.byte	0x7d
 2003 0056 10       		.sleb128 16
 2004 0057 00000000 		.4byte	0
 2005 005b 00000000 		.4byte	0
 2006              	.LLST3:
 2007 005f 28000000 		.4byte	.LVL11
 2008 0063 3D000000 		.4byte	.LVL15-1
 2009 0067 0100     		.2byte	0x1
 2010 0069 52       		.byte	0x52
 2011 006a 46000000 		.4byte	.LVL18
 2012 006e 4C000000 		.4byte	.LVL20
 2013 0072 0100     		.2byte	0x1
 2014 0074 52       		.byte	0x52
 2015 0075 00000000 		.4byte	0
 2016 0079 00000000 		.4byte	0
 2017              	.LLST4:
 2018 007d 2E000000 		.4byte	.LVL12
 2019 0081 3D000000 		.4byte	.LVL15-1
 2020 0085 0100     		.2byte	0x1
 2021 0087 51       		.byte	0x51
 2022 0088 00000000 		.4byte	0
 2023 008c 00000000 		.4byte	0
 2024              	.LLST5:
 2025 0090 3A000000 		.4byte	.LVL14
 2026 0094 3D000000 		.4byte	.LVL15-1
 2027 0098 0100     		.2byte	0x1
 2028 009a 53       		.byte	0x53
 2029 009b 00000000 		.4byte	0
 2030 009f 00000000 		.4byte	0
 2031              	.LLST6:
 2032 00a3 44000000 		.4byte	.LVL17
 2033 00a7 48000000 		.4byte	.LVL19
 2034 00ab 0100     		.2byte	0x1
 2035 00ad 53       		.byte	0x53
 2036 00ae 00000000 		.4byte	0
 2037 00b2 00000000 		.4byte	0
 2038              		.section	.debug_aranges,"",%progbits
ARM GAS  /tmp/ccRSxe19.s 			page 37


 2039 0000 2C000000 		.4byte	0x2c
 2040 0004 0200     		.2byte	0x2
 2041 0006 00000000 		.4byte	.Ldebug_info0
 2042 000a 04       		.byte	0x4
 2043 000b 00       		.byte	0
 2044 000c 0000     		.2byte	0
 2045 000e 0000     		.2byte	0
 2046 0010 00000000 		.4byte	.LFB7
 2047 0014 14000000 		.4byte	.LFE7-.LFB7
 2048 0018 00000000 		.4byte	.LFB8
 2049 001c 66000000 		.4byte	.LFE8-.LFB8
 2050 0020 00000000 		.4byte	.LFB9
 2051 0024 58000000 		.4byte	.LFE9-.LFB9
 2052 0028 00000000 		.4byte	0
 2053 002c 00000000 		.4byte	0
 2054              		.section	.debug_ranges,"",%progbits
 2055              	.Ldebug_ranges0:
 2056 0000 00000000 		.4byte	.LFB7
 2057 0004 14000000 		.4byte	.LFE7
 2058 0008 00000000 		.4byte	.LFB8
 2059 000c 66000000 		.4byte	.LFE8
 2060 0010 00000000 		.4byte	.LFB9
 2061 0014 58000000 		.4byte	.LFE9
 2062 0018 00000000 		.4byte	0
 2063 001c 00000000 		.4byte	0
 2064              		.section	.debug_line,"",%progbits
 2065              	.Ldebug_line0:
 2066 0000 21020000 		.section	.debug_str,"MS",%progbits,1
 2066      0200C901 
 2066      00000201 
 2066      FB0E0D00 
 2066      01010101 
 2067              	.LASF76:
 2068 0000 7466756E 		.ascii	"tfunc_t\000"
 2068      635F7400 
 2069              	.LASF87:
 2070 0008 63665F6F 		.ascii	"cf_off_older\000"
 2070      66665F6F 
 2070      6C646572 
 2070      00
 2071              	.LASF39:
 2072 0015 705F6D73 		.ascii	"p_msg\000"
 2072      6700
 2073              	.LASF2:
 2074 001b 73697A65 		.ascii	"size_t\000"
 2074      5F7400
 2075              	.LASF71:
 2076 0022 7264796D 		.ascii	"rdymsg\000"
 2076      736700
 2077              	.LASF13:
 2078 0029 75696E74 		.ascii	"uint64_t\000"
 2078      36345F74 
 2078      00
 2079              	.LASF100:
 2080 0032 76746C69 		.ascii	"vtlist\000"
 2080      737400
 2081              	.LASF99:
ARM GAS  /tmp/ccRSxe19.s 			page 38


 2082 0039 63685379 		.ascii	"chSysTimerHandlerI\000"
 2082      7354696D 
 2082      65724861 
 2082      6E646C65 
 2082      724900
 2083              	.LASF14:
 2084 004c 6C6F6E67 		.ascii	"long long unsigned int\000"
 2084      206C6F6E 
 2084      6720756E 
 2084      7369676E 
 2084      65642069 
 2085              	.LASF83:
 2086 0063 63685F74 		.ascii	"ch_threadsize\000"
 2086      68726561 
 2086      6473697A 
 2086      6500
 2087              	.LASF72:
 2088 0071 65786974 		.ascii	"exitcode\000"
 2088      636F6465 
 2088      00
 2089              	.LASF98:
 2090 007a 6D61696E 		.ascii	"mainthread\000"
 2090      74687265 
 2090      616400
 2091              	.LASF27:
 2092 0085 705F7072 		.ascii	"p_prio\000"
 2092      696F00
 2093              	.LASF90:
 2094 008c 63665F6F 		.ascii	"cf_off_state\000"
 2094      66665F73 
 2094      74617465 
 2094      00
 2095              	.LASF105:
 2096 0099 5F736368 		.ascii	"_scheduler_init\000"
 2096      6564756C 
 2096      65725F69 
 2096      6E697400 
 2097              	.LASF12:
 2098 00a9 6C6F6E67 		.ascii	"long long int\000"
 2098      206C6F6E 
 2098      6720696E 
 2098      7400
 2099              	.LASF1:
 2100 00b7 7369676E 		.ascii	"signed char\000"
 2100      65642063 
 2100      68617200 
 2101              	.LASF89:
 2102 00c3 63665F6F 		.ascii	"cf_off_stklimit\000"
 2102      66665F73 
 2102      746B6C69 
 2102      6D697400 
 2103              	.LASF91:
 2104 00d3 63665F6F 		.ascii	"cf_off_flags\000"
 2104      66665F66 
 2104      6C616773 
 2104      00
 2105              	.LASF43:
ARM GAS  /tmp/ccRSxe19.s 			page 39


 2106 00e0 705F6D70 		.ascii	"p_mpool\000"
 2106      6F6F6C00 
 2107              	.LASF68:
 2108 00e8 6D5F7175 		.ascii	"m_queue\000"
 2108      65756500 
 2109              	.LASF19:
 2110 00f0 74736C69 		.ascii	"tslices_t\000"
 2110      6365735F 
 2110      7400
 2111              	.LASF9:
 2112 00fa 6C6F6E67 		.ascii	"long int\000"
 2112      20696E74 
 2112      00
 2113              	.LASF17:
 2114 0103 74737461 		.ascii	"tstate_t\000"
 2114      74655F74 
 2114      00
 2115              	.LASF6:
 2116 010c 75696E74 		.ascii	"uint16_t\000"
 2116      31365F74 
 2116      00
 2117              	.LASF95:
 2118 0115 63686465 		.ascii	"chdebug_t\000"
 2118      6275675F 
 2118      7400
 2119              	.LASF29:
 2120 011f 705F6E65 		.ascii	"p_newer\000"
 2120      77657200 
 2121              	.LASF103:
 2122 0127 5F69646C 		.ascii	"_idle_thread_wa\000"
 2122      655F7468 
 2122      72656164 
 2122      5F776100 
 2123              	.LASF63:
 2124 0137 725F6E65 		.ascii	"r_newer\000"
 2124      77657200 
 2125              	.LASF46:
 2126 013f 72656761 		.ascii	"regarm_t\000"
 2126      726D5F74 
 2126      00
 2127              	.LASF54:
 2128 0148 76745F70 		.ascii	"vt_prev\000"
 2128      72657600 
 2129              	.LASF97:
 2130 0150 63685379 		.ascii	"chSysInit\000"
 2130      73496E69 
 2130      7400
 2131              	.LASF108:
 2132 015a 5F686561 		.ascii	"_heap_init\000"
 2132      705F696E 
 2132      697400
 2133              	.LASF0:
 2134 0165 756E7369 		.ascii	"unsigned int\000"
 2134      676E6564 
 2134      20696E74 
 2134      00
 2135              	.LASF111:
ARM GAS  /tmp/ccRSxe19.s 			page 40


 2136 0172 5F746872 		.ascii	"_thread_init\000"
 2136      6561645F 
 2136      696E6974 
 2136      00
 2137              	.LASF53:
 2138 017f 76745F6E 		.ascii	"vt_next\000"
 2138      65787400 
 2139              	.LASF11:
 2140 0187 6C6F6E67 		.ascii	"long unsigned int\000"
 2140      20756E73 
 2140      69676E65 
 2140      6420696E 
 2140      7400
 2141              	.LASF102:
 2142 0199 63685F64 		.ascii	"ch_debug\000"
 2142      65627567 
 2142      00
 2143              	.LASF77:
 2144 01a2 63685F69 		.ascii	"ch_identifier\000"
 2144      64656E74 
 2144      69666965 
 2144      7200
 2145              	.LASF49:
 2146 01b0 636F6E74 		.ascii	"context\000"
 2146      65787400 
 2147              	.LASF7:
 2148 01b8 73686F72 		.ascii	"short unsigned int\000"
 2148      7420756E 
 2148      7369676E 
 2148      65642069 
 2148      6E7400
 2149              	.LASF21:
 2150 01cb 6D73675F 		.ascii	"msg_t\000"
 2150      7400
 2151              	.LASF16:
 2152 01d1 746D6F64 		.ascii	"tmode_t\000"
 2152      655F7400 
 2153              	.LASF45:
 2154 01d9 54687265 		.ascii	"ThreadsList\000"
 2154      6164734C 
 2154      69737400 
 2155              	.LASF22:
 2156 01e5 6576656E 		.ascii	"eventmask_t\000"
 2156      746D6173 
 2156      6B5F7400 
 2157              	.LASF67:
 2158 01f1 4D757465 		.ascii	"Mutex\000"
 2158      7800
 2159              	.LASF47:
 2160 01f7 73746B61 		.ascii	"stkalign_t\000"
 2160      6C69676E 
 2160      5F7400
 2161              	.LASF112:
 2162 0202 63685468 		.ascii	"chThdCreateStatic\000"
 2162      64437265 
 2162      61746553 
 2162      74617469 
ARM GAS  /tmp/ccRSxe19.s 			page 41


 2162      6300
 2163              	.LASF78:
 2164 0214 63685F7A 		.ascii	"ch_zero\000"
 2164      65726F00 
 2165              	.LASF92:
 2166 021c 63665F6F 		.ascii	"cf_off_refs\000"
 2166      66665F72 
 2166      65667300 
 2167              	.LASF55:
 2168 0228 76745F74 		.ascii	"vt_time\000"
 2168      696D6500 
 2169              	.LASF50:
 2170 0230 73697A65 		.ascii	"sizetype\000"
 2170      74797065 
 2170      00
 2171              	.LASF56:
 2172 0239 76745F66 		.ascii	"vt_func\000"
 2172      756E6300 
 2173              	.LASF82:
 2174 0241 63685F74 		.ascii	"ch_timesize\000"
 2174      696D6573 
 2174      697A6500 
 2175              	.LASF88:
 2176 024d 63665F6F 		.ascii	"cf_off_name\000"
 2176      66665F6E 
 2176      616D6500 
 2177              	.LASF30:
 2178 0259 705F6F6C 		.ascii	"p_older\000"
 2178      64657200 
 2179              	.LASF62:
 2180 0261 725F6374 		.ascii	"r_ctx\000"
 2180      7800
 2181              	.LASF44:
 2182 0267 54687265 		.ascii	"ThreadsQueue\000"
 2182      61647351 
 2182      75657565 
 2182      00
 2183              	.LASF79:
 2184 0274 63685F73 		.ascii	"ch_size\000"
 2184      697A6500 
 2185              	.LASF65:
 2186 027c 725F6375 		.ascii	"r_current\000"
 2186      7272656E 
 2186      7400
 2187              	.LASF64:
 2188 0286 725F6F6C 		.ascii	"r_older\000"
 2188      64657200 
 2189              	.LASF96:
 2190 028e 5F69646C 		.ascii	"_idle_thread\000"
 2190      655F7468 
 2190      72656164 
 2190      00
 2191              	.LASF18:
 2192 029b 74726566 		.ascii	"trefs_t\000"
 2192      735F7400 
 2193              	.LASF81:
 2194 02a3 63685F70 		.ascii	"ch_ptrsize\000"
ARM GAS  /tmp/ccRSxe19.s 			page 42


 2194      74727369 
 2194      7A6500
 2195              	.LASF26:
 2196 02ae 705F7072 		.ascii	"p_prev\000"
 2196      657600
 2197              	.LASF20:
 2198 02b5 74707269 		.ascii	"tprio_t\000"
 2198      6F5F7400 
 2199              	.LASF15:
 2200 02bd 5F426F6F 		.ascii	"_Bool\000"
 2200      6C00
 2201              	.LASF8:
 2202 02c3 696E7433 		.ascii	"int32_t\000"
 2202      325F7400 
 2203              	.LASF4:
 2204 02cb 756E7369 		.ascii	"unsigned char\000"
 2204      676E6564 
 2204      20636861 
 2204      7200
 2205              	.LASF107:
 2206 02d9 5F636F72 		.ascii	"_core_init\000"
 2206      655F696E 
 2206      697400
 2207              	.LASF41:
 2208 02e4 705F6D74 		.ascii	"p_mtxlist\000"
 2208      786C6973 
 2208      7400
 2209              	.LASF5:
 2210 02ee 73686F72 		.ascii	"short int\000"
 2210      7420696E 
 2210      7400
 2211              	.LASF32:
 2212 02f8 705F7374 		.ascii	"p_state\000"
 2212      61746500 
 2213              	.LASF35:
 2214 0300 705F7072 		.ascii	"p_preempt\000"
 2214      65656D70 
 2214      7400
 2215              	.LASF94:
 2216 030a 63665F6F 		.ascii	"cf_off_time\000"
 2216      66665F74 
 2216      696D6500 
 2217              	.LASF61:
 2218 0316 725F7072 		.ascii	"r_prio\000"
 2218      696F00
 2219              	.LASF74:
 2220 031d 65776D61 		.ascii	"ewmask\000"
 2220      736B00
 2221              	.LASF25:
 2222 0324 705F6E65 		.ascii	"p_next\000"
 2222      787400
 2223              	.LASF93:
 2224 032b 63665F6F 		.ascii	"cf_off_preempt\000"
 2224      66665F70 
 2224      7265656D 
 2224      707400
 2225              	.LASF33:
ARM GAS  /tmp/ccRSxe19.s 			page 43


 2226 033a 705F666C 		.ascii	"p_flags\000"
 2226      61677300 
 2227              	.LASF24:
 2228 0342 54687265 		.ascii	"Thread\000"
 2228      616400
 2229              	.LASF86:
 2230 0349 63665F6F 		.ascii	"cf_off_newer\000"
 2230      66665F6E 
 2230      65776572 
 2230      00
 2231              	.LASF110:
 2232 0356 2F686F6D 		.ascii	"/home/felix/Documents/ChibiOS/os/kernel/src/chsys.c"
 2232      652F6665 
 2232      6C69782F 
 2232      446F6375 
 2232      6D656E74 
 2233 0389 00       		.ascii	"\000"
 2234              	.LASF40:
 2235 038a 705F6570 		.ascii	"p_epending\000"
 2235      656E6469 
 2235      6E6700
 2236              	.LASF10:
 2237 0395 75696E74 		.ascii	"uint32_t\000"
 2237      33325F74 
 2237      00
 2238              	.LASF84:
 2239 039e 63665F6F 		.ascii	"cf_off_prio\000"
 2239      66665F70 
 2239      72696F00 
 2240              	.LASF60:
 2241 03aa 725F7175 		.ascii	"r_queue\000"
 2241      65756500 
 2242              	.LASF52:
 2243 03b2 56697274 		.ascii	"VirtualTimer\000"
 2243      75616C54 
 2243      696D6572 
 2243      00
 2244              	.LASF75:
 2245 03bf 63686172 		.ascii	"char\000"
 2245      00
 2246              	.LASF70:
 2247 03c4 6D5F6E65 		.ascii	"m_next\000"
 2247      787400
 2248              	.LASF23:
 2249 03cb 73797374 		.ascii	"systime_t\000"
 2249      696D655F 
 2249      7400
 2250              	.LASF42:
 2251 03d5 705F7265 		.ascii	"p_realprio\000"
 2251      616C7072 
 2251      696F00
 2252              	.LASF51:
 2253 03e0 76746675 		.ascii	"vtfunc_t\000"
 2253      6E635F74 
 2253      00
 2254              	.LASF106:
 2255 03e9 5F76745F 		.ascii	"_vt_init\000"
ARM GAS  /tmp/ccRSxe19.s 			page 44


 2255      696E6974 
 2255      00
 2256              	.LASF36:
 2257 03f2 705F7469 		.ascii	"p_time\000"
 2257      6D6500
 2258              	.LASF48:
 2259 03f9 696E7463 		.ascii	"intctx\000"
 2259      747800
 2260              	.LASF38:
 2261 0400 705F6D73 		.ascii	"p_msgqueue\000"
 2261      67717565 
 2261      756500
 2262              	.LASF57:
 2263 040b 76745F70 		.ascii	"vt_par\000"
 2263      617200
 2264              	.LASF85:
 2265 0412 63665F6F 		.ascii	"cf_off_ctx\000"
 2265      66665F63 
 2265      747800
 2266              	.LASF34:
 2267 041d 705F7265 		.ascii	"p_refs\000"
 2267      667300
 2268              	.LASF66:
 2269 0424 52656164 		.ascii	"ReadyList\000"
 2269      794C6973 
 2269      7400
 2270              	.LASF101:
 2271 042e 726C6973 		.ascii	"rlist\000"
 2271      7400
 2272              	.LASF3:
 2273 0434 75696E74 		.ascii	"uint8_t\000"
 2273      385F7400 
 2274              	.LASF109:
 2275 043c 474E5520 		.ascii	"GNU C 4.7.3 20121205 (prerelease)\000"
 2275      4320342E 
 2275      372E3320 
 2275      32303132 
 2275      31323035 
 2276              	.LASF104:
 2277 045e 5F706F72 		.ascii	"_port_init\000"
 2277      745F696E 
 2277      697400
 2278              	.LASF73:
 2279 0469 77746F62 		.ascii	"wtobjp\000"
 2279      6A7000
 2280              	.LASF31:
 2281 0470 705F6E61 		.ascii	"p_name\000"
 2281      6D6500
 2282              	.LASF58:
 2283 0477 76745F73 		.ascii	"vt_systime\000"
 2283      79737469 
 2283      6D6500
 2284              	.LASF80:
 2285 0482 63685F76 		.ascii	"ch_version\000"
 2285      65727369 
 2285      6F6E00
 2286              	.LASF59:
ARM GAS  /tmp/ccRSxe19.s 			page 45


 2287 048d 56544C69 		.ascii	"VTList\000"
 2287      737400
 2288              	.LASF69:
 2289 0494 6D5F6F77 		.ascii	"m_owner\000"
 2289      6E657200 
 2290              	.LASF28:
 2291 049c 705F6374 		.ascii	"p_ctx\000"
 2291      7800
 2292              	.LASF37:
 2293 04a2 705F7761 		.ascii	"p_waiting\000"
 2293      6974696E 
 2293      6700
 2294              		.ident	"GCC: (Linaro GCC 4.7-2012.12) 4.7.3 20121205 (prerelease)"
ARM GAS  /tmp/ccRSxe19.s 			page 46


DEFINED SYMBOLS
                            *ABS*:0000000000000000 chsys.c
     /tmp/ccRSxe19.s:19     .text._idle_thread:0000000000000000 $t
     /tmp/ccRSxe19.s:25     .text._idle_thread:0000000000000000 _idle_thread
     /tmp/ccRSxe19.s:44     .text._idle_thread:000000000000000c $d
     /tmp/ccRSxe19.s:50     .text.chSysInit:0000000000000000 $t
     /tmp/ccRSxe19.s:56     .text.chSysInit:0000000000000000 chSysInit
     /tmp/ccRSxe19.s:237    .bss.mainthread.4772:0000000000000000 .LANCHOR0
     /tmp/ccRSxe19.s:248    .bss._idle_thread_wa:0000000000000000 .LANCHOR1
     /tmp/ccRSxe19.s:136    .text.chSysTimerHandlerI:0000000000000000 $t
     /tmp/ccRSxe19.s:142    .text.chSysTimerHandlerI:0000000000000000 chSysTimerHandlerI
     /tmp/ccRSxe19.s:228    .text.chSysTimerHandlerI:0000000000000050 $d
     /tmp/ccRSxe19.s:251    .bss._idle_thread_wa:0000000000000000 _idle_thread_wa
     /tmp/ccRSxe19.s:236    .bss.mainthread.4772:0000000000000000 $d
     /tmp/ccRSxe19.s:240    .bss.mainthread.4772:0000000000000000 mainthread.4772
     /tmp/ccRSxe19.s:243    .rodata.str1.4:0000000000000000 $d
     /tmp/ccRSxe19.s:247    .bss._idle_thread_wa:0000000000000000 $d
                     .debug_frame:0000000000000010 $d
     /tmp/ccRSxe19.s:49     .text._idle_thread:0000000000000014 $t
     /tmp/ccRSxe19.s:235    .text.chSysTimerHandlerI:0000000000000058 $t

UNDEFINED SYMBOLS
rlist
_port_init
_scheduler_init
_vt_init
_core_init
_heap_init
_thread_init
ch_debug
chThdCreateStatic
vtlist
