ARM GAS  /tmp/cc5NjzmB.s 			page 1


   1              		.syntax unified
   2              		.cpu cortex-m4
   3              		.fpu softvfp
   4              		.eabi_attribute 20, 1
   5              		.eabi_attribute 21, 1
   6              		.eabi_attribute 23, 3
   7              		.eabi_attribute 24, 1
   8              		.eabi_attribute 25, 1
   9              		.eabi_attribute 26, 1
  10              		.eabi_attribute 30, 2
  11              		.eabi_attribute 34, 1
  12              		.eabi_attribute 18, 4
  13              		.thumb
  14              		.file	"hal_lld.c"
  15              		.text
  16              	.Ltext0:
  17              		.cfi_sections	.debug_frame
  18              		.section	.text.hal_lld_init,"ax",%progbits
  19              		.align	2
  20              		.p2align 4,,15
  21              		.global	hal_lld_init
  22              		.thumb
  23              		.thumb_func
  24              		.type	hal_lld_init, %function
  25              	hal_lld_init:
  26              	.LFB119:
  27              		.file 1 "/home/felix/Documents/ChibiOS/os/hal/platforms/STM32F4xx/hal_lld.c"
  28              		.loc 1 94 0
  29              		.cfi_startproc
  30              		@ args = 0, pretend = 0, frame = 0
  31              		@ frame_needed = 0, uses_anonymous_args = 0
  32              		@ link register save eliminated.
  33              		.loc 1 98 0
  34 0000 4FF46053 		mov	r3, #14336
  35 0004 C4F20203 		movt	r3, 16386
  36 0008 0022     		movs	r2, #0
  37 000a 4FF0FF30 		mov	r0, #-1
  38 000e 1969     		ldr	r1, [r3, #16]
  39              		.loc 1 94 0
  40 0010 F0B4     		push	{r4, r5, r6, r7}
  41              	.LCFI0:
  42              		.cfi_def_cfa_offset 16
  43              		.cfi_offset 4, -16
  44              		.cfi_offset 5, -12
  45              		.cfi_offset 6, -8
  46              		.cfi_offset 7, -4
  47              		.loc 1 98 0
  48 0012 1861     		str	r0, [r3, #16]
  49 0014 1A61     		str	r2, [r3, #16]
  50              		.loc 1 99 0
  51 0016 5969     		ldr	r1, [r3, #20]
  52 0018 5861     		str	r0, [r3, #20]
  53 001a 5A61     		str	r2, [r3, #20]
  54              		.loc 1 100 0
  55 001c 9969     		ldr	r1, [r3, #24]
  56 001e 9861     		str	r0, [r3, #24]
  57 0020 9A61     		str	r2, [r3, #24]
ARM GAS  /tmp/cc5NjzmB.s 			page 2


  58              		.loc 1 101 0
  59 0022 1E6A     		ldr	r6, [r3, #32]
  60              		.loc 1 105 0
  61 0024 4EF21001 		movw	r1, #57360
  62 0028 CEF20001 		movt	r1, 57344
  63              		.loc 1 101 0
  64 002c 66F08056 		orn	r6, r6, #268435456
  65              		.loc 1 105 0
  66 0030 49F23F05 		movw	r5, #36927
  67              		.loc 1 112 0
  68 0034 4EF6F054 		movw	r4, #60912
  69              		.loc 1 101 0
  70 0038 1E62     		str	r6, [r3, #32]
  71              		.loc 1 112 0
  72 003a CEF20004 		movt	r4, 57344
  73              		.loc 1 101 0
  74 003e 1A62     		str	r2, [r3, #32]
  75              		.loc 1 105 0
  76 0040 C0F20205 		movt	r5, 2
  77              		.loc 1 107 0
  78 0044 0726     		movs	r6, #7
  79              		.loc 1 102 0
  80 0046 5F6A     		ldr	r7, [r3, #36]
  81 0048 5862     		str	r0, [r3, #36]
  82 004a 5A62     		str	r2, [r3, #36]
  83              		.loc 1 105 0
  84 004c 4D60     		str	r5, [r1, #4]
  85              		.loc 1 106 0
  86 004e 8A60     		str	r2, [r1, #8]
  87              		.loc 1 107 0
  88 0050 0E60     		str	r6, [r1, #0]
  89              		.loc 1 112 0
  90 0052 E068     		ldr	r0, [r4, #12]
  91              		.loc 1 113 0
  92 0054 4FF48051 		mov	r1, #4096
  93 0058 CEF20001 		movt	r1, 57344
  94              		.loc 1 112 0
  95 005c 40F08070 		orr	r0, r0, #16777216
  96 0060 E060     		str	r0, [r4, #12]
  97              		.loc 1 113 0
  98 0062 0868     		ldr	r0, [r1, #0]
  99 0064 40F00100 		orr	r0, r0, #1
 100 0068 0860     		str	r0, [r1, #0]
 101              		.loc 1 116 0
 102 006a 186C     		ldr	r0, [r3, #64]
 103              	.LBB4:
 104              	.LBB5:
 105              		.loc 1 52 0
 106 006c 4FF4E041 		mov	r1, #28672
 107 0070 C4F20001 		movt	r1, 16384
 108              	.LBE5:
 109              	.LBE4:
 110              		.loc 1 116 0
 111 0074 40F08050 		orr	r0, r0, #268435456
 112 0078 1864     		str	r0, [r3, #64]
 113              	.LBB7:
 114              	.LBB6:
ARM GAS  /tmp/cc5NjzmB.s 			page 3


 115              		.loc 1 52 0
 116 007a 0868     		ldr	r0, [r1, #0]
 117 007c 40F48070 		orr	r0, r0, #256
 118 0080 0860     		str	r0, [r1, #0]
 119              		.loc 1 55 0
 120 0082 196F     		ldr	r1, [r3, #112]
 121 0084 01F44071 		and	r1, r1, #768
 122 0088 B1F5007F 		cmp	r1, #512
 123              		.loc 1 57 0
 124 008c 1EBF     		ittt	ne
 125 008e 4FF48031 		movne	r1, #65536
 126 0092 1967     		strne	r1, [r3, #112]
 127              		.loc 1 58 0
 128 0094 1A67     		strne	r2, [r3, #112]
 129              		.loc 1 71 0
 130 0096 4FF46053 		mov	r3, #14336
 131 009a C4F20203 		movt	r3, 16386
 132 009e 1A6F     		ldr	r2, [r3, #112]
 133 00a0 1204     		lsls	r2, r2, #16
 134 00a2 07D4     		bmi	.L3
 135              		.loc 1 73 0
 136 00a4 1A6F     		ldr	r2, [r3, #112]
 137 00a6 42F40072 		orr	r2, r2, #512
 138 00aa 1A67     		str	r2, [r3, #112]
 139              		.loc 1 76 0
 140 00ac 1A6F     		ldr	r2, [r3, #112]
 141 00ae 42F40042 		orr	r2, r2, #32768
 142 00b2 1A67     		str	r2, [r3, #112]
 143              	.L3:
 144              	.LBE6:
 145              	.LBE7:
 146              		.loc 1 129 0
 147 00b4 F0BC     		pop	{r4, r5, r6, r7}
 148              		.loc 1 122 0
 149 00b6 FFF7FEBF 		b	dmaInit
 150              	.LVL0:
 151              		.cfi_endproc
 152              	.LFE119:
 153              		.size	hal_lld_init, .-hal_lld_init
 154 00ba 00BFAFF3 		.section	.text.stm32_clock_init,"ax",%progbits
 154      0080
 155              		.align	2
 156              		.p2align 4,,15
 157              		.global	stm32_clock_init
 158              		.thumb
 159              		.thumb_func
 160              		.type	stm32_clock_init, %function
 161              	stm32_clock_init:
 162              	.LFB120:
 163              		.loc 1 138 0
 164              		.cfi_startproc
 165              		@ args = 0, pretend = 0, frame = 0
 166              		@ frame_needed = 0, uses_anonymous_args = 0
 167              		@ link register save eliminated.
 168              		.loc 1 142 0
 169 0000 4FF46052 		mov	r2, #14336
 170              		.loc 1 146 0
ARM GAS  /tmp/cc5NjzmB.s 			page 4


 171 0004 4FF4E043 		mov	r3, #28672
 172              		.loc 1 142 0
 173 0008 C4F20202 		movt	r2, 16386
 174              		.loc 1 146 0
 175 000c C4F20003 		movt	r3, 16384
 176              		.loc 1 142 0
 177 0010 4FF08050 		mov	r0, #268435456
 178              		.loc 1 146 0
 179 0014 4FF48041 		mov	r1, #16384
 180              		.loc 1 142 0
 181 0018 1064     		str	r0, [r2, #64]
 182              		.loc 1 147 0
 183 001a 1A46     		mov	r2, r3
 184              		.loc 1 146 0
 185 001c 1960     		str	r1, [r3, #0]
 186              	.L9:
 187              		.loc 1 147 0 discriminator 1
 188 001e 5368     		ldr	r3, [r2, #4]
 189 0020 5904     		lsls	r1, r3, #17
 190 0022 FCD5     		bpl	.L9
 191              		.loc 1 155 0
 192 0024 4FF46053 		mov	r3, #14336
 193 0028 C4F20203 		movt	r3, 16386
 194              		.loc 1 156 0
 195 002c 1946     		mov	r1, r3
 196              		.loc 1 155 0
 197 002e 1A68     		ldr	r2, [r3, #0]
 198 0030 42F00102 		orr	r2, r2, #1
 199 0034 1A60     		str	r2, [r3, #0]
 200              	.L10:
 201              		.loc 1 156 0 discriminator 1
 202 0036 0A68     		ldr	r2, [r1, #0]
 203 0038 4FF46053 		mov	r3, #14336
 204 003c 9207     		lsls	r2, r2, #30
 205 003e C4F20203 		movt	r3, 16386
 206 0042 F8D5     		bpl	.L10
 207              		.loc 1 166 0
 208 0044 1A68     		ldr	r2, [r3, #0]
 209 0046 42F48032 		orr	r2, r2, #65536
 210 004a 1A60     		str	r2, [r3, #0]
 211              		.loc 1 168 0
 212 004c 1946     		mov	r1, r3
 213              	.L11:
 214              		.loc 1 168 0 is_stmt 0 discriminator 1
 215 004e 0A68     		ldr	r2, [r1, #0]
 216 0050 4FF46053 		mov	r3, #14336
 217 0054 9003     		lsls	r0, r2, #14
 218 0056 C4F20203 		movt	r3, 16386
 219 005a F8D5     		bpl	.L11
 220              		.loc 1 174 0 is_stmt 1
 221 005c 5A6F     		ldr	r2, [r3, #116]
 222 005e 42F00102 		orr	r2, r2, #1
 223 0062 5A67     		str	r2, [r3, #116]
 224              		.loc 1 175 0
 225 0064 1946     		mov	r1, r3
 226              	.L12:
 227              		.loc 1 175 0 is_stmt 0 discriminator 1
ARM GAS  /tmp/cc5NjzmB.s 			page 5


 228 0066 4A6F     		ldr	r2, [r1, #116]
 229 0068 4FF46053 		mov	r3, #14336
 230 006c 9207     		lsls	r2, r2, #30
 231 006e C4F20203 		movt	r3, 16386
 232 0072 F8D5     		bpl	.L12
 233              		.loc 1 192 0 is_stmt 1
 234 0074 45F20842 		movw	r2, #21512
 235 0078 C0F24072 		movt	r2, 1856
 236 007c 5A60     		str	r2, [r3, #4]
 237              		.loc 1 194 0
 238 007e 1A68     		ldr	r2, [r3, #0]
 239 0080 42F08072 		orr	r2, r2, #16777216
 240 0084 1A60     		str	r2, [r3, #0]
 241              		.loc 1 195 0
 242 0086 1946     		mov	r1, r3
 243              	.L13:
 244              		.loc 1 195 0 is_stmt 0 discriminator 1
 245 0088 0A68     		ldr	r2, [r1, #0]
 246 008a 4FF46053 		mov	r3, #14336
 247 008e 9001     		lsls	r0, r2, #6
 248 0090 C4F20203 		movt	r3, 16386
 249 0094 F8D5     		bpl	.L13
 250              		.loc 1 208 0 is_stmt 1
 251 0096 9868     		ldr	r0, [r3, #8]
 252 0098 4FF41442 		mov	r2, #37888
 253              		.loc 1 221 0
 254 009c 4FF47051 		mov	r1, #15360
 255              		.loc 1 208 0
 256 00a0 C3F60802 		movt	r2, 14344
 257              		.loc 1 221 0
 258 00a4 C4F20201 		movt	r1, 16386
 259              		.loc 1 208 0
 260 00a8 0243     		orrs	r2, r2, r0
 261              		.loc 1 221 0
 262 00aa 40F20570 		movw	r0, #1797
 263              		.loc 1 208 0
 264 00ae 9A60     		str	r2, [r3, #8]
 265              		.loc 1 221 0
 266 00b0 0860     		str	r0, [r1, #0]
 267              		.loc 1 227 0
 268 00b2 9A68     		ldr	r2, [r3, #8]
 269 00b4 42F00202 		orr	r2, r2, #2
 270 00b8 9A60     		str	r2, [r3, #8]
 271              	.L14:
 272              		.loc 1 228 0 discriminator 1
 273 00ba 9968     		ldr	r1, [r3, #8]
 274 00bc 01F00C01 		and	r1, r1, #12
 275 00c0 4FF46052 		mov	r2, #14336
 276 00c4 0829     		cmp	r1, #8
 277 00c6 C4F20202 		movt	r2, 16386
 278 00ca F6D1     		bne	.L14
 279              		.loc 1 235 0
 280 00cc 536C     		ldr	r3, [r2, #68]
 281 00ce 43F48043 		orr	r3, r3, #16384
 282 00d2 5364     		str	r3, [r2, #68]
 283 00d4 536E     		ldr	r3, [r2, #100]
 284 00d6 43F48043 		orr	r3, r3, #16384
ARM GAS  /tmp/cc5NjzmB.s 			page 6


 285 00da 5366     		str	r3, [r2, #100]
 286 00dc 7047     		bx	lr
 287              		.cfi_endproc
 288              	.LFE120:
 289              		.size	stm32_clock_init, .-stm32_clock_init
 290 00de 00BF     		.text
 291              	.Letext0:
 292              		.file 2 "/opt/tools_arm/lib/gcc/arm-none-eabi/4.7.3/../../../../arm-none-eabi/include/stdint.h"
 293              		.file 3 "/home/felix/Documents/ChibiOS/os/ports/common/ARMCMx/nvic.h"
 294              		.file 4 "/home/felix/Documents/ChibiOS/os/ports/common/ARMCMx/CMSIS/include/core_cm4.h"
 295              		.file 5 "/home/felix/Documents/ChibiOS/os/hal/platforms/STM32F4xx/stm32f4xx.h"
 296              		.file 6 "/home/felix/Documents/ChibiOS/os/hal/platforms/STM32F4xx/stm32_dma.h"