ARM GAS  /tmp/cc6fAj9Z.s 			page 1


   1              		.syntax unified
   2              		.cpu cortex-m4
   3              		.fpu softvfp
   4              		.eabi_attribute 20, 1
   5              		.eabi_attribute 21, 1
   6              		.eabi_attribute 23, 3
   7              		.eabi_attribute 24, 1
   8              		.eabi_attribute 25, 1
   9              		.eabi_attribute 26, 1
  10              		.eabi_attribute 30, 2
  11              		.eabi_attribute 34, 1
  12              		.eabi_attribute 18, 4
  13              		.thumb
  14              		.file	"lis302dl.c"
  15              		.text
  16              	.Ltext0:
  17              		.cfi_sections	.debug_frame
  18              		.section	.text.lis302dlReadRegister,"ax",%progbits
  19              		.align	2
  20              		.p2align 4,,15
  21              		.global	lis302dlReadRegister
  22              		.thumb
  23              		.thumb_func
  24              		.type	lis302dlReadRegister, %function
  25              	lis302dlReadRegister:
  26              	.LFB118:
  27              		.file 1 "/home/felix/Documents/ChibiOS/os/various/devices_lib/accel/lis302dl.c"
  28              		.loc 1 60 0
  29              		.cfi_startproc
  30              		@ args = 0, pretend = 0, frame = 0
  31              		@ frame_needed = 0, uses_anonymous_args = 0
  32              	.LVL0:
  33 0000 F8B5     		push	{r3, r4, r5, r6, r7, lr}
  34              	.LCFI0:
  35              		.cfi_def_cfa_offset 24
  36              		.cfi_offset 3, -24
  37              		.cfi_offset 4, -20
  38              		.cfi_offset 5, -16
  39              		.cfi_offset 6, -12
  40              		.cfi_offset 7, -8
  41              		.cfi_offset 14, -4
  42              		.loc 1 65 0
  43 0002 40F20005 		movw	r5, #:lower16:.LANCHOR1
  44              		.loc 1 63 0
  45 0006 40F20004 		movw	r4, #:lower16:.LANCHOR0
  46              		.loc 1 60 0
  47 000a 0F46     		mov	r7, r1
  48 000c 0646     		mov	r6, r0
  49              		.loc 1 63 0
  50 000e C0F20004 		movt	r4, #:upper16:.LANCHOR0
  51              		.loc 1 65 0
  52 0012 C0F20005 		movt	r5, #:upper16:.LANCHOR1
  53              		.loc 1 62 0
  54 0016 FFF7FEFF 		bl	spiSelect
  55              	.LVL1:
  56              		.loc 1 63 0
  57 001a 67F07F0E 		orn	lr, r7, #127
ARM GAS  /tmp/cc6fAj9Z.s 			page 2


  58              		.loc 1 65 0
  59 001e 2246     		mov	r2, r4
  60 0020 2B46     		mov	r3, r5
  61 0022 3046     		mov	r0, r6
  62 0024 0221     		movs	r1, #2
  63              		.loc 1 64 0
  64 0026 FF27     		movs	r7, #255
  65              		.loc 1 63 0
  66 0028 84F800E0 		strb	lr, [r4, #0]
  67              		.loc 1 64 0
  68 002c 6770     		strb	r7, [r4, #1]
  69              		.loc 1 65 0
  70 002e FFF7FEFF 		bl	spiExchange
  71              	.LVL2:
  72              		.loc 1 66 0
  73 0032 3046     		mov	r0, r6
  74 0034 FFF7FEFF 		bl	spiUnselect
  75              	.LVL3:
  76              		.loc 1 68 0
  77 0038 6878     		ldrb	r0, [r5, #1]	@ zero_extendqisi2
  78 003a F8BD     		pop	{r3, r4, r5, r6, r7, pc}
  79              		.cfi_endproc
  80              	.LFE118:
  81              		.size	lis302dlReadRegister, .-lis302dlReadRegister
  82 003c AFF30080 		.section	.text.lis302dlWriteRegister,"ax",%progbits
  83              		.align	2
  84              		.p2align 4,,15
  85              		.global	lis302dlWriteRegister
  86              		.thumb
  87              		.thumb_func
  88              		.type	lis302dlWriteRegister, %function
  89              	lis302dlWriteRegister:
  90              	.LFB119:
  91              		.loc 1 78 0
  92              		.cfi_startproc
  93              		@ args = 0, pretend = 0, frame = 0
  94              		@ frame_needed = 0, uses_anonymous_args = 0
  95              	.LVL4:
  96 0000 F8B5     		push	{r3, r4, r5, r6, r7, lr}
  97              	.LCFI1:
  98              		.cfi_def_cfa_offset 24
  99              		.cfi_offset 3, -24
 100              		.cfi_offset 4, -20
 101              		.cfi_offset 5, -16
 102              		.cfi_offset 6, -12
 103              		.cfi_offset 7, -8
 104              		.cfi_offset 14, -4
 105              		.loc 1 80 0
 106 0002 A1F12003 		sub	r3, r1, #32
 107              		.loc 1 78 0
 108 0006 0D46     		mov	r5, r1
 109              		.loc 1 80 0
 110 0008 D9B2     		uxtb	r1, r3
 111              	.LVL5:
 112 000a 1F29     		cmp	r1, #31
 113              		.loc 1 78 0
 114 000c 1746     		mov	r7, r2
ARM GAS  /tmp/cc6fAj9Z.s 			page 3


 115 000e 0646     		mov	r6, r0
 116              		.loc 1 80 0
 117 0010 17D8     		bhi	.L2
 118 0012 5BB2     		sxtb	r3, r3
 119 0014 0122     		movs	r2, #1
 120              	.LVL6:
 121 0016 0724     		movs	r4, #7
 122 0018 02FA03F3 		lsl	r3, r2, r3
 123 001c CFF6DD14 		movt	r4, 63965
 124 0020 1C40     		ands	r4, r4, r3
 125 0022 74B1     		cbz	r4, .L2
 126              		.loc 1 111 0
 127 0024 FFF7FEFF 		bl	spiSelect
 128              	.LVL7:
 129              		.loc 1 112 0
 130 0028 064B     		ldr	r3, .L6
 131              		.loc 1 114 0
 132 002a 3046     		mov	r0, r6
 133 002c 1A46     		mov	r2, r3
 134 002e 0221     		movs	r1, #2
 135              		.loc 1 112 0
 136 0030 1D70     		strb	r5, [r3, #0]
 137              		.loc 1 113 0
 138 0032 5F70     		strb	r7, [r3, #1]
 139              		.loc 1 114 0
 140 0034 FFF7FEFF 		bl	spiSend
 141              	.LVL8:
 142              		.loc 1 115 0
 143 0038 3046     		mov	r0, r6
 144              		.loc 1 117 0
 145 003a BDE8F840 		pop	{r3, r4, r5, r6, r7, lr}
 146              		.loc 1 115 0
 147 003e FFF7FEBF 		b	spiUnselect
 148              	.LVL9:
 149              	.L2:
 150 0042 F8BD     		pop	{r3, r4, r5, r6, r7, pc}
 151              	.L7:
 152              		.align	2
 153              	.L6:
 154 0044 00000000 		.word	.LANCHOR0
 155              		.cfi_endproc
 156              	.LFE119:
 157              		.size	lis302dlWriteRegister, .-lis302dlWriteRegister
 158 0048 AFF30080 		.section	.bss.rxbuf,"aw",%nobits
 158      AFF30080 
 159              		.align	2
 160              		.set	.LANCHOR1,. + 0
 161              		.type	rxbuf, %object
 162              		.size	rxbuf, 2
 163              	rxbuf:
 164 0000 0000     		.space	2
 165 0002 0000     		.section	.bss.txbuf,"aw",%nobits
 166              		.align	2
 167              		.set	.LANCHOR0,. + 0
 168              		.type	txbuf, %object
 169              		.size	txbuf, 2
 170              	txbuf:
ARM GAS  /tmp/cc6fAj9Z.s 			page 4


 171 0000 0000     		.space	2
 172 0002 0000     		.text
 173              	.Letext0:
 174              		.file 2 "/opt/tools_arm/lib/gcc/arm-none-eabi/4.7.3/include/stddef.h"
 175              		.file 3 "/opt/tools_arm/lib/gcc/arm-none-eabi/4.7.3/../../../../arm-none-eabi/include/stdint.h"
 176              		.file 4 "/home/felix/Documents/ChibiOS/os/ports/GCC/ARMCMx/chtypes.h"
 177              		.file 5 "/home/felix/Documents/ChibiOS/os/kernel/include/chlists.h"
 178              		.file 6 "/home/felix/Documents/ChibiOS/os/kernel/include/chthreads.h"
 179              		.file 7 "/home/felix/Documents/ChibiOS/os/ports/GCC/ARMCMx/chcore_v7m.h"
 180              		.file 8 "/home/felix/Documents/ChibiOS/os/kernel/include/chmtx.h"
 181              		.file 9 "/home/felix/Documents/ChibiOS/os/hal/platforms/STM32F4xx/stm32f4xx.h"
 182              		.file 10 "/home/felix/Documents/ChibiOS/os/hal/platforms/STM32F4xx/stm32_dma.h"
 183              		.file 11 "/home/felix/Documents/ChibiOS/os/hal/platforms/STM32/GPIOv2/pal_lld.h"
 184              		.file 12 "/home/felix/Documents/ChibiOS/os/hal/include/spi.h"
 185              		.file 13 "/home/felix/Documents/ChibiOS/os/hal/platforms/STM32/SPIv1/spi_lld.h"
 186              		.file 14 "/home/felix/Documents/ChibiOS/os/ports/common/ARMCMx/CMSIS/include/core_cm4.h"