ARM GAS  /tmp/ccTbcpSG.s 			page 1


   1              		.syntax unified
   2              		.cpu cortex-m4
   3              		.fpu softvfp
   4              		.eabi_attribute 20, 1
   5              		.eabi_attribute 21, 1
   6              		.eabi_attribute 23, 3
   7              		.eabi_attribute 24, 1
   8              		.eabi_attribute 25, 1
   9              		.eabi_attribute 26, 1
  10              		.eabi_attribute 30, 2
  11              		.eabi_attribute 34, 1
  12              		.eabi_attribute 18, 4
  13              		.thumb
  14              		.file	"serial_lld.c"
  15              		.text
  16              	.Ltext0:
  17              		.cfi_sections	.debug_frame
  18              		.section	.text.notify1,"ax",%progbits
  19              		.align	2
  20              		.p2align 4,,15
  21              		.thumb
  22              		.thumb_func
  23              		.type	notify1, %function
  24              	notify1:
  25              	.LFB122:
  26              		.file 1 "/home/felix/Documents/ChibiOS/os/hal/platforms/STM32/USARTv1/serial_lld.c"
  27              		.loc 1 202 0
  28              		.cfi_startproc
  29              		@ args = 0, pretend = 0, frame = 0
  30              		@ frame_needed = 0, uses_anonymous_args = 0
  31              		@ link register save eliminated.
  32              	.LVL0:
  33              		.loc 1 205 0
  34 0000 4FF48053 		mov	r3, #4096
  35 0004 C4F20103 		movt	r3, 16385
  36 0008 9A89     		ldrh	r2, [r3, #12]
  37 000a 92B2     		uxth	r2, r2
  38 000c 42F08002 		orr	r2, r2, #128
  39 0010 9A81     		strh	r2, [r3, #12]	@ movhi
  40 0012 7047     		bx	lr
  41              		.cfi_endproc
  42              	.LFE122:
  43              		.size	notify1, .-notify1
  44              		.section	.text.notify3,"ax",%progbits
  45              		.align	2
  46              		.p2align 4,,15
  47              		.thumb
  48              		.thumb_func
  49              		.type	notify3, %function
  50              	notify3:
  51              	.LFB123:
  52              		.loc 1 218 0
  53              		.cfi_startproc
  54              		@ args = 0, pretend = 0, frame = 0
  55              		@ frame_needed = 0, uses_anonymous_args = 0
  56              		@ link register save eliminated.
  57              	.LVL1:
ARM GAS  /tmp/ccTbcpSG.s 			page 2


  58              		.loc 1 221 0
  59 0000 4FF49043 		mov	r3, #18432
  60 0004 C4F20003 		movt	r3, 16384
  61 0008 9A89     		ldrh	r2, [r3, #12]
  62 000a 92B2     		uxth	r2, r2
  63 000c 42F08002 		orr	r2, r2, #128
  64 0010 9A81     		strh	r2, [r3, #12]	@ movhi
  65 0012 7047     		bx	lr
  66              		.cfi_endproc
  67              	.LFE123:
  68              		.size	notify3, .-notify3
  69 0014 AFF30080 		.section	.text.serve_interrupt,"ax",%progbits
  69      AFF30080 
  69      AFF30080 
  70              		.align	2
  71              		.p2align 4,,15
  72              		.thumb
  73              		.thumb_func
  74              		.type	serve_interrupt, %function
  75              	serve_interrupt:
  76              	.LFB121:
  77              		.loc 1 156 0
  78              		.cfi_startproc
  79              		@ args = 0, pretend = 0, frame = 0
  80              		@ frame_needed = 0, uses_anonymous_args = 0
  81              	.LVL2:
  82 0000 2DE9F041 		push	{r4, r5, r6, r7, r8, lr}
  83              	.LCFI0:
  84              		.cfi_def_cfa_offset 24
  85              		.cfi_offset 4, -24
  86              		.cfi_offset 5, -20
  87              		.cfi_offset 6, -16
  88              		.cfi_offset 7, -12
  89              		.cfi_offset 8, -8
  90              		.cfi_offset 14, -4
  91              		.loc 1 157 0
  92 0004 456F     		ldr	r5, [r0, #116]
  93              	.LVL3:
  94              		.loc 1 158 0
  95 0006 AF89     		ldrh	r7, [r5, #12]
  96              		.loc 1 159 0
  97 0008 2C88     		ldrh	r4, [r5, #0]
  98              		.loc 1 160 0
  99 000a A988     		ldrh	r1, [r5, #4]
 100              		.loc 1 159 0
 101 000c A4B2     		uxth	r4, r4
 102              		.loc 1 163 0
 103 000e 2207     		lsls	r2, r4, #28
 104              		.loc 1 156 0
 105 0010 0646     		mov	r6, r0
 106              		.loc 1 158 0
 107 0012 BFB2     		uxth	r7, r7
 108              	.LVL4:
 109              		.loc 1 160 0
 110 0014 1FFA81F8 		uxth	r8, r1
 111              	.LVL5:
 112              		.loc 1 163 0
ARM GAS  /tmp/ccTbcpSG.s 			page 3


 113 0018 3DD1     		bne	.L44
 114              	.LVL6:
 115              	.L4:
 116              		.loc 1 166 0
 117 001a E305     		lsls	r3, r4, #23
 118              	.LVL7:
 119 001c 29D4     		bmi	.L45
 120              	.L9:
 121              		.loc 1 173 0
 122 001e A006     		lsls	r0, r4, #26
 123 0020 1BD4     		bmi	.L46
 124              	.LVL8:
 125              	.L10:
 126              		.loc 1 179 0
 127 0022 3906     		lsls	r1, r7, #24
 128 0024 01D5     		bpl	.L11
 129              		.loc 1 179 0 is_stmt 0 discriminator 1
 130 0026 2206     		lsls	r2, r4, #24
 131 0028 50D4     		bmi	.L47
 132              	.LVL9:
 133              	.L11:
 134              		.loc 1 192 0 is_stmt 1
 135 002a 6306     		lsls	r3, r4, #25
 136              	.LVL10:
 137 002c 13D5     		bpl	.L3
 138              	.LBB17:
 139              		.loc 1 193 0
 140 002e 2023     		movs	r3, #32
 141              	.LVL11:
 142              	@ 193 "/home/felix/Documents/ChibiOS/os/hal/platforms/STM32/USARTv1/serial_lld.c" 1
 143 0030 83F31188 		msr     BASEPRI, r3
 144              	@ 0 "" 2
 145              	.LVL12:
 146              		.thumb
 147              	.LBE17:
 148              		.loc 1 194 0
 149 0034 1021     		movs	r1, #16
 150 0036 301D     		adds	r0, r6, #4
 151 0038 FFF7FEFF 		bl	chEvtBroadcastFlagsI
 152              	.LVL13:
 153              	.LBB18:
 154              		.loc 1 195 0
 155 003c 0023     		movs	r3, #0
 156              	.LVL14:
 157              	@ 195 "/home/felix/Documents/ChibiOS/os/hal/platforms/STM32/USARTv1/serial_lld.c" 1
 158 003e 83F31188 		msr     BASEPRI, r3
 159              	@ 0 "" 2
 160              	.LVL15:
 161              		.thumb
 162              	.LBE18:
 163              		.loc 1 196 0
 164 0042 4FF6BF73 		movw	r3, #65471
 165              	.LVL16:
 166 0046 3B40     		ands	r3, r3, r7
 167 0048 AB81     		strh	r3, [r5, #12]	@ movhi
 168              		.loc 1 197 0
 169 004a 2B88     		ldrh	r3, [r5, #0]
ARM GAS  /tmp/ccTbcpSG.s 			page 4


 170 004c 23F04003 		bic	r3, r3, #64
 171 0050 1B04     		lsls	r3, r3, #16
 172 0052 1B0C     		lsrs	r3, r3, #16
 173 0054 2B80     		strh	r3, [r5, #0]	@ movhi
 174              	.L3:
 175 0056 BDE8F081 		pop	{r4, r5, r6, r7, r8, pc}
 176              	.L46:
 177              	.LBB19:
 178              		.loc 1 174 0
 179 005a 2023     		movs	r3, #32
 180              	.LVL17:
 181              	@ 174 "/home/felix/Documents/ChibiOS/os/hal/platforms/STM32/USARTv1/serial_lld.c" 1
 182 005c 83F31188 		msr     BASEPRI, r3
 183              	@ 0 "" 2
 184              	.LVL18:
 185              		.thumb
 186              	.LBE19:
 187              		.loc 1 175 0
 188 0060 5FFA88F1 		uxtb	r1, r8
 189 0064 3046     		mov	r0, r6
 190 0066 FFF7FEFF 		bl	sdIncomingDataI
 191              	.LVL19:
 192              	.LBB20:
 193              		.loc 1 176 0
 194 006a 0023     		movs	r3, #0
 195              	@ 176 "/home/felix/Documents/ChibiOS/os/hal/platforms/STM32/USARTv1/serial_lld.c" 1
 196 006c 83F31188 		msr     BASEPRI, r3
 197              	@ 0 "" 2
 198              	.LVL20:
 199              		.thumb
 200 0070 D7E7     		b	.L10
 201              	.LVL21:
 202              	.L45:
 203              	.LBE20:
 204              	.LBB21:
 205              		.loc 1 167 0
 206 0072 2023     		movs	r3, #32
 207              	.LVL22:
 208              	@ 167 "/home/felix/Documents/ChibiOS/os/hal/platforms/STM32/USARTv1/serial_lld.c" 1
 209 0074 83F31188 		msr     BASEPRI, r3
 210              	@ 0 "" 2
 211              	.LVL23:
 212              		.thumb
 213              	.LBE21:
 214              		.loc 1 168 0
 215 0078 4FF40071 		mov	r1, #512
 216 007c 301D     		adds	r0, r6, #4
 217 007e FFF7FEFF 		bl	chEvtBroadcastFlagsI
 218              	.LVL24:
 219              	.LBB22:
 220              		.loc 1 169 0
 221 0082 0023     		movs	r3, #0
 222              	.LVL25:
 223              	@ 169 "/home/felix/Documents/ChibiOS/os/hal/platforms/STM32/USARTv1/serial_lld.c" 1
 224 0084 83F31188 		msr     BASEPRI, r3
 225              	@ 0 "" 2
 226              	.LVL26:
ARM GAS  /tmp/ccTbcpSG.s 			page 5


 227              		.thumb
 228              	.LBE22:
 229              		.loc 1 170 0
 230 0088 2B88     		ldrh	r3, [r5, #0]
 231              	.LVL27:
 232 008a 23F48073 		bic	r3, r3, #256
 233 008e 1B04     		lsls	r3, r3, #16
 234 0090 1B0C     		lsrs	r3, r3, #16
 235 0092 2B80     		strh	r3, [r5, #0]	@ movhi
 236 0094 C3E7     		b	.L9
 237              	.LVL28:
 238              	.L44:
 239              	.LBB23:
 240              	.LBB24:
 241              		.loc 1 139 0
 242 0096 14F0080F 		tst	r4, #8
 243 009a 0CBF     		ite	eq
 244 009c 0021     		moveq	r1, #0
 245 009e 8021     		movne	r1, #128
 246              	.LVL29:
 247              		.loc 1 140 0
 248 00a0 E307     		lsls	r3, r4, #31
 249              		.loc 1 141 0
 250 00a2 48BF     		it	mi
 251 00a4 41F02001 		orrmi	r1, r1, #32
 252              	.LVL30:
 253              		.loc 1 142 0
 254 00a8 A007     		lsls	r0, r4, #30
 255              	.LVL31:
 256              		.loc 1 143 0
 257 00aa 48BF     		it	mi
 258 00ac 41F04001 		orrmi	r1, r1, #64
 259              	.LVL32:
 260              		.loc 1 144 0
 261 00b0 6207     		lsls	r2, r4, #29
 262              		.loc 1 145 0
 263 00b2 48BF     		it	mi
 264 00b4 41F48071 		orrmi	r1, r1, #256
 265              	.LVL33:
 266              	.LBB25:
 267              		.loc 1 146 0
 268 00b8 2023     		movs	r3, #32
 269              	.LVL34:
 270              	@ 146 "/home/felix/Documents/ChibiOS/os/hal/platforms/STM32/USARTv1/serial_lld.c" 1
 271 00ba 83F31188 		msr     BASEPRI, r3
 272              	@ 0 "" 2
 273              	.LVL35:
 274              		.thumb
 275              	.LBE25:
 276              		.loc 1 147 0
 277 00be 301D     		adds	r0, r6, #4
 278 00c0 FFF7FEFF 		bl	chEvtBroadcastFlagsI
 279              	.LVL36:
 280              	.LBB26:
 281              		.loc 1 148 0
 282 00c4 0023     		movs	r3, #0
 283              	@ 148 "/home/felix/Documents/ChibiOS/os/hal/platforms/STM32/USARTv1/serial_lld.c" 1
ARM GAS  /tmp/ccTbcpSG.s 			page 6


 284 00c6 83F31188 		msr     BASEPRI, r3
 285              	@ 0 "" 2
 286              	.LVL37:
 287              		.thumb
 288 00ca A6E7     		b	.L4
 289              	.LVL38:
 290              	.L47:
 291              	.LBE26:
 292              	.LBE24:
 293              	.LBE23:
 294              	.LBB27:
 295              	.LBB28:
 296              		.loc 1 181 0
 297 00cc 2023     		movs	r3, #32
 298              	.LVL39:
 299              	@ 181 "/home/felix/Documents/ChibiOS/os/hal/platforms/STM32/USARTv1/serial_lld.c" 1
 300 00ce 83F31188 		msr     BASEPRI, r3
 301              	@ 0 "" 2
 302              	.LVL40:
 303              		.thumb
 304              	.LBE28:
 305              		.loc 1 182 0
 306 00d2 06F13000 		add	r0, r6, #48
 307 00d6 FFF7FEFF 		bl	chOQGetI
 308              	.LVL41:
 309              		.loc 1 183 0
 310 00da 0028     		cmp	r0, #0
 311              		.loc 1 188 0
 312 00dc A4BF     		itt	ge
 313 00de 80B2     		uxthge	r0, r0
 314              	.LVL42:
 315 00e0 A880     		strhge	r0, [r5, #4]	@ movhi
 316              		.loc 1 183 0
 317 00e2 03DB     		blt	.L48
 318              	.L13:
 319              	.LBB29:
 320              		.loc 1 189 0
 321 00e4 0023     		movs	r3, #0
 322              	@ 189 "/home/felix/Documents/ChibiOS/os/hal/platforms/STM32/USARTv1/serial_lld.c" 1
 323 00e6 83F31188 		msr     BASEPRI, r3
 324              	@ 0 "" 2
 325              	.LVL43:
 326              		.thumb
 327 00ea 9EE7     		b	.L11
 328              	.LVL44:
 329              	.L48:
 330              	.LBE29:
 331              		.loc 1 184 0
 332 00ec 301D     		adds	r0, r6, #4
 333 00ee 0821     		movs	r1, #8
 334 00f0 FFF7FEFF 		bl	chEvtBroadcastFlagsI
 335              	.LVL45:
 336              		.loc 1 185 0
 337 00f4 27F0C003 		bic	r3, r7, #192
 338 00f8 43F04003 		orr	r3, r3, #64
 339 00fc AB81     		strh	r3, [r5, #12]	@ movhi
 340 00fe F1E7     		b	.L13
ARM GAS  /tmp/ccTbcpSG.s 			page 7


 341              	.LBE27:
 342              		.cfi_endproc
 343              	.LFE121:
 344              		.size	serve_interrupt, .-serve_interrupt
 345              		.section	.text.VectorD4,"ax",%progbits
 346              		.align	2
 347              		.p2align 4,,15
 348              		.global	VectorD4
 349              		.thumb
 350              		.thumb_func
 351              		.type	VectorD4, %function
 352              	VectorD4:
 353              	.LFB124:
 354              		.loc 1 262 0
 355              		.cfi_startproc
 356              		@ args = 0, pretend = 0, frame = 0
 357              		@ frame_needed = 0, uses_anonymous_args = 0
 358 0000 08B5     		push	{r3, lr}
 359              	.LCFI1:
 360              		.cfi_def_cfa_offset 8
 361              		.cfi_offset 3, -8
 362              		.cfi_offset 14, -4
 363              		.loc 1 266 0
 364 0002 40F20000 		movw	r0, #:lower16:.LANCHOR0
 365 0006 C0F20000 		movt	r0, #:upper16:.LANCHOR0
 366 000a FFF7FEFF 		bl	serve_interrupt
 367              	.LVL46:
 368              		.loc 1 269 0
 369 000e BDE80840 		pop	{r3, lr}
 370              		.loc 1 268 0
 371 0012 FFF7FEBF 		b	_port_irq_epilogue
 372              	.LVL47:
 373              		.cfi_endproc
 374              	.LFE124:
 375              		.size	VectorD4, .-VectorD4
 376 0016 00BFAFF3 		.section	.text.VectorDC,"ax",%progbits
 376      0080AFF3 
 376      0080
 377              		.align	2
 378              		.p2align 4,,15
 379              		.global	VectorDC
 380              		.thumb
 381              		.thumb_func
 382              		.type	VectorDC, %function
 383              	VectorDC:
 384              	.LFB125:
 385              		.loc 1 300 0
 386              		.cfi_startproc
 387              		@ args = 0, pretend = 0, frame = 0
 388              		@ frame_needed = 0, uses_anonymous_args = 0
 389 0000 08B5     		push	{r3, lr}
 390              	.LCFI2:
 391              		.cfi_def_cfa_offset 8
 392              		.cfi_offset 3, -8
 393              		.cfi_offset 14, -4
 394              		.loc 1 304 0
 395 0002 40F20000 		movw	r0, #:lower16:.LANCHOR1
ARM GAS  /tmp/ccTbcpSG.s 			page 8


 396 0006 C0F20000 		movt	r0, #:upper16:.LANCHOR1
 397 000a FFF7FEFF 		bl	serve_interrupt
 398              	.LVL48:
 399              		.loc 1 307 0
 400 000e BDE80840 		pop	{r3, lr}
 401              		.loc 1 306 0
 402 0012 FFF7FEBF 		b	_port_irq_epilogue
 403              	.LVL49:
 404              		.cfi_endproc
 405              	.LFE125:
 406              		.size	VectorDC, .-VectorDC
 407 0016 00BFAFF3 		.section	.text.sd_lld_init,"ax",%progbits
 407      0080AFF3 
 407      0080
 408              		.align	2
 409              		.p2align 4,,15
 410              		.global	sd_lld_init
 411              		.thumb
 412              		.thumb_func
 413              		.type	sd_lld_init, %function
 414              	sd_lld_init:
 415              	.LFB126:
 416              		.loc 1 376 0
 417              		.cfi_startproc
 418              		@ args = 0, pretend = 0, frame = 0
 419              		@ frame_needed = 0, uses_anonymous_args = 0
 420 0000 38B5     		push	{r3, r4, r5, lr}
 421              	.LCFI3:
 422              		.cfi_def_cfa_offset 16
 423              		.cfi_offset 3, -16
 424              		.cfi_offset 4, -12
 425              		.cfi_offset 5, -8
 426              		.cfi_offset 14, -4
 427              		.loc 1 379 0
 428 0002 40F20005 		movw	r5, #:lower16:.LANCHOR0
 429 0006 C0F20005 		movt	r5, #:upper16:.LANCHOR0
 430 000a 40F20002 		movw	r2, #:lower16:notify1
 431 000e 2846     		mov	r0, r5
 432 0010 C0F20002 		movt	r2, #:upper16:notify1
 433 0014 0021     		movs	r1, #0
 434              		.loc 1 389 0
 435 0016 40F20004 		movw	r4, #:lower16:.LANCHOR1
 436              		.loc 1 379 0
 437 001a FFF7FEFF 		bl	sdObjectInit
 438              	.LVL50:
 439              		.loc 1 389 0
 440 001e C0F20004 		movt	r4, #:upper16:.LANCHOR1
 441              		.loc 1 380 0
 442 0022 4FF48053 		mov	r3, #4096
 443              		.loc 1 389 0
 444 0026 40F20002 		movw	r2, #:lower16:notify3
 445              		.loc 1 380 0
 446 002a C4F20103 		movt	r3, 16385
 447              		.loc 1 389 0
 448 002e 2046     		mov	r0, r4
 449 0030 C0F20002 		movt	r2, #:upper16:notify3
 450 0034 0021     		movs	r1, #0
ARM GAS  /tmp/ccTbcpSG.s 			page 9


 451              		.loc 1 380 0
 452 0036 6B67     		str	r3, [r5, #116]
 453              		.loc 1 389 0
 454 0038 FFF7FEFF 		bl	sdObjectInit
 455              	.LVL51:
 456              		.loc 1 390 0
 457 003c 4FF49043 		mov	r3, #18432
 458 0040 C4F20003 		movt	r3, 16384
 459 0044 6367     		str	r3, [r4, #116]
 460 0046 38BD     		pop	{r3, r4, r5, pc}
 461              		.cfi_endproc
 462              	.LFE126:
 463              		.size	sd_lld_init, .-sd_lld_init
 464 0048 AFF30080 		.section	.text.sd_lld_start,"ax",%progbits
 464      AFF30080 
 465              		.align	2
 466              		.p2align 4,,15
 467              		.global	sd_lld_start
 468              		.thumb
 469              		.thumb_func
 470              		.type	sd_lld_start, %function
 471              	sd_lld_start:
 472              	.LFB127:
 473              		.loc 1 419 0
 474              		.cfi_startproc
 475              		@ args = 0, pretend = 0, frame = 0
 476              		@ frame_needed = 0, uses_anonymous_args = 0
 477              	.LVL52:
 478 0000 38B5     		push	{r3, r4, r5, lr}
 479              	.LCFI4:
 480              		.cfi_def_cfa_offset 16
 481              		.cfi_offset 3, -16
 482              		.cfi_offset 4, -12
 483              		.cfi_offset 5, -8
 484              		.cfi_offset 14, -4
 485              		.loc 1 422 0
 486 0002 2D4C     		ldr	r4, .L61
 487              		.loc 1 424 0
 488 0004 037A     		ldrb	r3, [r0, #8]	@ zero_extendqisi2
 489              		.loc 1 422 0
 490 0006 0029     		cmp	r1, #0
 491 0008 18BF     		it	ne
 492 000a 0C46     		movne	r4, r1
 493              	.LVL53:
 494              		.loc 1 424 0
 495 000c 012B     		cmp	r3, #1
 496              		.loc 1 419 0
 497 000e 0546     		mov	r5, r0
 498              		.loc 1 424 0
 499 0010 31D0     		beq	.L59
 500              	.LVL54:
 501              	.L54:
 502              	.LBB32:
 503              	.LBB33:
 504              		.loc 1 93 0
 505 0012 6B6F     		ldr	r3, [r5, #116]
 506              	.LVL55:
ARM GAS  /tmp/ccTbcpSG.s 			page 10


 507              		.loc 1 97 0
 508 0014 4FF4A051 		mov	r1, #5120
 509 0018 4FF48052 		mov	r2, #4096
 510 001c C4F20102 		movt	r2, 16385
 511 0020 C4F20101 		movt	r1, 16385
 512 0024 9342     		cmp	r3, r2
 513 0026 18BF     		it	ne
 514 0028 8B42     		cmpne	r3, r1
 515              		.loc 1 101 0
 516 002a 0BBF     		itete	eq
 517 002c 2168     		ldreq	r1, [r4, #0]
 518              		.loc 1 103 0
 519 002e 2168     		ldrne	r1, [r4, #0]
 520              		.loc 1 101 0
 521 0030 4FF43D42 		moveq	r2, #48384
 522              		.loc 1 103 0
 523 0034 4DF68062 		movwne	r2, #56960
 524              		.loc 1 101 0
 525 0038 0CBF     		ite	eq
 526 003a C0F20152 		movteq	r2, 1281
 527              		.loc 1 103 0
 528 003e C0F28022 		movtne	r2, 640
 529 0042 B2FBF1F2 		udiv	r2, r2, r1
 530 0046 92B2     		uxth	r2, r2
 531 0048 1A81     		strh	r2, [r3, #8]	@ movhi
 532              		.loc 1 108 0
 533 004a A288     		ldrh	r2, [r4, #4]
 534              		.loc 1 106 0
 535 004c E188     		ldrh	r1, [r4, #6]
 536              		.loc 1 107 0
 537 004e 2089     		ldrh	r0, [r4, #8]
 538              		.loc 1 108 0
 539 0050 42F40452 		orr	r2, r2, #8448
 540              		.loc 1 106 0
 541 0054 41F04004 		orr	r4, r1, #64
 542              	.LVL56:
 543              		.loc 1 108 0
 544 0058 42F02C02 		orr	r2, r2, #44
 545              		.loc 1 107 0
 546 005c 40F00100 		orr	r0, r0, #1
 547              		.loc 1 108 0
 548 0060 92B2     		uxth	r2, r2
 549              		.loc 1 106 0
 550 0062 A4B2     		uxth	r4, r4
 551              		.loc 1 107 0
 552 0064 80B2     		uxth	r0, r0
 553              		.loc 1 111 0
 554 0066 0021     		movs	r1, #0
 555              		.loc 1 106 0
 556 0068 1C82     		strh	r4, [r3, #16]	@ movhi
 557              		.loc 1 107 0
 558 006a 9882     		strh	r0, [r3, #20]	@ movhi
 559              		.loc 1 108 0
 560 006c 9A81     		strh	r2, [r3, #12]	@ movhi
 561              		.loc 1 111 0
 562 006e 1980     		strh	r1, [r3, #0]	@ movhi
 563              		.loc 1 112 0
ARM GAS  /tmp/ccTbcpSG.s 			page 11


 564 0070 1A88     		ldrh	r2, [r3, #0]
 565              		.loc 1 113 0
 566 0072 9B88     		ldrh	r3, [r3, #4]
 567              	.LVL57:
 568 0074 38BD     		pop	{r3, r4, r5, pc}
 569              	.LVL58:
 570              	.L59:
 571              	.LBE33:
 572              	.LBE32:
 573              		.loc 1 426 0
 574 0076 114B     		ldr	r3, .L61+4
 575 0078 9842     		cmp	r0, r3
 576 007a 0FD0     		beq	.L60
 577              		.loc 1 440 0
 578 007c 104B     		ldr	r3, .L61+8
 579 007e 9842     		cmp	r0, r3
 580 0080 C7D1     		bne	.L54
 581              		.loc 1 441 0
 582 0082 4FF46053 		mov	r3, #14336
 583 0086 C4F20203 		movt	r3, 16386
 584              		.loc 1 442 0
 585 008a 2720     		movs	r0, #39
 586              	.LVL59:
 587              		.loc 1 441 0
 588 008c 1A6C     		ldr	r2, [r3, #64]
 589 008e 42F48022 		orr	r2, r2, #262144
 590 0092 1A64     		str	r2, [r3, #64]
 591              		.loc 1 442 0
 592 0094 C021     		movs	r1, #192
 593 0096 FFF7FEFF 		bl	nvicEnableVector
 594              	.LVL60:
 595 009a BAE7     		b	.L54
 596              	.LVL61:
 597              	.L60:
 598              		.loc 1 427 0
 599 009c 4FF46053 		mov	r3, #14336
 600 00a0 C4F20203 		movt	r3, 16386
 601              		.loc 1 428 0
 602 00a4 2520     		movs	r0, #37
 603              	.LVL62:
 604              		.loc 1 427 0
 605 00a6 5A6C     		ldr	r2, [r3, #68]
 606 00a8 42F01002 		orr	r2, r2, #16
 607 00ac 5A64     		str	r2, [r3, #68]
 608              		.loc 1 428 0
 609 00ae C021     		movs	r1, #192
 610 00b0 FFF7FEFF 		bl	nvicEnableVector
 611              	.LVL63:
 612 00b4 ADE7     		b	.L54
 613              	.L62:
 614 00b6 00BF     		.align	2
 615              	.L61:
 616 00b8 00000000 		.word	.LANCHOR2
 617 00bc 00000000 		.word	.LANCHOR0
 618 00c0 00000000 		.word	.LANCHOR1
 619              		.cfi_endproc
 620              	.LFE127:
ARM GAS  /tmp/ccTbcpSG.s 			page 12


 621              		.size	sd_lld_start, .-sd_lld_start
 622 00c4 AFF30080 		.section	.text.sd_lld_stop,"ax",%progbits
 622      AFF30080 
 622      AFF30080 
 623              		.align	2
 624              		.p2align 4,,15
 625              		.global	sd_lld_stop
 626              		.thumb
 627              		.thumb_func
 628              		.type	sd_lld_stop, %function
 629              	sd_lld_stop:
 630              	.LFB128:
 631              		.loc 1 480 0
 632              		.cfi_startproc
 633              		@ args = 0, pretend = 0, frame = 0
 634              		@ frame_needed = 0, uses_anonymous_args = 0
 635              		@ link register save eliminated.
 636              	.LVL64:
 637              		.loc 1 482 0
 638 0000 037A     		ldrb	r3, [r0, #8]	@ zero_extendqisi2
 639 0002 022B     		cmp	r3, #2
 640 0004 00D0     		beq	.L68
 641              	.L63:
 642 0006 7047     		bx	lr
 643              	.L68:
 644              		.loc 1 485 0
 645 0008 1049     		ldr	r1, .L70
 646              		.loc 1 483 0
 647 000a 436F     		ldr	r3, [r0, #116]
 648              	.LVL65:
 649              	.LBB34:
 650              	.LBB35:
 651              		.loc 1 124 0
 652 000c 0022     		movs	r2, #0
 653              	.LBE35:
 654              	.LBE34:
 655              		.loc 1 485 0
 656 000e 8842     		cmp	r0, r1
 657              	.LBB37:
 658              	.LBB36:
 659              		.loc 1 124 0
 660 0010 9A81     		strh	r2, [r3, #12]	@ movhi
 661              		.loc 1 125 0
 662 0012 1A82     		strh	r2, [r3, #16]	@ movhi
 663              		.loc 1 126 0
 664 0014 9A82     		strh	r2, [r3, #20]	@ movhi
 665              	.LBE36:
 666              	.LBE37:
 667              		.loc 1 485 0
 668 0016 0DD0     		beq	.L69
 669              		.loc 1 499 0
 670 0018 0D4B     		ldr	r3, .L70+4
 671              	.LVL66:
 672 001a 9842     		cmp	r0, r3
 673 001c F3D1     		bne	.L63
 674              		.loc 1 500 0
 675 001e 4FF46053 		mov	r3, #14336
ARM GAS  /tmp/ccTbcpSG.s 			page 13


 676 0022 C4F20203 		movt	r3, 16386
 677              		.loc 1 501 0
 678 0026 2720     		movs	r0, #39
 679              	.LVL67:
 680              		.loc 1 500 0
 681 0028 1A6C     		ldr	r2, [r3, #64]
 682 002a 22F48022 		bic	r2, r2, #262144
 683 002e 1A64     		str	r2, [r3, #64]
 684              		.loc 1 527 0
 685              		.loc 1 501 0
 686 0030 FFF7FEBF 		b	nvicDisableVector
 687              	.LVL68:
 688              	.L69:
 689              		.loc 1 486 0
 690 0034 4FF46053 		mov	r3, #14336
 691              	.LVL69:
 692 0038 C4F20203 		movt	r3, 16386
 693              		.loc 1 487 0
 694 003c 2520     		movs	r0, #37
 695              	.LVL70:
 696              		.loc 1 486 0
 697 003e 5A6C     		ldr	r2, [r3, #68]
 698 0040 22F01002 		bic	r2, r2, #16
 699 0044 5A64     		str	r2, [r3, #68]
 700              		.loc 1 527 0
 701              		.loc 1 487 0
 702 0046 FFF7FEBF 		b	nvicDisableVector
 703              	.LVL71:
 704              	.L71:
 705 004a 00BF     		.align	2
 706              	.L70:
 707 004c 00000000 		.word	.LANCHOR0
 708 0050 00000000 		.word	.LANCHOR1
 709              		.cfi_endproc
 710              	.LFE128:
 711              		.size	sd_lld_stop, .-sd_lld_stop
 712              		.global	SD3
 713              		.global	SD1
 714 0054 AFF30080 		.section	.rodata.default_config,"a",%progbits
 714      AFF30080 
 714      AFF30080 
 715              		.align	2
 716              		.set	.LANCHOR2,. + 0
 717              		.type	default_config, %object
 718              		.size	default_config, 12
 719              	default_config:
 720 0000 00960000 		.word	38400
 721 0004 0000     		.short	0
 722 0006 0040     		.short	16384
 723 0008 0000     		.short	0
 724 000a 0000     		.space	2
 725              		.section	.bss.SD1,"aw",%nobits
 726              		.align	2
 727              		.set	.LANCHOR0,. + 0
 728              		.type	SD1, %object
 729              		.size	SD1, 120
 730              	SD1:
ARM GAS  /tmp/ccTbcpSG.s 			page 14


 731 0000 00000000 		.space	120
 731      00000000 
 731      00000000 
 731      00000000 
 731      00000000 
 732              		.section	.bss.SD3,"aw",%nobits
 733              		.align	2
 734              		.set	.LANCHOR1,. + 0
 735              		.type	SD3, %object
 736              		.size	SD3, 120
 737              	SD3:
 738 0000 00000000 		.space	120
 738      00000000 
 738      00000000 
 738      00000000 
 738      00000000 
 739              		.text
 740              	.Letext0:
 741              		.file 2 "/opt/tools_arm/lib/gcc/arm-none-eabi/4.7.3/include/stddef.h"
 742              		.file 3 "/opt/tools_arm/lib/gcc/arm-none-eabi/4.7.3/../../../../arm-none-eabi/include/stdint.h"
 743              		.file 4 "/home/felix/Documents/ChibiOS/os/ports/GCC/ARMCMx/chtypes.h"
 744              		.file 5 "/home/felix/Documents/ChibiOS/os/kernel/include/chlists.h"
 745              		.file 6 "/home/felix/Documents/ChibiOS/os/kernel/include/chthreads.h"
 746              		.file 7 "/home/felix/Documents/ChibiOS/os/ports/GCC/ARMCMx/chcore_v7m.h"
 747              		.file 8 "/home/felix/Documents/ChibiOS/os/kernel/include/chmtx.h"
 748              		.file 9 "/home/felix/Documents/ChibiOS/os/kernel/include/chevents.h"
 749              		.file 10 "/home/felix/Documents/ChibiOS/os/kernel/include/chqueues.h"
 750              		.file 11 "/home/felix/Documents/ChibiOS/os/hal/platforms/STM32F4xx/stm32f4xx.h"
 751              		.file 12 "/home/felix/Documents/ChibiOS/os/hal/include/serial.h"
 752              		.file 13 "/home/felix/Documents/ChibiOS/os/hal/platforms/STM32/USARTv1/serial_lld.h"
 753              		.file 14 "/home/felix/Documents/ChibiOS/os/ports/common/ARMCMx/nvic.h"
 754              		.file 15 "/home/felix/Documents/ChibiOS/os/ports/common/ARMCMx/CMSIS/include/core_cm4.h"