ARM GAS  /tmp/ccER7NM2.s 			page 1


   1              		.syntax unified
   2              		.cpu cortex-m4
   3              		.fpu softvfp
   4              		.eabi_attribute 20, 1
   5              		.eabi_attribute 21, 1
   6              		.eabi_attribute 23, 3
   7              		.eabi_attribute 24, 1
   8              		.eabi_attribute 25, 1
   9              		.eabi_attribute 26, 1
  10              		.eabi_attribute 30, 2
  11              		.eabi_attribute 34, 1
  12              		.eabi_attribute 18, 4
  13              		.thumb
  14              		.file	"spi.c"
  15              		.text
  16              	.Ltext0:
  17              		.cfi_sections	.debug_frame
  18              		.section	.text.spiInit,"ax",%progbits
  19              		.align	2
  20              		.p2align 4,,15
  21              		.global	spiInit
  22              		.thumb
  23              		.thumb_func
  24              		.type	spiInit, %function
  25              	spiInit:
  26              	.LFB118:
  27              		.file 1 "/home/felix/Documents/ChibiOS/os/hal/src/spi.c"
  28              		.loc 1 68 0
  29              		.cfi_startproc
  30              		@ args = 0, pretend = 0, frame = 0
  31              		@ frame_needed = 0, uses_anonymous_args = 0
  32              		@ link register save eliminated.
  33              		.loc 1 71 0
  34              		.loc 1 70 0
  35 0000 FFF7FEBF 		b	spi_lld_init
  36              	.LVL0:
  37              		.cfi_endproc
  38              	.LFE118:
  39              		.size	spiInit, .-spiInit
  40 0004 AFF30080 		.section	.text.spiObjectInit,"ax",%progbits
  40      AFF30080 
  40      AFF30080 
  41              		.align	2
  42              		.p2align 4,,15
  43              		.global	spiObjectInit
  44              		.thumb
  45              		.thumb_func
  46              		.type	spiObjectInit, %function
  47              	spiObjectInit:
  48              	.LFB119:
  49              		.loc 1 80 0
  50              		.cfi_startproc
  51              		@ args = 0, pretend = 0, frame = 0
  52              		@ frame_needed = 0, uses_anonymous_args = 0
  53              		@ link register save eliminated.
  54              	.LVL1:
  55              		.loc 1 83 0
ARM GAS  /tmp/ccER7NM2.s 			page 2


  56 0000 0023     		movs	r3, #0
  57              		.loc 1 82 0
  58 0002 0122     		movs	r2, #1
  59 0004 0270     		strb	r2, [r0, #0]
  60              		.loc 1 83 0
  61 0006 4360     		str	r3, [r0, #4]
  62              		.loc 1 85 0
  63 0008 8360     		str	r3, [r0, #8]
  64              		.loc 1 89 0
  65 000a 0C30     		adds	r0, r0, #12
  66              	.LVL2:
  67              		.loc 1 97 0
  68              		.loc 1 89 0
  69 000c FFF7FEBF 		b	chMtxInit
  70              	.LVL3:
  71              		.cfi_endproc
  72              	.LFE119:
  73              		.size	spiObjectInit, .-spiObjectInit
  74              		.section	.text.spiStart,"ax",%progbits
  75              		.align	2
  76              		.p2align 4,,15
  77              		.global	spiStart
  78              		.thumb
  79              		.thumb_func
  80              		.type	spiStart, %function
  81              	spiStart:
  82              	.LFB120:
  83              		.loc 1 107 0
  84              		.cfi_startproc
  85              		@ args = 0, pretend = 0, frame = 0
  86              		@ frame_needed = 0, uses_anonymous_args = 0
  87              	.LVL4:
  88 0000 10B5     		push	{r4, lr}
  89              	.LCFI0:
  90              		.cfi_def_cfa_offset 8
  91              		.cfi_offset 4, -8
  92              		.cfi_offset 14, -4
  93              	.LBB2:
  94              		.loc 1 111 0
  95 0002 2023     		movs	r3, #32
  96              	.LVL5:
  97              	.LBE2:
  98              		.loc 1 107 0
  99 0004 0446     		mov	r4, r0
 100              	.LBB3:
 101              		.loc 1 111 0
 102              	@ 111 "/home/felix/Documents/ChibiOS/os/hal/src/spi.c" 1
 103 0006 83F31188 		msr     BASEPRI, r3
 104              	@ 0 "" 2
 105              	.LVL6:
 106              		.thumb
 107              	.LBE3:
 108              		.loc 1 114 0
 109 000a 4160     		str	r1, [r0, #4]
 110              		.loc 1 115 0
 111 000c FFF7FEFF 		bl	spi_lld_start
 112              	.LVL7:
ARM GAS  /tmp/ccER7NM2.s 			page 3


 113              		.loc 1 116 0
 114 0010 0223     		movs	r3, #2
 115 0012 2370     		strb	r3, [r4, #0]
 116              	.LBB4:
 117              		.loc 1 117 0
 118 0014 0023     		movs	r3, #0
 119              	.LVL8:
 120              	@ 117 "/home/felix/Documents/ChibiOS/os/hal/src/spi.c" 1
 121 0016 83F31188 		msr     BASEPRI, r3
 122              	@ 0 "" 2
 123              	.LVL9:
 124              		.thumb
 125 001a 10BD     		pop	{r4, pc}
 126              	.LBE4:
 127              		.cfi_endproc
 128              	.LFE120:
 129              		.size	spiStart, .-spiStart
 130 001c AFF30080 		.section	.text.spiStop,"ax",%progbits
 131              		.align	2
 132              		.p2align 4,,15
 133              		.global	spiStop
 134              		.thumb
 135              		.thumb_func
 136              		.type	spiStop, %function
 137              	spiStop:
 138              	.LFB121:
 139              		.loc 1 129 0
 140              		.cfi_startproc
 141              		@ args = 0, pretend = 0, frame = 0
 142              		@ frame_needed = 0, uses_anonymous_args = 0
 143              	.LVL10:
 144 0000 10B5     		push	{r4, lr}
 145              	.LCFI1:
 146              		.cfi_def_cfa_offset 8
 147              		.cfi_offset 4, -8
 148              		.cfi_offset 14, -4
 149              	.LBB5:
 150              		.loc 1 133 0
 151 0002 2023     		movs	r3, #32
 152              	.LVL11:
 153              	.LBE5:
 154              		.loc 1 129 0
 155 0004 0446     		mov	r4, r0
 156              	.LBB6:
 157              		.loc 1 133 0
 158              	@ 133 "/home/felix/Documents/ChibiOS/os/hal/src/spi.c" 1
 159 0006 83F31188 		msr     BASEPRI, r3
 160              	@ 0 "" 2
 161              	.LVL12:
 162              		.thumb
 163              	.LBE6:
 164              		.loc 1 136 0
 165 000a FFF7FEFF 		bl	spi_lld_unselect
 166              	.LVL13:
 167              		.loc 1 137 0
 168 000e 2046     		mov	r0, r4
 169 0010 FFF7FEFF 		bl	spi_lld_stop
ARM GAS  /tmp/ccER7NM2.s 			page 4


 170              	.LVL14:
 171              		.loc 1 138 0
 172 0014 0123     		movs	r3, #1
 173 0016 2370     		strb	r3, [r4, #0]
 174              	.LBB7:
 175              		.loc 1 139 0
 176 0018 0023     		movs	r3, #0
 177              	.LVL15:
 178              	@ 139 "/home/felix/Documents/ChibiOS/os/hal/src/spi.c" 1
 179 001a 83F31188 		msr     BASEPRI, r3
 180              	@ 0 "" 2
 181              	.LVL16:
 182              		.thumb
 183 001e 10BD     		pop	{r4, pc}
 184              	.LBE7:
 185              		.cfi_endproc
 186              	.LFE121:
 187              		.size	spiStop, .-spiStop
 188              		.section	.text.spiSelect,"ax",%progbits
 189              		.align	2
 190              		.p2align 4,,15
 191              		.global	spiSelect
 192              		.thumb
 193              		.thumb_func
 194              		.type	spiSelect, %function
 195              	spiSelect:
 196              	.LFB122:
 197              		.loc 1 149 0
 198              		.cfi_startproc
 199              		@ args = 0, pretend = 0, frame = 0
 200              		@ frame_needed = 0, uses_anonymous_args = 0
 201              	.LVL17:
 202 0000 08B5     		push	{r3, lr}
 203              	.LCFI2:
 204              		.cfi_def_cfa_offset 8
 205              		.cfi_offset 3, -8
 206              		.cfi_offset 14, -4
 207              	.LBB8:
 208              		.loc 1 153 0
 209 0002 2023     		movs	r3, #32
 210              	.LVL18:
 211              	@ 153 "/home/felix/Documents/ChibiOS/os/hal/src/spi.c" 1
 212 0004 83F31188 		msr     BASEPRI, r3
 213              	@ 0 "" 2
 214              	.LVL19:
 215              		.thumb
 216              	.LBE8:
 217              		.loc 1 155 0
 218 0008 FFF7FEFF 		bl	spi_lld_select
 219              	.LVL20:
 220              	.LBB9:
 221              		.loc 1 156 0
 222 000c 0023     		movs	r3, #0
 223              	.LVL21:
 224              	@ 156 "/home/felix/Documents/ChibiOS/os/hal/src/spi.c" 1
 225 000e 83F31188 		msr     BASEPRI, r3
 226              	@ 0 "" 2
ARM GAS  /tmp/ccER7NM2.s 			page 5


 227              	.LVL22:
 228              		.thumb
 229 0012 08BD     		pop	{r3, pc}
 230              	.LBE9:
 231              		.cfi_endproc
 232              	.LFE122:
 233              		.size	spiSelect, .-spiSelect
 234 0014 AFF30080 		.section	.text.spiUnselect,"ax",%progbits
 234      AFF30080 
 234      AFF30080 
 235              		.align	2
 236              		.p2align 4,,15
 237              		.global	spiUnselect
 238              		.thumb
 239              		.thumb_func
 240              		.type	spiUnselect, %function
 241              	spiUnselect:
 242              	.LFB123:
 243              		.loc 1 167 0
 244              		.cfi_startproc
 245              		@ args = 0, pretend = 0, frame = 0
 246              		@ frame_needed = 0, uses_anonymous_args = 0
 247              	.LVL23:
 248 0000 08B5     		push	{r3, lr}
 249              	.LCFI3:
 250              		.cfi_def_cfa_offset 8
 251              		.cfi_offset 3, -8
 252              		.cfi_offset 14, -4
 253              	.LBB10:
 254              		.loc 1 171 0
 255 0002 2023     		movs	r3, #32
 256              	.LVL24:
 257              	@ 171 "/home/felix/Documents/ChibiOS/os/hal/src/spi.c" 1
 258 0004 83F31188 		msr     BASEPRI, r3
 259              	@ 0 "" 2
 260              	.LVL25:
 261              		.thumb
 262              	.LBE10:
 263              		.loc 1 173 0
 264 0008 FFF7FEFF 		bl	spi_lld_unselect
 265              	.LVL26:
 266              	.LBB11:
 267              		.loc 1 174 0
 268 000c 0023     		movs	r3, #0
 269              	.LVL27:
 270              	@ 174 "/home/felix/Documents/ChibiOS/os/hal/src/spi.c" 1
 271 000e 83F31188 		msr     BASEPRI, r3
 272              	@ 0 "" 2
 273              	.LVL28:
 274              		.thumb
 275 0012 08BD     		pop	{r3, pc}
 276              	.LBE11:
 277              		.cfi_endproc
 278              	.LFE123:
 279              		.size	spiUnselect, .-spiUnselect
 280 0014 AFF30080 		.section	.text.spiStartIgnore,"ax",%progbits
 280      AFF30080 
ARM GAS  /tmp/ccER7NM2.s 			page 6


 280      AFF30080 
 281              		.align	2
 282              		.p2align 4,,15
 283              		.global	spiStartIgnore
 284              		.thumb
 285              		.thumb_func
 286              		.type	spiStartIgnore, %function
 287              	spiStartIgnore:
 288              	.LFB124:
 289              		.loc 1 190 0
 290              		.cfi_startproc
 291              		@ args = 0, pretend = 0, frame = 0
 292              		@ frame_needed = 0, uses_anonymous_args = 0
 293              	.LVL29:
 294 0000 08B5     		push	{r3, lr}
 295              	.LCFI4:
 296              		.cfi_def_cfa_offset 8
 297              		.cfi_offset 3, -8
 298              		.cfi_offset 14, -4
 299              	.LBB12:
 300              		.loc 1 194 0
 301 0002 2023     		movs	r3, #32
 302              	.LVL30:
 303              	@ 194 "/home/felix/Documents/ChibiOS/os/hal/src/spi.c" 1
 304 0004 83F31188 		msr     BASEPRI, r3
 305              	@ 0 "" 2
 306              	.LVL31:
 307              		.thumb
 308              	.LBE12:
 309              		.loc 1 196 0
 310 0008 0323     		movs	r3, #3
 311              	.LVL32:
 312 000a 0370     		strb	r3, [r0, #0]
 313 000c FFF7FEFF 		bl	spi_lld_ignore
 314              	.LVL33:
 315              	.LBB13:
 316              		.loc 1 197 0
 317 0010 0023     		movs	r3, #0
 318              	.LVL34:
 319              	@ 197 "/home/felix/Documents/ChibiOS/os/hal/src/spi.c" 1
 320 0012 83F31188 		msr     BASEPRI, r3
 321              	@ 0 "" 2
 322              	.LVL35:
 323              		.thumb
 324 0016 08BD     		pop	{r3, pc}
 325              	.LBE13:
 326              		.cfi_endproc
 327              	.LFE124:
 328              		.size	spiStartIgnore, .-spiStartIgnore
 329 0018 AFF30080 		.section	.text.spiStartExchange,"ax",%progbits
 329      AFF30080 
 330              		.align	2
 331              		.p2align 4,,15
 332              		.global	spiStartExchange
 333              		.thumb
 334              		.thumb_func
 335              		.type	spiStartExchange, %function
ARM GAS  /tmp/ccER7NM2.s 			page 7


 336              	spiStartExchange:
 337              	.LFB125:
 338              		.loc 1 218 0
 339              		.cfi_startproc
 340              		@ args = 0, pretend = 0, frame = 0
 341              		@ frame_needed = 0, uses_anonymous_args = 0
 342              	.LVL36:
 343 0000 70B5     		push	{r4, r5, r6, lr}
 344              	.LCFI5:
 345              		.cfi_def_cfa_offset 16
 346              		.cfi_offset 4, -16
 347              		.cfi_offset 5, -12
 348              		.cfi_offset 6, -8
 349              		.cfi_offset 14, -4
 350              		.loc 1 218 0
 351 0002 1E46     		mov	r6, r3
 352 0004 0446     		mov	r4, r0
 353              	.LBB14:
 354              		.loc 1 223 0
 355 0006 2023     		movs	r3, #32
 356              	.LVL37:
 357              	@ 223 "/home/felix/Documents/ChibiOS/os/hal/src/spi.c" 1
 358 0008 83F31188 		msr     BASEPRI, r3
 359              	@ 0 "" 2
 360              	.LVL38:
 361              		.thumb
 362              	.LBE14:
 363              		.loc 1 225 0
 364 000c 0325     		movs	r5, #3
 365 000e 3346     		mov	r3, r6
 366              	.LVL39:
 367 0010 0570     		strb	r5, [r0, #0]
 368 0012 FFF7FEFF 		bl	spi_lld_exchange
 369              	.LVL40:
 370              	.LBB15:
 371              		.loc 1 226 0
 372 0016 0023     		movs	r3, #0
 373              	.LVL41:
 374              	@ 226 "/home/felix/Documents/ChibiOS/os/hal/src/spi.c" 1
 375 0018 83F31188 		msr     BASEPRI, r3
 376              	@ 0 "" 2
 377              	.LVL42:
 378              		.thumb
 379 001c 70BD     		pop	{r4, r5, r6, pc}
 380              	.LBE15:
 381              		.cfi_endproc
 382              	.LFE125:
 383              		.size	spiStartExchange, .-spiStartExchange
 384 001e 00BF     		.section	.text.spiStartSend,"ax",%progbits
 385              		.align	2
 386              		.p2align 4,,15
 387              		.global	spiStartSend
 388              		.thumb
 389              		.thumb_func
 390              		.type	spiStartSend, %function
 391              	spiStartSend:
 392              	.LFB126:
ARM GAS  /tmp/ccER7NM2.s 			page 8


 393              		.loc 1 244 0
 394              		.cfi_startproc
 395              		@ args = 0, pretend = 0, frame = 0
 396              		@ frame_needed = 0, uses_anonymous_args = 0
 397              	.LVL43:
 398 0000 10B5     		push	{r4, lr}
 399              	.LCFI6:
 400              		.cfi_def_cfa_offset 8
 401              		.cfi_offset 4, -8
 402              		.cfi_offset 14, -4
 403              	.LBB16:
 404              		.loc 1 249 0
 405 0002 2023     		movs	r3, #32
 406              	.LVL44:
 407              	.LBE16:
 408              		.loc 1 244 0
 409 0004 0446     		mov	r4, r0
 410              	.LBB17:
 411              		.loc 1 249 0
 412              	@ 249 "/home/felix/Documents/ChibiOS/os/hal/src/spi.c" 1
 413 0006 83F31188 		msr     BASEPRI, r3
 414              	@ 0 "" 2
 415              	.LVL45:
 416              		.thumb
 417              	.LBE17:
 418              		.loc 1 251 0
 419 000a 0323     		movs	r3, #3
 420              	.LVL46:
 421 000c 0370     		strb	r3, [r0, #0]
 422 000e FFF7FEFF 		bl	spi_lld_send
 423              	.LVL47:
 424              	.LBB18:
 425              		.loc 1 252 0
 426 0012 0023     		movs	r3, #0
 427              	.LVL48:
 428              	@ 252 "/home/felix/Documents/ChibiOS/os/hal/src/spi.c" 1
 429 0014 83F31188 		msr     BASEPRI, r3
 430              	@ 0 "" 2
 431              	.LVL49:
 432              		.thumb
 433 0018 10BD     		pop	{r4, pc}
 434              	.LBE18:
 435              		.cfi_endproc
 436              	.LFE126:
 437              		.size	spiStartSend, .-spiStartSend
 438 001a 00BFAFF3 		.section	.text.spiStartReceive,"ax",%progbits
 438      0080
 439              		.align	2
 440              		.p2align 4,,15
 441              		.global	spiStartReceive
 442              		.thumb
 443              		.thumb_func
 444              		.type	spiStartReceive, %function
 445              	spiStartReceive:
 446              	.LFB127:
 447              		.loc 1 270 0
 448              		.cfi_startproc
ARM GAS  /tmp/ccER7NM2.s 			page 9


 449              		@ args = 0, pretend = 0, frame = 0
 450              		@ frame_needed = 0, uses_anonymous_args = 0
 451              	.LVL50:
 452 0000 10B5     		push	{r4, lr}
 453              	.LCFI7:
 454              		.cfi_def_cfa_offset 8
 455              		.cfi_offset 4, -8
 456              		.cfi_offset 14, -4
 457              	.LBB19:
 458              		.loc 1 275 0
 459 0002 2023     		movs	r3, #32
 460              	.LVL51:
 461              	.LBE19:
 462              		.loc 1 270 0
 463 0004 0446     		mov	r4, r0
 464              	.LBB20:
 465              		.loc 1 275 0
 466              	@ 275 "/home/felix/Documents/ChibiOS/os/hal/src/spi.c" 1
 467 0006 83F31188 		msr     BASEPRI, r3
 468              	@ 0 "" 2
 469              	.LVL52:
 470              		.thumb
 471              	.LBE20:
 472              		.loc 1 277 0
 473 000a 0323     		movs	r3, #3
 474              	.LVL53:
 475 000c 0370     		strb	r3, [r0, #0]
 476 000e FFF7FEFF 		bl	spi_lld_receive
 477              	.LVL54:
 478              	.LBB21:
 479              		.loc 1 278 0
 480 0012 0023     		movs	r3, #0
 481              	.LVL55:
 482              	@ 278 "/home/felix/Documents/ChibiOS/os/hal/src/spi.c" 1
 483 0014 83F31188 		msr     BASEPRI, r3
 484              	@ 0 "" 2
 485              	.LVL56:
 486              		.thumb
 487 0018 10BD     		pop	{r4, pc}
 488              	.LBE21:
 489              		.cfi_endproc
 490              	.LFE127:
 491              		.size	spiStartReceive, .-spiStartReceive
 492 001a 00BFAFF3 		.section	.text.spiIgnore,"ax",%progbits
 492      0080
 493              		.align	2
 494              		.p2align 4,,15
 495              		.global	spiIgnore
 496              		.thumb
 497              		.thumb_func
 498              		.type	spiIgnore, %function
 499              	spiIgnore:
 500              	.LFB128:
 501              		.loc 1 296 0
 502              		.cfi_startproc
 503              		@ args = 0, pretend = 0, frame = 0
 504              		@ frame_needed = 0, uses_anonymous_args = 0
ARM GAS  /tmp/ccER7NM2.s 			page 10


 505              	.LVL57:
 506 0000 10B5     		push	{r4, lr}
 507              	.LCFI8:
 508              		.cfi_def_cfa_offset 8
 509              		.cfi_offset 4, -8
 510              		.cfi_offset 14, -4
 511              	.LBB22:
 512              		.loc 1 300 0
 513 0002 2023     		movs	r3, #32
 514              	.LVL58:
 515              	.LBE22:
 516              		.loc 1 296 0
 517 0004 0446     		mov	r4, r0
 518              	.LBB23:
 519              		.loc 1 300 0
 520              	@ 300 "/home/felix/Documents/ChibiOS/os/hal/src/spi.c" 1
 521 0006 83F31188 		msr     BASEPRI, r3
 522              	@ 0 "" 2
 523              	.LVL59:
 524              		.thumb
 525              	.LBE23:
 526              		.loc 1 303 0
 527 000a 0323     		movs	r3, #3
 528              	.LVL60:
 529 000c 0370     		strb	r3, [r0, #0]
 530 000e FFF7FEFF 		bl	spi_lld_ignore
 531              	.LVL61:
 532              		.loc 1 304 0
 533 0012 40F20003 		movw	r3, #:lower16:rlist
 534 0016 C0F20003 		movt	r3, #:upper16:rlist
 535 001a 0220     		movs	r0, #2
 536 001c 9B69     		ldr	r3, [r3, #24]
 537 001e A360     		str	r3, [r4, #8]
 538 0020 FFF7FEFF 		bl	chSchGoSleepS
 539              	.LVL62:
 540              	.LBB24:
 541              		.loc 1 305 0
 542 0024 0023     		movs	r3, #0
 543              	.LVL63:
 544              	@ 305 "/home/felix/Documents/ChibiOS/os/hal/src/spi.c" 1
 545 0026 83F31188 		msr     BASEPRI, r3
 546              	@ 0 "" 2
 547              	.LVL64:
 548              		.thumb
 549 002a 10BD     		pop	{r4, pc}
 550              	.LBE24:
 551              		.cfi_endproc
 552              	.LFE128:
 553              		.size	spiIgnore, .-spiIgnore
 554 002c AFF30080 		.section	.text.spiExchange,"ax",%progbits
 555              		.align	2
 556              		.p2align 4,,15
 557              		.global	spiExchange
 558              		.thumb
 559              		.thumb_func
 560              		.type	spiExchange, %function
 561              	spiExchange:
ARM GAS  /tmp/ccER7NM2.s 			page 11


 562              	.LFB129:
 563              		.loc 1 327 0
 564              		.cfi_startproc
 565              		@ args = 0, pretend = 0, frame = 0
 566              		@ frame_needed = 0, uses_anonymous_args = 0
 567              	.LVL65:
 568 0000 70B5     		push	{r4, r5, r6, lr}
 569              	.LCFI9:
 570              		.cfi_def_cfa_offset 16
 571              		.cfi_offset 4, -16
 572              		.cfi_offset 5, -12
 573              		.cfi_offset 6, -8
 574              		.cfi_offset 14, -4
 575              		.loc 1 327 0
 576 0002 1E46     		mov	r6, r3
 577 0004 0446     		mov	r4, r0
 578              	.LBB25:
 579              		.loc 1 332 0
 580 0006 2023     		movs	r3, #32
 581              	.LVL66:
 582              	@ 332 "/home/felix/Documents/ChibiOS/os/hal/src/spi.c" 1
 583 0008 83F31188 		msr     BASEPRI, r3
 584              	@ 0 "" 2
 585              	.LVL67:
 586              		.thumb
 587              	.LBE25:
 588              		.loc 1 336 0
 589 000c 0325     		movs	r5, #3
 590 000e 3346     		mov	r3, r6
 591              	.LVL68:
 592 0010 0570     		strb	r5, [r0, #0]
 593 0012 FFF7FEFF 		bl	spi_lld_exchange
 594              	.LVL69:
 595              		.loc 1 337 0
 596 0016 40F20003 		movw	r3, #:lower16:rlist
 597 001a C0F20003 		movt	r3, #:upper16:rlist
 598 001e 0220     		movs	r0, #2
 599 0020 9B69     		ldr	r3, [r3, #24]
 600 0022 A360     		str	r3, [r4, #8]
 601 0024 FFF7FEFF 		bl	chSchGoSleepS
 602              	.LVL70:
 603              	.LBB26:
 604              		.loc 1 338 0
 605 0028 0023     		movs	r3, #0
 606              	.LVL71:
 607              	@ 338 "/home/felix/Documents/ChibiOS/os/hal/src/spi.c" 1
 608 002a 83F31188 		msr     BASEPRI, r3
 609              	@ 0 "" 2
 610              	.LVL72:
 611              		.thumb
 612 002e 70BD     		pop	{r4, r5, r6, pc}
 613              	.LBE26:
 614              		.cfi_endproc
 615              	.LFE129:
 616              		.size	spiExchange, .-spiExchange
 617              		.section	.text.spiSend,"ax",%progbits
 618              		.align	2
ARM GAS  /tmp/ccER7NM2.s 			page 12


 619              		.p2align 4,,15
 620              		.global	spiSend
 621              		.thumb
 622              		.thumb_func
 623              		.type	spiSend, %function
 624              	spiSend:
 625              	.LFB130:
 626              		.loc 1 357 0
 627              		.cfi_startproc
 628              		@ args = 0, pretend = 0, frame = 0
 629              		@ frame_needed = 0, uses_anonymous_args = 0
 630              	.LVL73:
 631 0000 10B5     		push	{r4, lr}
 632              	.LCFI10:
 633              		.cfi_def_cfa_offset 8
 634              		.cfi_offset 4, -8
 635              		.cfi_offset 14, -4
 636              	.LBB27:
 637              		.loc 1 361 0
 638 0002 2023     		movs	r3, #32
 639              	.LVL74:
 640              	.LBE27:
 641              		.loc 1 357 0
 642 0004 0446     		mov	r4, r0
 643              	.LBB28:
 644              		.loc 1 361 0
 645              	@ 361 "/home/felix/Documents/ChibiOS/os/hal/src/spi.c" 1
 646 0006 83F31188 		msr     BASEPRI, r3
 647              	@ 0 "" 2
 648              	.LVL75:
 649              		.thumb
 650              	.LBE28:
 651              		.loc 1 364 0
 652 000a 0323     		movs	r3, #3
 653              	.LVL76:
 654 000c 0370     		strb	r3, [r0, #0]
 655 000e FFF7FEFF 		bl	spi_lld_send
 656              	.LVL77:
 657              		.loc 1 365 0
 658 0012 40F20003 		movw	r3, #:lower16:rlist
 659 0016 C0F20003 		movt	r3, #:upper16:rlist
 660 001a 0220     		movs	r0, #2
 661 001c 9B69     		ldr	r3, [r3, #24]
 662 001e A360     		str	r3, [r4, #8]
 663 0020 FFF7FEFF 		bl	chSchGoSleepS
 664              	.LVL78:
 665              	.LBB29:
 666              		.loc 1 366 0
 667 0024 0023     		movs	r3, #0
 668              	.LVL79:
 669              	@ 366 "/home/felix/Documents/ChibiOS/os/hal/src/spi.c" 1
 670 0026 83F31188 		msr     BASEPRI, r3
 671              	@ 0 "" 2
 672              	.LVL80:
 673              		.thumb
 674 002a 10BD     		pop	{r4, pc}
 675              	.LBE29:
ARM GAS  /tmp/ccER7NM2.s 			page 13


 676              		.cfi_endproc
 677              	.LFE130:
 678              		.size	spiSend, .-spiSend
 679 002c AFF30080 		.section	.text.spiReceive,"ax",%progbits
 680              		.align	2
 681              		.p2align 4,,15
 682              		.global	spiReceive
 683              		.thumb
 684              		.thumb_func
 685              		.type	spiReceive, %function
 686              	spiReceive:
 687              	.LFB131:
 688              		.loc 1 385 0
 689              		.cfi_startproc
 690              		@ args = 0, pretend = 0, frame = 0
 691              		@ frame_needed = 0, uses_anonymous_args = 0
 692              	.LVL81:
 693 0000 10B5     		push	{r4, lr}
 694              	.LCFI11:
 695              		.cfi_def_cfa_offset 8
 696              		.cfi_offset 4, -8
 697              		.cfi_offset 14, -4
 698              	.LBB30:
 699              		.loc 1 390 0
 700 0002 2023     		movs	r3, #32
 701              	.LVL82:
 702              	.LBE30:
 703              		.loc 1 385 0
 704 0004 0446     		mov	r4, r0
 705              	.LBB31:
 706              		.loc 1 390 0
 707              	@ 390 "/home/felix/Documents/ChibiOS/os/hal/src/spi.c" 1
 708 0006 83F31188 		msr     BASEPRI, r3
 709              	@ 0 "" 2
 710              	.LVL83:
 711              		.thumb
 712              	.LBE31:
 713              		.loc 1 394 0
 714 000a 0323     		movs	r3, #3
 715              	.LVL84:
 716 000c 0370     		strb	r3, [r0, #0]
 717 000e FFF7FEFF 		bl	spi_lld_receive
 718              	.LVL85:
 719              		.loc 1 395 0
 720 0012 40F20003 		movw	r3, #:lower16:rlist
 721 0016 C0F20003 		movt	r3, #:upper16:rlist
 722 001a 0220     		movs	r0, #2
 723 001c 9B69     		ldr	r3, [r3, #24]
 724 001e A360     		str	r3, [r4, #8]
 725 0020 FFF7FEFF 		bl	chSchGoSleepS
 726              	.LVL86:
 727              	.LBB32:
 728              		.loc 1 396 0
 729 0024 0023     		movs	r3, #0
 730              	.LVL87:
 731              	@ 396 "/home/felix/Documents/ChibiOS/os/hal/src/spi.c" 1
 732 0026 83F31188 		msr     BASEPRI, r3
ARM GAS  /tmp/ccER7NM2.s 			page 14


 733              	@ 0 "" 2
 734              	.LVL88:
 735              		.thumb
 736 002a 10BD     		pop	{r4, pc}
 737              	.LBE32:
 738              		.cfi_endproc
 739              	.LFE131:
 740              		.size	spiReceive, .-spiReceive
 741 002c AFF30080 		.section	.text.spiAcquireBus,"ax",%progbits
 742              		.align	2
 743              		.p2align 4,,15
 744              		.global	spiAcquireBus
 745              		.thumb
 746              		.thumb_func
 747              		.type	spiAcquireBus, %function
 748              	spiAcquireBus:
 749              	.LFB132:
 750              		.loc 1 412 0
 751              		.cfi_startproc
 752              		@ args = 0, pretend = 0, frame = 0
 753              		@ frame_needed = 0, uses_anonymous_args = 0
 754              		@ link register save eliminated.
 755              	.LVL89:
 756              		.loc 1 417 0
 757 0000 0C30     		adds	r0, r0, #12
 758              	.LVL90:
 759              		.loc 1 421 0
 760              		.loc 1 417 0
 761 0002 FFF7FEBF 		b	chMtxLock
 762              	.LVL91:
 763              		.cfi_endproc
 764              	.LFE132:
 765              		.size	spiAcquireBus, .-spiAcquireBus
 766 0006 00BFAFF3 		.section	.text.spiReleaseBus,"ax",%progbits
 766      0080AFF3 
 766      0080
 767              		.align	2
 768              		.p2align 4,,15
 769              		.global	spiReleaseBus
 770              		.thumb
 771              		.thumb_func
 772              		.type	spiReleaseBus, %function
 773              	spiReleaseBus:
 774              	.LFB133:
 775              		.loc 1 432 0
 776              		.cfi_startproc
 777              		@ args = 0, pretend = 0, frame = 0
 778              		@ frame_needed = 0, uses_anonymous_args = 0
 779              		@ link register save eliminated.
 780              	.LVL92:
 781              		.loc 1 442 0
 782              		.loc 1 438 0
 783 0000 FFF7FEBF 		b	chMtxUnlock
 784              	.LVL93:
 785              		.cfi_endproc
 786              	.LFE133:
 787              		.size	spiReleaseBus, .-spiReleaseBus
ARM GAS  /tmp/ccER7NM2.s 			page 15


 788 0004 AFF30080 		.text
 788      AFF30080 
 788      AFF30080 
 789              	.Letext0:
 790              		.file 2 "/opt/tools_arm/lib/gcc/arm-none-eabi/4.7.3/include/stddef.h"
 791              		.file 3 "/opt/tools_arm/lib/gcc/arm-none-eabi/4.7.3/../../../../arm-none-eabi/include/stdint.h"
 792              		.file 4 "/home/felix/Documents/ChibiOS/os/ports/GCC/ARMCMx/chtypes.h"
 793              		.file 5 "/home/felix/Documents/ChibiOS/os/kernel/include/chlists.h"
 794              		.file 6 "/home/felix/Documents/ChibiOS/os/kernel/include/chthreads.h"
 795              		.file 7 "/home/felix/Documents/ChibiOS/os/ports/GCC/ARMCMx/chcore_v7m.h"
 796              		.file 8 "/home/felix/Documents/ChibiOS/os/kernel/include/chschd.h"
 797              		.file 9 "/home/felix/Documents/ChibiOS/os/kernel/include/chmtx.h"
 798              		.file 10 "/home/felix/Documents/ChibiOS/os/hal/platforms/STM32F4xx/stm32f4xx.h"
 799              		.file 11 "/home/felix/Documents/ChibiOS/os/hal/platforms/STM32F4xx/stm32_dma.h"
 800              		.file 12 "/home/felix/Documents/ChibiOS/os/hal/platforms/STM32/GPIOv2/pal_lld.h"
 801              		.file 13 "/home/felix/Documents/ChibiOS/os/hal/include/spi.h"
 802              		.file 14 "/home/felix/Documents/ChibiOS/os/hal/platforms/STM32/SPIv1/spi_lld.h"
 803              		.file 15 "/home/felix/Documents/ChibiOS/os/ports/common/ARMCMx/CMSIS/include/core_cm4.h"