ARM GAS  /tmp/cctwC2JE.s 			page 1


   1              		.syntax unified
   2              		.cpu cortex-m4
   3              		.fpu softvfp
   4              		.eabi_attribute 20, 1
   5              		.eabi_attribute 21, 1
   6              		.eabi_attribute 23, 3
   7              		.eabi_attribute 24, 1
   8              		.eabi_attribute 25, 1
   9              		.eabi_attribute 26, 1
  10              		.eabi_attribute 30, 2
  11              		.eabi_attribute 34, 1
  12              		.eabi_attribute 18, 4
  13              		.thumb
  14              		.file	"spi_lld.c"
  15              		.text
  16              	.Ltext0:
  17              		.cfi_sections	.debug_frame
  18              		.section	.text.spi_lld_serve_tx_interrupt,"ax",%progbits
  19              		.align	2
  20              		.p2align 4,,15
  21              		.thumb
  22              		.thumb_func
  23              		.type	spi_lld_serve_tx_interrupt, %function
  24              	spi_lld_serve_tx_interrupt:
  25              	.LFB119:
  26              		.file 1 "/home/felix/Documents/ChibiOS/os/hal/platforms/STM32/SPIv1/spi_lld.c"
  27              		.loc 1 120 0
  28              		.cfi_startproc
  29              		@ args = 0, pretend = 0, frame = 0
  30              		@ frame_needed = 0, uses_anonymous_args = 0
  31              		@ link register save eliminated.
  32              	.LVL0:
  33              		.loc 1 125 0
  34 0000 11F00C0F 		tst	r1, #12
  35 0004 00D1     		bne	.L4
  36 0006 7047     		bx	lr
  37              	.L4:
  38              		.loc 1 132 0
  39              		.loc 1 126 0
  40 0008 FFF7FEBF 		b	port_halt
  41              	.LVL1:
  42              		.cfi_endproc
  43              	.LFE119:
  44              		.size	spi_lld_serve_tx_interrupt, .-spi_lld_serve_tx_interrupt
  45 000c AFF30080 		.section	.text.spi_lld_serve_rx_interrupt,"ax",%progbits
  46              		.align	2
  47              		.p2align 4,,15
  48              		.thumb
  49              		.thumb_func
  50              		.type	spi_lld_serve_rx_interrupt, %function
  51              	spi_lld_serve_rx_interrupt:
  52              	.LFB118:
  53              		.loc 1 94 0
  54              		.cfi_startproc
  55              		@ args = 0, pretend = 0, frame = 0
  56              		@ frame_needed = 0, uses_anonymous_args = 0
  57              	.LVL2:
ARM GAS  /tmp/cctwC2JE.s 			page 2


  58              		.loc 1 98 0
  59 0000 11F00C0F 		tst	r1, #12
  60              		.loc 1 94 0
  61 0004 38B5     		push	{r3, r4, r5, lr}
  62              	.LCFI0:
  63              		.cfi_def_cfa_offset 16
  64              		.cfi_offset 3, -16
  65              		.cfi_offset 4, -12
  66              		.cfi_offset 5, -8
  67              		.cfi_offset 14, -4
  68              		.loc 1 94 0
  69 0006 0446     		mov	r4, r0
  70              		.loc 1 98 0
  71 0008 35D1     		bne	.L20
  72              	.LVL3:
  73              	.L6:
  74              		.loc 1 106 0
  75 000a 606A     		ldr	r0, [r4, #36]
  76 000c 0268     		ldr	r2, [r0, #0]
  77 000e 1368     		ldr	r3, [r2, #0]
  78 0010 23F01F03 		bic	r3, r3, #31
  79 0014 1360     		str	r3, [r2, #0]
  80              	.L7:
  81              		.loc 1 106 0 is_stmt 0 discriminator 1
  82 0016 1368     		ldr	r3, [r2, #0]
  83 0018 D907     		lsls	r1, r3, #31
  84 001a FCD4     		bmi	.L7
  85              		.loc 1 106 0 discriminator 2
  86 001c 057A     		ldrb	r5, [r0, #8]	@ zero_extendqisi2
  87              		.loc 1 107 0 is_stmt 1 discriminator 2
  88 001e 216A     		ldr	r1, [r4, #32]
  89              		.loc 1 106 0 discriminator 2
  90 0020 4368     		ldr	r3, [r0, #4]
  91              		.loc 1 107 0 discriminator 2
  92 0022 0A68     		ldr	r2, [r1, #0]
  93              		.loc 1 106 0 discriminator 2
  94 0024 3D20     		movs	r0, #61
  95 0026 A840     		lsls	r0, r0, r5
  96 0028 1860     		str	r0, [r3, #0]
  97              		.loc 1 107 0 discriminator 2
  98 002a 1368     		ldr	r3, [r2, #0]
  99 002c 23F01F03 		bic	r3, r3, #31
 100 0030 1360     		str	r3, [r2, #0]
 101              	.L8:
 102              		.loc 1 107 0 is_stmt 0 discriminator 1
 103 0032 1368     		ldr	r3, [r2, #0]
 104 0034 DB07     		lsls	r3, r3, #31
 105 0036 FCD4     		bmi	.L8
 106              		.loc 1 111 0 is_stmt 1 discriminator 2
 107 0038 6368     		ldr	r3, [r4, #4]
 108              		.loc 1 107 0 discriminator 2
 109 003a 087A     		ldrb	r0, [r1, #8]	@ zero_extendqisi2
 110 003c 4A68     		ldr	r2, [r1, #4]
 111              		.loc 1 111 0 discriminator 2
 112 003e 1B68     		ldr	r3, [r3, #0]
 113              		.loc 1 107 0 discriminator 2
 114 0040 3D21     		movs	r1, #61
ARM GAS  /tmp/cctwC2JE.s 			page 3


 115 0042 8140     		lsls	r1, r1, r0
 116 0044 1160     		str	r1, [r2, #0]
 117              		.loc 1 111 0 discriminator 2
 118 0046 9BB1     		cbz	r3, .L9
 119              		.loc 1 111 0 is_stmt 0 discriminator 1
 120 0048 0422     		movs	r2, #4
 121 004a 2270     		strb	r2, [r4, #0]
 122 004c 2046     		mov	r0, r4
 123 004e 9847     		blx	r3
 124              	.LVL4:
 125 0050 2378     		ldrb	r3, [r4, #0]	@ zero_extendqisi2
 126 0052 042B     		cmp	r3, #4
 127 0054 0CD0     		beq	.L9
 128              	.L10:
 129              		.loc 1 111 0 discriminator 4
 130 0056 A068     		ldr	r0, [r4, #8]
 131 0058 48B1     		cbz	r0, .L5
 132              	.LVL5:
 133              	.LBB2:
 134              		.loc 1 111 0 discriminator 5
 135 005a 0025     		movs	r5, #0
 136 005c A560     		str	r5, [r4, #8]
 137              	.LBB3:
 138 005e 2023     		movs	r3, #32
 139              	.LVL6:
 140              	@ 111 "/home/felix/Documents/ChibiOS/os/hal/platforms/STM32/SPIv1/spi_lld.c" 1
 141 0060 83F31188 		msr     BASEPRI, r3
 142              	@ 0 "" 2
 143              	.LVL7:
 144              		.thumb
 145              	.LBE3:
 146 0064 FFF7FEFF 		bl	chSchReadyI
 147              	.LVL8:
 148              	.LBB4:
 149 0068 2B46     		mov	r3, r5
 150              	.LVL9:
 151              	@ 111 "/home/felix/Documents/ChibiOS/os/hal/platforms/STM32/SPIv1/spi_lld.c" 1
 152 006a 83F31188 		msr     BASEPRI, r3
 153              	@ 0 "" 2
 154              	.LVL10:
 155              		.thumb
 156              	.L5:
 157 006e 38BD     		pop	{r3, r4, r5, pc}
 158              	.LVL11:
 159              	.L9:
 160              	.LBE4:
 161              	.LBE2:
 162              		.loc 1 111 0 discriminator 2
 163 0070 0223     		movs	r3, #2
 164 0072 2370     		strb	r3, [r4, #0]
 165 0074 EFE7     		b	.L10
 166              	.LVL12:
 167              	.L20:
 168              		.loc 1 99 0 is_stmt 1
 169 0076 FFF7FEFF 		bl	port_halt
 170              	.LVL13:
 171 007a C6E7     		b	.L6
ARM GAS  /tmp/cctwC2JE.s 			page 4


 172              		.cfi_endproc
 173              	.LFE118:
 174              		.size	spi_lld_serve_rx_interrupt, .-spi_lld_serve_rx_interrupt
 175 007c AFF30080 		.section	.text.spi_lld_init,"ax",%progbits
 176              		.align	2
 177              		.p2align 4,,15
 178              		.global	spi_lld_init
 179              		.thumb
 180              		.thumb_func
 181              		.type	spi_lld_init, %function
 182              	spi_lld_init:
 183              	.LFB120:
 184              		.loc 1 147 0
 185              		.cfi_startproc
 186              		@ args = 0, pretend = 0, frame = 0
 187              		@ frame_needed = 0, uses_anonymous_args = 0
 188 0000 38B5     		push	{r3, r4, r5, lr}
 189              	.LCFI1:
 190              		.cfi_def_cfa_offset 16
 191              		.cfi_offset 3, -16
 192              		.cfi_offset 4, -12
 193              		.cfi_offset 5, -8
 194              		.cfi_offset 14, -4
 195              		.loc 1 149 0
 196 0002 40F20003 		movw	r3, #:lower16:.LANCHOR0
 197              		.loc 1 170 0
 198 0006 40F20004 		movw	r4, #:lower16:.LANCHOR1
 199 000a C0F20004 		movt	r4, #:upper16:.LANCHOR1
 200              		.loc 1 149 0
 201 000e C0F20003 		movt	r3, #:upper16:.LANCHOR0
 202 0012 4FF6FF72 		movw	r2, #65535
 203              		.loc 1 170 0
 204 0016 2046     		mov	r0, r4
 205              		.loc 1 149 0
 206 0018 1A80     		strh	r2, [r3, #0]	@ movhi
 207              		.loc 1 170 0
 208 001a FFF7FEFF 		bl	spiObjectInit
 209              	.LVL14:
 210              		.loc 1 172 0
 211 001e 0949     		ldr	r1, .L22
 212              		.loc 1 171 0
 213 0020 4FF46050 		mov	r0, #14336
 214              		.loc 1 174 0
 215 0024 1622     		movs	r2, #22
 216              		.loc 1 180 0
 217 0026 4623     		movs	r3, #70
 218              		.loc 1 171 0
 219 0028 C4F20000 		movt	r0, 16384
 220              		.loc 1 173 0
 221 002c 01F10C05 		add	r5, r1, #12
 222              		.loc 1 174 0
 223 0030 C0F20102 		movt	r2, 1
 224              		.loc 1 180 0
 225 0034 C0F20103 		movt	r3, 1
 226              		.loc 1 171 0
 227 0038 E061     		str	r0, [r4, #28]
 228              		.loc 1 172 0
ARM GAS  /tmp/cctwC2JE.s 			page 5


 229 003a 2162     		str	r1, [r4, #32]
 230              		.loc 1 173 0
 231 003c 6562     		str	r5, [r4, #36]
 232              		.loc 1 174 0
 233 003e A262     		str	r2, [r4, #40]
 234              		.loc 1 180 0
 235 0040 E362     		str	r3, [r4, #44]
 236 0042 38BD     		pop	{r3, r4, r5, pc}
 237              	.L23:
 238              		.align	2
 239              	.L22:
 240 0044 24000000 		.word	_stm32_dma_streams+36
 241              		.cfi_endproc
 242              	.LFE120:
 243              		.size	spi_lld_init, .-spi_lld_init
 244 0048 AFF30080 		.section	.text.spi_lld_start,"ax",%progbits
 244      AFF30080 
 245              		.align	2
 246              		.p2align 4,,15
 247              		.global	spi_lld_start
 248              		.thumb
 249              		.thumb_func
 250              		.type	spi_lld_start, %function
 251              	spi_lld_start:
 252              	.LFB121:
 253              		.loc 1 213 0
 254              		.cfi_startproc
 255              		@ args = 0, pretend = 0, frame = 0
 256              		@ frame_needed = 0, uses_anonymous_args = 0
 257              	.LVL15:
 258              		.loc 1 216 0
 259 0000 0378     		ldrb	r3, [r0, #0]	@ zero_extendqisi2
 260 0002 012B     		cmp	r3, #1
 261              		.loc 1 213 0
 262 0004 10B5     		push	{r4, lr}
 263              	.LCFI2:
 264              		.cfi_def_cfa_offset 8
 265              		.cfi_offset 4, -8
 266              		.cfi_offset 14, -4
 267              		.loc 1 213 0
 268 0006 0446     		mov	r4, r0
 269              		.loc 1 216 0
 270 0008 1ED0     		beq	.L30
 271 000a C369     		ldr	r3, [r0, #28]
 272              	.LVL16:
 273              	.L25:
 274              		.loc 1 272 0
 275 000c 6268     		ldr	r2, [r4, #4]
 276              		.loc 1 275 0
 277 000e A06A     		ldr	r0, [r4, #40]
 278              		.loc 1 272 0
 279 0010 5289     		ldrh	r2, [r2, #10]
 280              		.loc 1 277 0
 281 0012 E16A     		ldr	r1, [r4, #44]
 282              		.loc 1 275 0
 283 0014 20F4F040 		bic	r0, r0, #30720
 284              		.loc 1 277 0
ARM GAS  /tmp/cctwC2JE.s 			page 6


 285 0018 21F4F041 		bic	r1, r1, #30720
 286              		.loc 1 272 0
 287 001c 12F4006F 		tst	r2, #2048
 288              		.loc 1 282 0
 289 0020 1CBF     		itt	ne
 290 0022 40F42050 		orrne	r0, r0, #10240
 291              		.loc 1 284 0
 292 0026 41F42051 		orrne	r1, r1, #10240
 293              		.loc 1 281 0
 294 002a A062     		str	r0, [r4, #40]
 295              		.loc 1 283 0
 296 002c E162     		str	r1, [r4, #44]
 297              		.loc 1 288 0
 298 002e 42F44172 		orr	r2, r2, #772
 299              		.loc 1 287 0
 300 0032 0020     		movs	r0, #0
 301              		.loc 1 290 0
 302 0034 0721     		movs	r1, #7
 303              		.loc 1 287 0
 304 0036 1880     		strh	r0, [r3, #0]	@ movhi
 305              		.loc 1 288 0
 306 0038 1A80     		strh	r2, [r3, #0]	@ movhi
 307              		.loc 1 290 0
 308 003a 9980     		strh	r1, [r3, #4]	@ movhi
 309              		.loc 1 291 0
 310 003c 1A88     		ldrh	r2, [r3, #0]
 311 003e 92B2     		uxth	r2, r2
 312 0040 42F04002 		orr	r2, r2, #64
 313 0044 1A80     		strh	r2, [r3, #0]	@ movhi
 314 0046 10BD     		pop	{r4, pc}
 315              	.LVL17:
 316              	.L30:
 317              		.loc 1 234 0
 318 0048 104B     		ldr	r3, .L33
 319 004a 9842     		cmp	r0, r3
 320 004c 09D0     		beq	.L32
 321              	.LVL18:
 322              	.L26:
 323              		.loc 1 267 0
 324 004e 216A     		ldr	r1, [r4, #32]
 325              		.loc 1 268 0
 326 0050 626A     		ldr	r2, [r4, #36]
 327              		.loc 1 267 0
 328 0052 E369     		ldr	r3, [r4, #28]
 329 0054 0868     		ldr	r0, [r1, #0]
 330              		.loc 1 268 0
 331 0056 1168     		ldr	r1, [r2, #0]
 332              		.loc 1 267 0
 333 0058 03F10C02 		add	r2, r3, #12
 334 005c 8260     		str	r2, [r0, #8]
 335              		.loc 1 268 0
 336 005e 8A60     		str	r2, [r1, #8]
 337 0060 D4E7     		b	.L25
 338              	.LVL19:
 339              	.L32:
 340              	.LBB5:
 341              		.loc 1 236 0
ARM GAS  /tmp/cctwC2JE.s 			page 7


 342 0062 0B4A     		ldr	r2, .L33+4
 343 0064 006A     		ldr	r0, [r0, #32]
 344              	.LVL20:
 345 0066 0A21     		movs	r1, #10
 346 0068 2346     		mov	r3, r4
 347 006a FFF7FEFF 		bl	dmaStreamAllocate
 348              	.LVL21:
 349              		.loc 1 241 0
 350 006e 094A     		ldr	r2, .L33+8
 351 0070 606A     		ldr	r0, [r4, #36]
 352 0072 2346     		mov	r3, r4
 353 0074 0A21     		movs	r1, #10
 354 0076 FFF7FEFF 		bl	dmaStreamAllocate
 355              	.LVL22:
 356              		.loc 1 246 0
 357 007a 4FF46053 		mov	r3, #14336
 358 007e C4F20203 		movt	r3, 16386
 359 0082 1A6C     		ldr	r2, [r3, #64]
 360 0084 42F48042 		orr	r2, r2, #16384
 361 0088 1A64     		str	r2, [r3, #64]
 362 008a E0E7     		b	.L26
 363              	.L34:
 364              		.align	2
 365              	.L33:
 366 008c 00000000 		.word	.LANCHOR1
 367 0090 00000000 		.word	spi_lld_serve_rx_interrupt
 368 0094 00000000 		.word	spi_lld_serve_tx_interrupt
 369              	.LBE5:
 370              		.cfi_endproc
 371              	.LFE121:
 372              		.size	spi_lld_start, .-spi_lld_start
 373 0098 AFF30080 		.section	.text.spi_lld_stop,"ax",%progbits
 373      AFF30080 
 374              		.align	2
 375              		.p2align 4,,15
 376              		.global	spi_lld_stop
 377              		.thumb
 378              		.thumb_func
 379              		.type	spi_lld_stop, %function
 380              	spi_lld_stop:
 381              	.LFB122:
 382              		.loc 1 301 0
 383              		.cfi_startproc
 384              		@ args = 0, pretend = 0, frame = 0
 385              		@ frame_needed = 0, uses_anonymous_args = 0
 386              	.LVL23:
 387              		.loc 1 304 0
 388 0000 0378     		ldrb	r3, [r0, #0]	@ zero_extendqisi2
 389 0002 022B     		cmp	r3, #2
 390              		.loc 1 301 0
 391 0004 10B5     		push	{r4, lr}
 392              	.LCFI3:
 393              		.cfi_def_cfa_offset 8
 394              		.cfi_offset 4, -8
 395              		.cfi_offset 14, -4
 396              		.loc 1 301 0
 397 0006 0446     		mov	r4, r0
ARM GAS  /tmp/cctwC2JE.s 			page 8


 398              		.loc 1 304 0
 399 0008 00D0     		beq	.L39
 400 000a 10BD     		pop	{r4, pc}
 401              	.L39:
 402              		.loc 1 307 0
 403 000c C369     		ldr	r3, [r0, #28]
 404              		.loc 1 309 0
 405 000e 006A     		ldr	r0, [r0, #32]
 406              	.LVL24:
 407              		.loc 1 307 0
 408 0010 0022     		movs	r2, #0
 409 0012 1A80     		strh	r2, [r3, #0]	@ movhi
 410              		.loc 1 308 0
 411 0014 9A80     		strh	r2, [r3, #4]	@ movhi
 412              		.loc 1 309 0
 413 0016 FFF7FEFF 		bl	dmaStreamRelease
 414              	.LVL25:
 415              		.loc 1 310 0
 416 001a 606A     		ldr	r0, [r4, #36]
 417 001c FFF7FEFF 		bl	dmaStreamRelease
 418              	.LVL26:
 419              		.loc 1 317 0
 420 0020 064B     		ldr	r3, .L40
 421 0022 9C42     		cmp	r4, r3
 422              		.loc 1 318 0
 423 0024 01BF     		itttt	eq
 424 0026 4FF46053 		moveq	r3, #14336
 425 002a C4F20203 		movteq	r3, 16386
 426 002e 1A6C     		ldreq	r2, [r3, #64]
 427 0030 22F48042 		biceq	r2, r2, #16384
 428 0034 08BF     		it	eq
 429 0036 1A64     		streq	r2, [r3, #64]
 430 0038 10BD     		pop	{r4, pc}
 431              	.L41:
 432 003a 00BF     		.align	2
 433              	.L40:
 434 003c 00000000 		.word	.LANCHOR1
 435              		.cfi_endproc
 436              	.LFE122:
 437              		.size	spi_lld_stop, .-spi_lld_stop
 438              		.section	.text.spi_lld_select,"ax",%progbits
 439              		.align	2
 440              		.p2align 4,,15
 441              		.global	spi_lld_select
 442              		.thumb
 443              		.thumb_func
 444              		.type	spi_lld_select, %function
 445              	spi_lld_select:
 446              	.LFB123:
 447              		.loc 1 334 0
 448              		.cfi_startproc
 449              		@ args = 0, pretend = 0, frame = 0
 450              		@ frame_needed = 0, uses_anonymous_args = 0
 451              		@ link register save eliminated.
 452              	.LVL27:
 453              		.loc 1 336 0
 454 0000 4368     		ldr	r3, [r0, #4]
ARM GAS  /tmp/cctwC2JE.s 			page 9


 455 0002 1A89     		ldrh	r2, [r3, #8]
 456 0004 5B68     		ldr	r3, [r3, #4]
 457 0006 0121     		movs	r1, #1
 458 0008 01FA02F2 		lsl	r2, r1, r2
 459 000c 92B2     		uxth	r2, r2
 460 000e 5A83     		strh	r2, [r3, #26]	@ movhi
 461 0010 7047     		bx	lr
 462              		.cfi_endproc
 463              	.LFE123:
 464              		.size	spi_lld_select, .-spi_lld_select
 465 0012 00BFAFF3 		.section	.text.spi_lld_unselect,"ax",%progbits
 465      0080AFF3 
 465      0080AFF3 
 465      0080
 466              		.align	2
 467              		.p2align 4,,15
 468              		.global	spi_lld_unselect
 469              		.thumb
 470              		.thumb_func
 471              		.type	spi_lld_unselect, %function
 472              	spi_lld_unselect:
 473              	.LFB124:
 474              		.loc 1 347 0
 475              		.cfi_startproc
 476              		@ args = 0, pretend = 0, frame = 0
 477              		@ frame_needed = 0, uses_anonymous_args = 0
 478              		@ link register save eliminated.
 479              	.LVL28:
 480              		.loc 1 349 0
 481 0000 4368     		ldr	r3, [r0, #4]
 482 0002 1A89     		ldrh	r2, [r3, #8]
 483 0004 5B68     		ldr	r3, [r3, #4]
 484 0006 0121     		movs	r1, #1
 485 0008 01FA02F2 		lsl	r2, r1, r2
 486 000c 92B2     		uxth	r2, r2
 487 000e 1A83     		strh	r2, [r3, #24]	@ movhi
 488 0010 7047     		bx	lr
 489              		.cfi_endproc
 490              	.LFE124:
 491              		.size	spi_lld_unselect, .-spi_lld_unselect
 492 0012 00BFAFF3 		.section	.text.spi_lld_ignore,"ax",%progbits
 492      0080AFF3 
 492      0080AFF3 
 492      0080
 493              		.align	2
 494              		.p2align 4,,15
 495              		.global	spi_lld_ignore
 496              		.thumb
 497              		.thumb_func
 498              		.type	spi_lld_ignore, %function
 499              	spi_lld_ignore:
 500              	.LFB125:
 501              		.loc 1 363 0
 502              		.cfi_startproc
 503              		@ args = 0, pretend = 0, frame = 0
 504              		@ frame_needed = 0, uses_anonymous_args = 0
 505              		@ link register save eliminated.
ARM GAS  /tmp/cctwC2JE.s 			page 10


 506              	.LVL29:
 507              		.loc 1 365 0
 508 0000 026A     		ldr	r2, [r0, #32]
 509              		.loc 1 369 0
 510 0002 436A     		ldr	r3, [r0, #36]
 511              		.loc 1 365 0
 512 0004 1268     		ldr	r2, [r2, #0]
 513              		.loc 1 369 0
 514 0006 1B68     		ldr	r3, [r3, #0]
 515              		.loc 1 363 0
 516 0008 70B4     		push	{r4, r5, r6}
 517              	.LCFI4:
 518              		.cfi_def_cfa_offset 12
 519              		.cfi_offset 4, -12
 520              		.cfi_offset 5, -8
 521              		.cfi_offset 6, -4
 522              		.loc 1 367 0
 523 000a 866A     		ldr	r6, [r0, #40]
 524              		.loc 1 371 0
 525 000c C56A     		ldr	r5, [r0, #44]
 526              		.loc 1 365 0
 527 000e 40F20004 		movw	r4, #:lower16:.LANCHOR2
 528              		.loc 1 369 0
 529 0012 40F20000 		movw	r0, #:lower16:.LANCHOR0
 530              	.LVL30:
 531              		.loc 1 365 0
 532 0016 C0F20004 		movt	r4, #:upper16:.LANCHOR2
 533              		.loc 1 369 0
 534 001a C0F20000 		movt	r0, #:upper16:.LANCHOR0
 535              		.loc 1 365 0
 536 001e D460     		str	r4, [r2, #12]
 537              		.loc 1 366 0
 538 0020 5160     		str	r1, [r2, #4]
 539              		.loc 1 367 0
 540 0022 1660     		str	r6, [r2, #0]
 541              		.loc 1 369 0
 542 0024 D860     		str	r0, [r3, #12]
 543              		.loc 1 370 0
 544 0026 5960     		str	r1, [r3, #4]
 545              		.loc 1 371 0
 546 0028 1D60     		str	r5, [r3, #0]
 547              		.loc 1 373 0
 548 002a 1168     		ldr	r1, [r2, #0]
 549              	.LVL31:
 550 002c 41F00101 		orr	r1, r1, #1
 551 0030 1160     		str	r1, [r2, #0]
 552              		.loc 1 374 0
 553 0032 1A68     		ldr	r2, [r3, #0]
 554              	.LVL32:
 555 0034 42F00102 		orr	r2, r2, #1
 556 0038 1A60     		str	r2, [r3, #0]
 557              		.loc 1 375 0
 558 003a 70BC     		pop	{r4, r5, r6}
 559 003c 7047     		bx	lr
 560              		.cfi_endproc
 561              	.LFE125:
 562              		.size	spi_lld_ignore, .-spi_lld_ignore
ARM GAS  /tmp/cctwC2JE.s 			page 11


 563 003e 00BF     		.section	.text.spi_lld_exchange,"ax",%progbits
 564              		.align	2
 565              		.p2align 4,,15
 566              		.global	spi_lld_exchange
 567              		.thumb
 568              		.thumb_func
 569              		.type	spi_lld_exchange, %function
 570              	spi_lld_exchange:
 571              	.LFB126:
 572              		.loc 1 393 0
 573              		.cfi_startproc
 574              		@ args = 0, pretend = 0, frame = 0
 575              		@ frame_needed = 0, uses_anonymous_args = 0
 576              		@ link register save eliminated.
 577              	.LVL33:
 578 0000 F0B4     		push	{r4, r5, r6, r7}
 579              	.LCFI5:
 580              		.cfi_def_cfa_offset 16
 581              		.cfi_offset 4, -16
 582              		.cfi_offset 5, -12
 583              		.cfi_offset 6, -8
 584              		.cfi_offset 7, -4
 585              		.loc 1 395 0
 586 0002 046A     		ldr	r4, [r0, #32]
 587              		.loc 1 399 0
 588 0004 476A     		ldr	r7, [r0, #36]
 589              		.loc 1 397 0
 590 0006 866A     		ldr	r6, [r0, #40]
 591              		.loc 1 401 0
 592 0008 C56A     		ldr	r5, [r0, #44]
 593              		.loc 1 395 0
 594 000a 2468     		ldr	r4, [r4, #0]
 595              		.loc 1 399 0
 596 000c 3868     		ldr	r0, [r7, #0]
 597              	.LVL34:
 598              		.loc 1 395 0
 599 000e E360     		str	r3, [r4, #12]
 600              		.loc 1 397 0
 601 0010 46F48066 		orr	r6, r6, #1024
 602              		.loc 1 401 0
 603 0014 45F48065 		orr	r5, r5, #1024
 604              		.loc 1 396 0
 605 0018 6160     		str	r1, [r4, #4]
 606              		.loc 1 397 0
 607 001a 2660     		str	r6, [r4, #0]
 608              		.loc 1 399 0
 609 001c C260     		str	r2, [r0, #12]
 610              		.loc 1 400 0
 611 001e 4160     		str	r1, [r0, #4]
 612              		.loc 1 401 0
 613 0020 0560     		str	r5, [r0, #0]
 614              		.loc 1 403 0
 615 0022 2368     		ldr	r3, [r4, #0]
 616              	.LVL35:
 617 0024 43F00103 		orr	r3, r3, #1
 618 0028 2360     		str	r3, [r4, #0]
 619              		.loc 1 404 0
ARM GAS  /tmp/cctwC2JE.s 			page 12


 620 002a 0368     		ldr	r3, [r0, #0]
 621 002c 43F00103 		orr	r3, r3, #1
 622 0030 0360     		str	r3, [r0, #0]
 623              		.loc 1 405 0
 624 0032 F0BC     		pop	{r4, r5, r6, r7}
 625 0034 7047     		bx	lr
 626              		.cfi_endproc
 627              	.LFE126:
 628              		.size	spi_lld_exchange, .-spi_lld_exchange
 629 0036 00BFAFF3 		.section	.text.spi_lld_send,"ax",%progbits
 629      0080AFF3 
 629      0080
 630              		.align	2
 631              		.p2align 4,,15
 632              		.global	spi_lld_send
 633              		.thumb
 634              		.thumb_func
 635              		.type	spi_lld_send, %function
 636              	spi_lld_send:
 637              	.LFB127:
 638              		.loc 1 420 0
 639              		.cfi_startproc
 640              		@ args = 0, pretend = 0, frame = 0
 641              		@ frame_needed = 0, uses_anonymous_args = 0
 642              		@ link register save eliminated.
 643              	.LVL36:
 644 0000 F0B4     		push	{r4, r5, r6, r7}
 645              	.LCFI6:
 646              		.cfi_def_cfa_offset 16
 647              		.cfi_offset 4, -16
 648              		.cfi_offset 5, -12
 649              		.cfi_offset 6, -8
 650              		.cfi_offset 7, -4
 651              		.loc 1 422 0
 652 0002 036A     		ldr	r3, [r0, #32]
 653              		.loc 1 426 0
 654 0004 476A     		ldr	r7, [r0, #36]
 655              		.loc 1 428 0
 656 0006 C66A     		ldr	r6, [r0, #44]
 657              		.loc 1 422 0
 658 0008 1C68     		ldr	r4, [r3, #0]
 659              		.loc 1 424 0
 660 000a 806A     		ldr	r0, [r0, #40]
 661              	.LVL37:
 662              		.loc 1 426 0
 663 000c 3B68     		ldr	r3, [r7, #0]
 664              		.loc 1 422 0
 665 000e 40F20005 		movw	r5, #:lower16:.LANCHOR2
 666 0012 C0F20005 		movt	r5, #:upper16:.LANCHOR2
 667              		.loc 1 428 0
 668 0016 46F48066 		orr	r6, r6, #1024
 669              		.loc 1 422 0
 670 001a E560     		str	r5, [r4, #12]
 671              		.loc 1 423 0
 672 001c 6160     		str	r1, [r4, #4]
 673              		.loc 1 424 0
 674 001e 2060     		str	r0, [r4, #0]
ARM GAS  /tmp/cctwC2JE.s 			page 13


 675              		.loc 1 426 0
 676 0020 DA60     		str	r2, [r3, #12]
 677              		.loc 1 427 0
 678 0022 5960     		str	r1, [r3, #4]
 679              		.loc 1 428 0
 680 0024 1E60     		str	r6, [r3, #0]
 681              		.loc 1 430 0
 682 0026 2268     		ldr	r2, [r4, #0]
 683              	.LVL38:
 684 0028 42F00102 		orr	r2, r2, #1
 685 002c 2260     		str	r2, [r4, #0]
 686              		.loc 1 431 0
 687 002e 1A68     		ldr	r2, [r3, #0]
 688 0030 42F00102 		orr	r2, r2, #1
 689 0034 1A60     		str	r2, [r3, #0]
 690              		.loc 1 432 0
 691 0036 F0BC     		pop	{r4, r5, r6, r7}
 692 0038 7047     		bx	lr
 693              		.cfi_endproc
 694              	.LFE127:
 695              		.size	spi_lld_send, .-spi_lld_send
 696 003a 00BFAFF3 		.section	.text.spi_lld_receive,"ax",%progbits
 696      0080
 697              		.align	2
 698              		.p2align 4,,15
 699              		.global	spi_lld_receive
 700              		.thumb
 701              		.thumb_func
 702              		.type	spi_lld_receive, %function
 703              	spi_lld_receive:
 704              	.LFB128:
 705              		.loc 1 447 0
 706              		.cfi_startproc
 707              		@ args = 0, pretend = 0, frame = 0
 708              		@ frame_needed = 0, uses_anonymous_args = 0
 709              		@ link register save eliminated.
 710              	.LVL39:
 711 0000 70B4     		push	{r4, r5, r6}
 712              	.LCFI7:
 713              		.cfi_def_cfa_offset 12
 714              		.cfi_offset 4, -12
 715              		.cfi_offset 5, -8
 716              		.cfi_offset 6, -4
 717              		.loc 1 453 0
 718 0002 436A     		ldr	r3, [r0, #36]
 719              		.loc 1 449 0
 720 0004 046A     		ldr	r4, [r0, #32]
 721              		.loc 1 451 0
 722 0006 866A     		ldr	r6, [r0, #40]
 723              		.loc 1 449 0
 724 0008 2468     		ldr	r4, [r4, #0]
 725              		.loc 1 453 0
 726 000a 1B68     		ldr	r3, [r3, #0]
 727              		.loc 1 455 0
 728 000c C06A     		ldr	r0, [r0, #44]
 729              	.LVL40:
 730              		.loc 1 449 0
ARM GAS  /tmp/cctwC2JE.s 			page 14


 731 000e E260     		str	r2, [r4, #12]
 732              		.loc 1 453 0
 733 0010 40F20005 		movw	r5, #:lower16:.LANCHOR0
 734              		.loc 1 451 0
 735 0014 46F48066 		orr	r6, r6, #1024
 736              		.loc 1 453 0
 737 0018 C0F20005 		movt	r5, #:upper16:.LANCHOR0
 738              		.loc 1 450 0
 739 001c 6160     		str	r1, [r4, #4]
 740              		.loc 1 451 0
 741 001e 2660     		str	r6, [r4, #0]
 742              		.loc 1 453 0
 743 0020 DD60     		str	r5, [r3, #12]
 744              		.loc 1 454 0
 745 0022 5960     		str	r1, [r3, #4]
 746              		.loc 1 455 0
 747 0024 1860     		str	r0, [r3, #0]
 748              		.loc 1 457 0
 749 0026 2268     		ldr	r2, [r4, #0]
 750              	.LVL41:
 751 0028 42F00102 		orr	r2, r2, #1
 752 002c 2260     		str	r2, [r4, #0]
 753              		.loc 1 458 0
 754 002e 1A68     		ldr	r2, [r3, #0]
 755 0030 42F00102 		orr	r2, r2, #1
 756 0034 1A60     		str	r2, [r3, #0]
 757              		.loc 1 459 0
 758 0036 70BC     		pop	{r4, r5, r6}
 759 0038 7047     		bx	lr
 760              		.cfi_endproc
 761              	.LFE128:
 762              		.size	spi_lld_receive, .-spi_lld_receive
 763 003a 00BFAFF3 		.section	.text.spi_lld_polled_exchange,"ax",%progbits
 763      0080
 764              		.align	2
 765              		.p2align 4,,15
 766              		.global	spi_lld_polled_exchange
 767              		.thumb
 768              		.thumb_func
 769              		.type	spi_lld_polled_exchange, %function
 770              	spi_lld_polled_exchange:
 771              	.LFB129:
 772              		.loc 1 473 0
 773              		.cfi_startproc
 774              		@ args = 0, pretend = 0, frame = 0
 775              		@ frame_needed = 0, uses_anonymous_args = 0
 776              		@ link register save eliminated.
 777              	.LVL42:
 778              		.loc 1 475 0
 779 0000 C269     		ldr	r2, [r0, #28]
 780 0002 9181     		strh	r1, [r2, #12]	@ movhi
 781              	.L49:
 782              		.loc 1 476 0 discriminator 1
 783 0004 1389     		ldrh	r3, [r2, #8]
 784 0006 DB07     		lsls	r3, r3, #31
 785 0008 FCD5     		bpl	.L49
 786              		.loc 1 478 0
ARM GAS  /tmp/cctwC2JE.s 			page 15


 787 000a 9089     		ldrh	r0, [r2, #12]
 788              	.LVL43:
 789              		.loc 1 479 0
 790 000c 80B2     		uxth	r0, r0
 791 000e 7047     		bx	lr
 792              		.cfi_endproc
 793              	.LFE129:
 794              		.size	spi_lld_polled_exchange, .-spi_lld_polled_exchange
 795              		.global	SPID2
 796              		.section	.bss.dummytx,"aw",%nobits
 797              		.align	1
 798              		.set	.LANCHOR0,. + 0
 799              		.type	dummytx, %object
 800              		.size	dummytx, 2
 801              	dummytx:
 802 0000 0000     		.space	2
 803              		.section	.bss.SPID2,"aw",%nobits
 804              		.align	2
 805              		.set	.LANCHOR1,. + 0
 806              		.type	SPID2, %object
 807              		.size	SPID2, 48
 808              	SPID2:
 809 0000 00000000 		.space	48
 809      00000000 
 809      00000000 
 809      00000000 
 809      00000000 
 810              		.section	.bss.dummyrx,"aw",%nobits
 811              		.align	1
 812              		.set	.LANCHOR2,. + 0
 813              		.type	dummyrx, %object
 814              		.size	dummyrx, 2
 815              	dummyrx:
 816 0000 0000     		.space	2
 817              		.text
 818              	.Letext0:
 819              		.file 2 "/opt/tools_arm/lib/gcc/arm-none-eabi/4.7.3/include/stddef.h"
 820              		.file 3 "/opt/tools_arm/lib/gcc/arm-none-eabi/4.7.3/../../../../arm-none-eabi/include/stdint.h"
 821              		.file 4 "/home/felix/Documents/ChibiOS/os/ports/GCC/ARMCMx/chtypes.h"
 822              		.file 5 "/home/felix/Documents/ChibiOS/os/kernel/include/chlists.h"
 823              		.file 6 "/home/felix/Documents/ChibiOS/os/kernel/include/chthreads.h"
 824              		.file 7 "/home/felix/Documents/ChibiOS/os/ports/GCC/ARMCMx/chcore_v7m.h"
 825              		.file 8 "/home/felix/Documents/ChibiOS/os/kernel/include/chmtx.h"
 826              		.file 9 "/home/felix/Documents/ChibiOS/os/hal/platforms/STM32F4xx/stm32f4xx.h"
 827              		.file 10 "/home/felix/Documents/ChibiOS/os/hal/platforms/STM32F4xx/stm32_dma.h"
 828              		.file 11 "/home/felix/Documents/ChibiOS/os/hal/platforms/STM32/GPIOv2/pal_lld.h"
 829              		.file 12 "/home/felix/Documents/ChibiOS/os/hal/include/spi.h"
 830              		.file 13 "/home/felix/Documents/ChibiOS/os/hal/platforms/STM32/SPIv1/spi_lld.h"
 831              		.file 14 "/home/felix/Documents/ChibiOS/os/ports/common/ARMCMx/CMSIS/include/core_cm4.h"
 832              		.file 15 "/home/felix/Documents/ChibiOS/os/kernel/include/chschd.h"