ARM GAS  /tmp/ccnt30cy.s 			page 1


   1              		.syntax unified
   2              		.cpu cortex-m4
   3              		.fpu softvfp
   4              		.eabi_attribute 20, 1
   5              		.eabi_attribute 21, 1
   6              		.eabi_attribute 23, 3
   7              		.eabi_attribute 24, 1
   8              		.eabi_attribute 25, 1
   9              		.eabi_attribute 26, 1
  10              		.eabi_attribute 30, 2
  11              		.eabi_attribute 34, 1
  12              		.eabi_attribute 18, 4
  13              		.thumb
  14              		.file	"testpools.c"
  15              		.text
  16              	.Ltext0:
  17              		.cfi_sections	.debug_frame
  18              		.section	.text.null_provider,"ax",%progbits
  19              		.align	2
  20              		.p2align 4,,15
  21              		.thumb
  22              		.thumb_func
  23              		.type	null_provider, %function
  24              	null_provider:
  25              	.LFB7:
  26              		.file 1 "/home/felix/Documents/ChibiOS/test/testpools.c"
  27              		.loc 1 60 0
  28              		.cfi_startproc
  29              		@ args = 0, pretend = 0, frame = 0
  30              		@ frame_needed = 0, uses_anonymous_args = 0
  31              		@ link register save eliminated.
  32              	.LVL0:
  33              		.loc 1 64 0
  34 0000 0020     		movs	r0, #0
  35              	.LVL1:
  36 0002 7047     		bx	lr
  37              		.cfi_endproc
  38              	.LFE7:
  39              		.size	null_provider, .-null_provider
  40 0004 AFF30080 		.section	.text.pools1_setup,"ax",%progbits
  40      AFF30080 
  40      AFF30080 
  41              		.align	2
  42              		.p2align 4,,15
  43              		.thumb
  44              		.thumb_func
  45              		.type	pools1_setup, %function
  46              	pools1_setup:
  47              	.LFB8:
  48              		.loc 1 66 0
  49              		.cfi_startproc
  50              		@ args = 0, pretend = 0, frame = 0
  51              		@ frame_needed = 0, uses_anonymous_args = 0
  52              		@ link register save eliminated.
  53              		.loc 1 68 0
  54 0000 40F20000 		movw	r0, #:lower16:.LANCHOR0
  55 0004 C0F20000 		movt	r0, #:upper16:.LANCHOR0
ARM GAS  /tmp/ccnt30cy.s 			page 2


  56 0008 4FF49871 		mov	r1, #304
  57 000c 0022     		movs	r2, #0
  58              		.loc 1 69 0
  59              		.loc 1 68 0
  60 000e FFF7FEBF 		b	chPoolInit
  61              	.LVL2:
  62              		.cfi_endproc
  63              	.LFE8:
  64              		.size	pools1_setup, .-pools1_setup
  65 0012 00BFAFF3 		.section	.text.pools1_execute,"ax",%progbits
  65      0080AFF3 
  65      0080AFF3 
  65      0080
  66              		.align	2
  67              		.p2align 4,,15
  68              		.thumb
  69              		.thumb_func
  70              		.type	pools1_execute, %function
  71              	pools1_execute:
  72              	.LFB9:
  73              		.loc 1 71 0
  74              		.cfi_startproc
  75              		@ args = 0, pretend = 0, frame = 0
  76              		@ frame_needed = 0, uses_anonymous_args = 0
  77              		.loc 1 75 0
  78 0000 2D4B     		ldr	r3, .L16
  79 0002 2E48     		ldr	r0, .L16+4
  80              		.loc 1 71 0
  81 0004 70B5     		push	{r4, r5, r6, lr}
  82              	.LCFI0:
  83              		.cfi_def_cfa_offset 16
  84              		.cfi_offset 4, -16
  85              		.cfi_offset 5, -12
  86              		.cfi_offset 6, -8
  87              		.cfi_offset 14, -4
  88              		.loc 1 75 0
  89 0006 1D68     		ldr	r5, [r3, #0]
  90 0008 0522     		movs	r2, #5
  91 000a 2946     		mov	r1, r5
  92 000c FFF7FEFF 		bl	chPoolLoadArray
  93              	.LVL3:
  94 0010 0524     		movs	r4, #5
  95              	.LVL4:
  96              	.L6:
  97              		.loc 1 79 0
  98 0012 2A48     		ldr	r0, .L16+4
  99 0014 FFF7FEFF 		bl	chPoolAlloc
 100              	.LVL5:
 101 0018 011C     		adds	r1, r0, #0
 102 001a 18BF     		it	ne
 103 001c 0121     		movne	r1, #1
 104 001e 0120     		movs	r0, #1
 105 0020 FFF7FEFF 		bl	_test_assert
 106              	.LVL6:
 107 0024 0028     		cmp	r0, #0
 108 0026 35D1     		bne	.L3
 109              		.loc 1 78 0
ARM GAS  /tmp/ccnt30cy.s 			page 3


 110 0028 013C     		subs	r4, r4, #1
 111 002a F2D1     		bne	.L6
 112              		.loc 1 82 0
 113 002c 2348     		ldr	r0, .L16+4
 114 002e FFF7FEFF 		bl	chPoolAlloc
 115              	.LVL7:
 116 0032 D0F10101 		rsbs	r1, r0, #1
 117 0036 38BF     		it	cc
 118 0038 0021     		movcc	r1, #0
 119 003a 0220     		movs	r0, #2
 120 003c FFF7FEFF 		bl	_test_assert
 121              	.LVL8:
 122 0040 40BB     		cbnz	r0, .L3
 123 0042 1D4C     		ldr	r4, .L16
 124              	.LBB4:
 125              	.LBB5:
 126              		.loc 1 86 0
 127 0044 1D48     		ldr	r0, .L16+4
 128              	.LBE5:
 129              	.LBE4:
 130              		.loc 1 71 0
 131 0046 04F11006 		add	r6, r4, #16
 132              	.LBB8:
 133              	.LBB6:
 134              		.loc 1 86 0
 135 004a 2946     		mov	r1, r5
 136 004c FFF7FEFF 		bl	chPoolFree
 137              	.LVL9:
 138              		.loc 1 85 0
 139 0050 B442     		cmp	r4, r6
 140 0052 07D0     		beq	.L10
 141              	.L14:
 142 0054 54F8045F 		ldr	r5, [r4, #4]!
 143              		.loc 1 86 0
 144 0058 1848     		ldr	r0, .L16+4
 145 005a 2946     		mov	r1, r5
 146 005c FFF7FEFF 		bl	chPoolFree
 147              	.LVL10:
 148              		.loc 1 85 0
 149 0060 B442     		cmp	r4, r6
 150 0062 F7D1     		bne	.L14
 151              	.L10:
 152 0064 0524     		movs	r4, #5
 153              	.L8:
 154              		.loc 1 90 0
 155 0066 1548     		ldr	r0, .L16+4
 156 0068 FFF7FEFF 		bl	chPoolAlloc
 157              	.LVL11:
 158 006c 011C     		adds	r1, r0, #0
 159 006e 18BF     		it	ne
 160 0070 0121     		movne	r1, #1
 161 0072 0320     		movs	r0, #3
 162 0074 FFF7FEFF 		bl	_test_assert
 163              	.LVL12:
 164 0078 60B9     		cbnz	r0, .L3
 165              		.loc 1 89 0
 166 007a 013C     		subs	r4, r4, #1
ARM GAS  /tmp/ccnt30cy.s 			page 4


 167 007c F3D1     		bne	.L8
 168              		.loc 1 93 0
 169 007e 0F48     		ldr	r0, .L16+4
 170 0080 FFF7FEFF 		bl	chPoolAlloc
 171              	.LVL13:
 172 0084 D0F10101 		rsbs	r1, r0, #1
 173 0088 38BF     		it	cc
 174 008a 0021     		movcc	r1, #0
 175 008c 0420     		movs	r0, #4
 176 008e FFF7FEFF 		bl	_test_assert
 177              	.LVL14:
 178 0092 00B1     		cbz	r0, .L15
 179              	.L3:
 180 0094 70BD     		pop	{r4, r5, r6, pc}
 181              	.L15:
 182              		.loc 1 96 0
 183 0096 0A4A     		ldr	r2, .L16+8
 184 0098 0848     		ldr	r0, .L16+4
 185 009a 1021     		movs	r1, #16
 186 009c FFF7FEFF 		bl	chPoolInit
 187              	.LVL15:
 188              		.loc 1 97 0
 189 00a0 0648     		ldr	r0, .L16+4
 190 00a2 FFF7FEFF 		bl	chPoolAlloc
 191              	.LVL16:
 192 00a6 D0F10101 		rsbs	r1, r0, #1
 193 00aa 38BF     		it	cc
 194 00ac 0021     		movcc	r1, #0
 195 00ae 0520     		movs	r0, #5
 196              	.LBE6:
 197              	.LBE8:
 198              		.loc 1 98 0
 199 00b0 BDE87040 		pop	{r4, r5, r6, lr}
 200              	.LBB9:
 201              	.LBB7:
 202              		.loc 1 97 0
 203 00b4 FFF7FEBF 		b	_test_assert
 204              	.LVL17:
 205              	.L17:
 206              		.align	2
 207              	.L16:
 208 00b8 00000000 		.word	wa
 209 00bc 00000000 		.word	.LANCHOR0
 210 00c0 00000000 		.word	null_provider
 211              	.LBE7:
 212              	.LBE9:
 213              		.cfi_endproc
 214              	.LFE9:
 215              		.size	pools1_execute, .-pools1_execute
 216              		.global	patternpools
 217              		.global	testpools1
 218 00c4 AFF30080 		.section	.rodata.str1.4,"aMS",%progbits,1
 218      AFF30080 
 218      AFF30080 
 219              		.align	2
 220              	.LC0:
 221 0000 4D656D6F 		.ascii	"Memory Pools, queue/dequeue\000"
ARM GAS  /tmp/ccnt30cy.s 			page 5


 221      72792050 
 221      6F6F6C73 
 221      2C207175 
 221      6575652F 
 222              		.section	.rodata.patternpools,"a",%progbits
 223              		.align	2
 224              		.type	patternpools, %object
 225              		.size	patternpools, 8
 226              	patternpools:
 227 0000 00000000 		.word	testpools1
 228 0004 00000000 		.word	0
 229              		.section	.data.mp1,"aw",%progbits
 230              		.align	2
 231              		.set	.LANCHOR0,. + 0
 232              		.type	mp1, %object
 233              		.size	mp1, 12
 234              	mp1:
 235 0000 00000000 		.word	0
 236 0004 30010000 		.word	304
 237 0008 00000000 		.word	0
 238              		.section	.rodata.testpools1,"a",%progbits
 239              		.align	2
 240              		.type	testpools1, %object
 241              		.size	testpools1, 16
 242              	testpools1:
 243 0000 00000000 		.word	.LC0
 244 0004 00000000 		.word	pools1_setup
 245 0008 00000000 		.word	0
 246 000c 00000000 		.word	pools1_execute
 247              		.text
 248              	.Letext0:
 249              		.file 2 "/opt/tools_arm/lib/gcc/arm-none-eabi/4.7.3/include/stddef.h"
 250              		.file 3 "/home/felix/Documents/ChibiOS/os/ports/GCC/ARMCMx/chtypes.h"
 251              		.file 4 "/home/felix/Documents/ChibiOS/os/kernel/include/chmemcore.h"
 252              		.file 5 "/home/felix/Documents/ChibiOS/os/kernel/include/chmempools.h"
 253              		.file 6 "/home/felix/Documents/ChibiOS/test/test.h"