ARM GAS  /tmp/ccrPvhwR.s 			page 1


   1              		.syntax unified
   2              		.cpu cortex-m4
   3              		.fpu softvfp
   4              		.eabi_attribute 20, 1
   5              		.eabi_attribute 21, 1
   6              		.eabi_attribute 23, 3
   7              		.eabi_attribute 24, 1
   8              		.eabi_attribute 25, 1
   9              		.eabi_attribute 26, 1
  10              		.eabi_attribute 30, 2
  11              		.eabi_attribute 34, 1
  12              		.eabi_attribute 18, 4
  13              		.thumb
  14              		.file	"testmtx.c"
  15              		.text
  16              	.Ltext0:
  17              		.cfi_sections	.debug_frame
  18              		.section	.text.mtx8_execute,"ax",%progbits
  19              		.align	2
  20              		.p2align 4,,15
  21              		.thumb
  22              		.thumb_func
  23              		.type	mtx8_execute, %function
  24              	mtx8_execute:
  25              	.LFB36:
  26              		.file 1 "/home/felix/Documents/ChibiOS/test/testmtx.c"
  27              		.loc 1 595 0
  28              		.cfi_startproc
  29              		@ args = 0, pretend = 0, frame = 0
  30              		@ frame_needed = 0, uses_anonymous_args = 0
  31 0000 F0B5     		push	{r4, r5, r6, r7, lr}
  32              	.LCFI0:
  33              		.cfi_def_cfa_offset 20
  34              		.cfi_offset 4, -20
  35              		.cfi_offset 5, -16
  36              		.cfi_offset 6, -12
  37              		.cfi_offset 7, -8
  38              		.cfi_offset 14, -4
  39              		.loc 1 597 0
  40 0002 40F20003 		movw	r3, #:lower16:rlist
  41 0006 C0F20003 		movt	r3, #:upper16:rlist
  42              		.loc 1 598 0
  43 000a 40F20005 		movw	r5, #:lower16:wa
  44              		.loc 1 597 0
  45 000e 9B69     		ldr	r3, [r3, #24]
  46              		.loc 1 595 0
  47 0010 83B0     		sub	sp, sp, #12
  48              	.LCFI1:
  49              		.cfi_def_cfa_offset 32
  50              		.loc 1 597 0
  51 0012 9E68     		ldr	r6, [r3, #8]
  52              	.LVL0:
  53              		.loc 1 598 0
  54 0014 C0F20005 		movt	r5, #:upper16:wa
  55 0018 40F20001 		movw	r1, #:lower16:.LC0
  56 001c C0F20001 		movt	r1, #:upper16:.LC0
  57 0020 40F20003 		movw	r3, #:lower16:thread11
ARM GAS  /tmp/ccrPvhwR.s 			page 2


  58 0024 721C     		adds	r2, r6, #1
  59 0026 0091     		str	r1, [sp, #0]
  60 0028 2868     		ldr	r0, [r5, #0]
  61 002a C0F20003 		movt	r3, #:upper16:thread11
  62 002e 4FF49871 		mov	r1, #304
  63 0032 FFF7FEFF 		bl	chThdCreateStatic
  64              	.LVL1:
  65 0036 40F20004 		movw	r4, #:lower16:threads
  66 003a C0F20004 		movt	r4, #:upper16:threads
  67              		.loc 1 599 0
  68 003e 6968     		ldr	r1, [r5, #4]
  69              		.loc 1 598 0
  70 0040 2060     		str	r0, [r4, #0]
  71              		.loc 1 599 0
  72 0042 40F20007 		movw	r7, #:lower16:.LC1
  73 0046 C0F20007 		movt	r7, #:upper16:.LC1
  74 004a 40F20003 		movw	r3, #:lower16:thread10
  75 004e B21C     		adds	r2, r6, #2
  76 0050 0846     		mov	r0, r1
  77 0052 C0F20003 		movt	r3, #:upper16:thread10
  78 0056 0097     		str	r7, [sp, #0]
  79 0058 4FF49871 		mov	r1, #304
  80 005c FFF7FEFF 		bl	chThdCreateStatic
  81              	.LVL2:
  82              		.loc 1 600 0
  83 0060 AD68     		ldr	r5, [r5, #8]
  84              		.loc 1 599 0
  85 0062 6060     		str	r0, [r4, #4]
  86              		.loc 1 600 0
  87 0064 40F20001 		movw	r1, #:lower16:.LC2
  88 0068 C0F20001 		movt	r1, #:upper16:.LC2
  89 006c 40F20003 		movw	r3, #:lower16:thread12
  90 0070 F21C     		adds	r2, r6, #3
  91 0072 C0F20003 		movt	r3, #:upper16:thread12
  92 0076 0091     		str	r1, [sp, #0]
  93 0078 2846     		mov	r0, r5
  94 007a 4FF49871 		mov	r1, #304
  95 007e FFF7FEFF 		bl	chThdCreateStatic
  96              	.LVL3:
  97              		.loc 1 601 0
  98 0082 40F20005 		movw	r5, #:lower16:.LANCHOR0
  99 0086 C0F20005 		movt	r5, #:upper16:.LANCHOR0
 100              		.loc 1 600 0
 101 008a A060     		str	r0, [r4, #8]
 102              		.loc 1 601 0
 103 008c 2846     		mov	r0, r5
 104 008e FFF7FEFF 		bl	chCondSignal
 105              	.LVL4:
 106              		.loc 1 602 0
 107 0092 2846     		mov	r0, r5
 108 0094 FFF7FEFF 		bl	chCondSignal
 109              	.LVL5:
 110              		.loc 1 603 0
 111 0098 FFF7FEFF 		bl	test_wait_threads
 112              	.LVL6:
 113              		.loc 1 604 0
 114 009c 40F20001 		movw	r1, #:lower16:.LC3
ARM GAS  /tmp/ccrPvhwR.s 			page 3


 115 00a0 C0F20001 		movt	r1, #:upper16:.LC3
 116 00a4 0120     		movs	r0, #1
 117              		.loc 1 605 0
 118 00a6 03B0     		add	sp, sp, #12
 119 00a8 BDE8F040 		pop	{r4, r5, r6, r7, lr}
 120              		.loc 1 604 0
 121 00ac FFF7FEBF 		b	_test_assert_sequence
 122              	.LVL7:
 123              		.cfi_endproc
 124              	.LFE36:
 125              		.size	mtx8_execute, .-mtx8_execute
 126              		.section	.text.thread12,"ax",%progbits
 127              		.align	2
 128              		.p2align 4,,15
 129              		.thumb
 130              		.thumb_func
 131              		.type	thread12, %function
 132              	thread12:
 133              	.LFB35:
 134              		.loc 1 587 0
 135              		.cfi_startproc
 136              		@ args = 0, pretend = 0, frame = 0
 137              		@ frame_needed = 0, uses_anonymous_args = 0
 138              	.LVL8:
 139 0000 10B5     		push	{r4, lr}
 140              	.LCFI2:
 141              		.cfi_def_cfa_offset 8
 142              		.cfi_offset 4, -8
 143              		.cfi_offset 14, -4
 144              		.loc 1 587 0
 145 0002 0446     		mov	r4, r0
 146              		.loc 1 589 0
 147 0004 40F20000 		movw	r0, #:lower16:.LANCHOR1
 148              	.LVL9:
 149 0008 C0F20000 		movt	r0, #:upper16:.LANCHOR1
 150 000c FFF7FEFF 		bl	chMtxLock
 151              	.LVL10:
 152              		.loc 1 590 0
 153 0010 2078     		ldrb	r0, [r4, #0]	@ zero_extendqisi2
 154 0012 FFF7FEFF 		bl	test_emit_token
 155              	.LVL11:
 156              		.loc 1 591 0
 157 0016 FFF7FEFF 		bl	chMtxUnlock
 158              	.LVL12:
 159              		.loc 1 593 0
 160 001a 0020     		movs	r0, #0
 161 001c 10BD     		pop	{r4, pc}
 162              		.cfi_endproc
 163              	.LFE35:
 164              		.size	thread12, .-thread12
 165 001e 00BF     		.section	.text.thread1,"ax",%progbits
 166              		.align	2
 167              		.p2align 4,,15
 168              		.thumb
 169              		.thumb_func
 170              		.type	thread1, %function
 171              	thread1:
ARM GAS  /tmp/ccrPvhwR.s 			page 4


 172              	.LFB8:
 173              		.loc 1 89 0
 174              		.cfi_startproc
 175              		@ args = 0, pretend = 0, frame = 0
 176              		@ frame_needed = 0, uses_anonymous_args = 0
 177              	.LVL13:
 178 0000 10B5     		push	{r4, lr}
 179              	.LCFI3:
 180              		.cfi_def_cfa_offset 8
 181              		.cfi_offset 4, -8
 182              		.cfi_offset 14, -4
 183              		.loc 1 89 0
 184 0002 0446     		mov	r4, r0
 185              		.loc 1 91 0
 186 0004 40F20000 		movw	r0, #:lower16:.LANCHOR2
 187              	.LVL14:
 188 0008 C0F20000 		movt	r0, #:upper16:.LANCHOR2
 189 000c FFF7FEFF 		bl	chMtxLock
 190              	.LVL15:
 191              		.loc 1 92 0
 192 0010 2078     		ldrb	r0, [r4, #0]	@ zero_extendqisi2
 193 0012 FFF7FEFF 		bl	test_emit_token
 194              	.LVL16:
 195              		.loc 1 93 0
 196 0016 FFF7FEFF 		bl	chMtxUnlock
 197              	.LVL17:
 198              		.loc 1 95 0
 199 001a 0020     		movs	r0, #0
 200 001c 10BD     		pop	{r4, pc}
 201              		.cfi_endproc
 202              	.LFE8:
 203              		.size	thread1, .-thread1
 204 001e 00BF     		.section	.text.thread10,"ax",%progbits
 205              		.align	2
 206              		.p2align 4,,15
 207              		.thumb
 208              		.thumb_func
 209              		.type	thread10, %function
 210              	thread10:
 211              	.LFB29:
 212              		.loc 1 484 0
 213              		.cfi_startproc
 214              		@ args = 0, pretend = 0, frame = 0
 215              		@ frame_needed = 0, uses_anonymous_args = 0
 216              	.LVL18:
 217              		.loc 1 486 0
 218 0000 40F20003 		movw	r3, #:lower16:.LANCHOR2
 219              		.loc 1 484 0
 220 0004 10B5     		push	{r4, lr}
 221              	.LCFI4:
 222              		.cfi_def_cfa_offset 8
 223              		.cfi_offset 4, -8
 224              		.cfi_offset 14, -4
 225              		.loc 1 484 0
 226 0006 0446     		mov	r4, r0
 227              		.loc 1 486 0
 228 0008 1846     		mov	r0, r3
ARM GAS  /tmp/ccrPvhwR.s 			page 5


 229              	.LVL19:
 230 000a C0F20000 		movt	r0, #:upper16:.LANCHOR2
 231 000e FFF7FEFF 		bl	chMtxLock
 232              	.LVL20:
 233              		.loc 1 487 0
 234 0012 40F20000 		movw	r0, #:lower16:.LANCHOR0
 235 0016 C0F20000 		movt	r0, #:upper16:.LANCHOR0
 236 001a FFF7FEFF 		bl	chCondWait
 237              	.LVL21:
 238              		.loc 1 488 0
 239 001e 2078     		ldrb	r0, [r4, #0]	@ zero_extendqisi2
 240 0020 FFF7FEFF 		bl	test_emit_token
 241              	.LVL22:
 242              		.loc 1 489 0
 243 0024 FFF7FEFF 		bl	chMtxUnlock
 244              	.LVL23:
 245              		.loc 1 491 0
 246 0028 0020     		movs	r0, #0
 247 002a 10BD     		pop	{r4, pc}
 248              		.cfi_endproc
 249              	.LFE29:
 250              		.size	thread10, .-thread10
 251 002c AFF30080 		.section	.text.thread11,"ax",%progbits
 252              		.align	2
 253              		.p2align 4,,15
 254              		.thumb
 255              		.thumb_func
 256              		.type	thread11, %function
 257              	thread11:
 258              	.LFB34:
 259              		.loc 1 572 0
 260              		.cfi_startproc
 261              		@ args = 0, pretend = 0, frame = 0
 262              		@ frame_needed = 0, uses_anonymous_args = 0
 263              	.LVL24:
 264              		.loc 1 574 0
 265 0000 40F20003 		movw	r3, #:lower16:.LANCHOR1
 266              		.loc 1 572 0
 267 0004 10B5     		push	{r4, lr}
 268              	.LCFI5:
 269              		.cfi_def_cfa_offset 8
 270              		.cfi_offset 4, -8
 271              		.cfi_offset 14, -4
 272              		.loc 1 572 0
 273 0006 0446     		mov	r4, r0
 274              		.loc 1 574 0
 275 0008 1846     		mov	r0, r3
 276              	.LVL25:
 277 000a C0F20000 		movt	r0, #:upper16:.LANCHOR1
 278 000e FFF7FEFF 		bl	chMtxLock
 279              	.LVL26:
 280              		.loc 1 575 0
 281 0012 40F20000 		movw	r0, #:lower16:.LANCHOR2
 282 0016 C0F20000 		movt	r0, #:upper16:.LANCHOR2
 283 001a FFF7FEFF 		bl	chMtxLock
 284              	.LVL27:
 285              		.loc 1 577 0
ARM GAS  /tmp/ccrPvhwR.s 			page 6


 286 001e 40F20000 		movw	r0, #:lower16:.LANCHOR0
 287 0022 4FF0FF31 		mov	r1, #-1
 288 0026 C0F20000 		movt	r0, #:upper16:.LANCHOR0
 289 002a FFF7FEFF 		bl	chCondWaitTimeout
 290              	.LVL28:
 291              		.loc 1 581 0
 292 002e 2078     		ldrb	r0, [r4, #0]	@ zero_extendqisi2
 293 0030 FFF7FEFF 		bl	test_emit_token
 294              	.LVL29:
 295              		.loc 1 582 0
 296 0034 FFF7FEFF 		bl	chMtxUnlock
 297              	.LVL30:
 298              		.loc 1 583 0
 299 0038 FFF7FEFF 		bl	chMtxUnlock
 300              	.LVL31:
 301              		.loc 1 585 0
 302 003c 0020     		movs	r0, #0
 303 003e 10BD     		pop	{r4, pc}
 304              		.cfi_endproc
 305              	.LFE34:
 306              		.size	thread11, .-thread11
 307              		.section	.text.mtx8_setup,"ax",%progbits
 308              		.align	2
 309              		.p2align 4,,15
 310              		.thumb
 311              		.thumb_func
 312              		.type	mtx8_setup, %function
 313              	mtx8_setup:
 314              	.LFB33:
 315              		.loc 1 565 0
 316              		.cfi_startproc
 317              		@ args = 0, pretend = 0, frame = 0
 318              		@ frame_needed = 0, uses_anonymous_args = 0
 319              		.loc 1 567 0
 320 0000 40F20000 		movw	r0, #:lower16:.LANCHOR0
 321              		.loc 1 565 0
 322 0004 08B5     		push	{r3, lr}
 323              	.LCFI6:
 324              		.cfi_def_cfa_offset 8
 325              		.cfi_offset 3, -8
 326              		.cfi_offset 14, -4
 327              		.loc 1 567 0
 328 0006 C0F20000 		movt	r0, #:upper16:.LANCHOR0
 329 000a FFF7FEFF 		bl	chCondInit
 330              	.LVL32:
 331              		.loc 1 568 0
 332 000e 40F20000 		movw	r0, #:lower16:.LANCHOR2
 333 0012 C0F20000 		movt	r0, #:upper16:.LANCHOR2
 334 0016 FFF7FEFF 		bl	chMtxInit
 335              	.LVL33:
 336              		.loc 1 569 0
 337 001a 40F20000 		movw	r0, #:lower16:.LANCHOR1
 338 001e C0F20000 		movt	r0, #:upper16:.LANCHOR1
 339              		.loc 1 570 0
 340 0022 BDE80840 		pop	{r3, lr}
 341              		.loc 1 569 0
 342 0026 FFF7FEBF 		b	chMtxInit
ARM GAS  /tmp/ccrPvhwR.s 			page 7


 343              	.LVL34:
 344              		.cfi_endproc
 345              	.LFE33:
 346              		.size	mtx8_setup, .-mtx8_setup
 347 002a 00BFAFF3 		.section	.text.mtx7_setup,"ax",%progbits
 347      0080
 348              		.align	2
 349              		.p2align 4,,15
 350              		.thumb
 351              		.thumb_func
 352              		.type	mtx7_setup, %function
 353              	mtx7_setup:
 354              	.LFB31:
 355              		.loc 1 530 0
 356              		.cfi_startproc
 357              		@ args = 0, pretend = 0, frame = 0
 358              		@ frame_needed = 0, uses_anonymous_args = 0
 359 0000 08B5     		push	{r3, lr}
 360              	.LCFI7:
 361              		.cfi_def_cfa_offset 8
 362              		.cfi_offset 3, -8
 363              		.cfi_offset 14, -4
 364              		.loc 1 532 0
 365 0002 40F20000 		movw	r0, #:lower16:.LANCHOR0
 366 0006 C0F20000 		movt	r0, #:upper16:.LANCHOR0
 367 000a FFF7FEFF 		bl	chCondInit
 368              	.LVL35:
 369              		.loc 1 533 0
 370 000e 40F20000 		movw	r0, #:lower16:.LANCHOR2
 371 0012 C0F20000 		movt	r0, #:upper16:.LANCHOR2
 372              		.loc 1 534 0
 373 0016 BDE80840 		pop	{r3, lr}
 374              		.loc 1 533 0
 375 001a FFF7FEBF 		b	chMtxInit
 376              	.LVL36:
 377              		.cfi_endproc
 378              	.LFE31:
 379              		.size	mtx7_setup, .-mtx7_setup
 380 001e 00BF     		.section	.text.mtx6_setup,"ax",%progbits
 381              		.align	2
 382              		.p2align 4,,15
 383              		.thumb
 384              		.thumb_func
 385              		.type	mtx6_setup, %function
 386              	mtx6_setup:
 387              	.LFB28:
 388              		.loc 1 478 0
 389              		.cfi_startproc
 390              		@ args = 0, pretend = 0, frame = 0
 391              		@ frame_needed = 0, uses_anonymous_args = 0
 392 0000 08B5     		push	{r3, lr}
 393              	.LCFI8:
 394              		.cfi_def_cfa_offset 8
 395              		.cfi_offset 3, -8
 396              		.cfi_offset 14, -4
 397              		.loc 1 480 0
 398 0002 40F20000 		movw	r0, #:lower16:.LANCHOR0
ARM GAS  /tmp/ccrPvhwR.s 			page 8


 399 0006 C0F20000 		movt	r0, #:upper16:.LANCHOR0
 400 000a FFF7FEFF 		bl	chCondInit
 401              	.LVL37:
 402              		.loc 1 481 0
 403 000e 40F20000 		movw	r0, #:lower16:.LANCHOR2
 404 0012 C0F20000 		movt	r0, #:upper16:.LANCHOR2
 405              		.loc 1 482 0
 406 0016 BDE80840 		pop	{r3, lr}
 407              		.loc 1 481 0
 408 001a FFF7FEBF 		b	chMtxInit
 409              	.LVL38:
 410              		.cfi_endproc
 411              	.LFE28:
 412              		.size	mtx6_setup, .-mtx6_setup
 413 001e 00BF     		.section	.text.mtx5_setup,"ax",%progbits
 414              		.align	2
 415              		.p2align 4,,15
 416              		.thumb
 417              		.thumb_func
 418              		.type	mtx5_setup, %function
 419              	mtx5_setup:
 420              	.LFB26:
 421              		.loc 1 428 0
 422              		.cfi_startproc
 423              		@ args = 0, pretend = 0, frame = 0
 424              		@ frame_needed = 0, uses_anonymous_args = 0
 425              		@ link register save eliminated.
 426              		.loc 1 430 0
 427 0000 40F20000 		movw	r0, #:lower16:.LANCHOR2
 428 0004 C0F20000 		movt	r0, #:upper16:.LANCHOR2
 429              		.loc 1 431 0
 430              		.loc 1 430 0
 431 0008 FFF7FEBF 		b	chMtxInit
 432              	.LVL39:
 433              		.cfi_endproc
 434              	.LFE26:
 435              		.size	mtx5_setup, .-mtx5_setup
 436 000c AFF30080 		.section	.text.mtx4_setup,"ax",%progbits
 437              		.align	2
 438              		.p2align 4,,15
 439              		.thumb
 440              		.thumb_func
 441              		.type	mtx4_setup, %function
 442              	mtx4_setup:
 443              	.LFB22:
 444              		.loc 1 341 0
 445              		.cfi_startproc
 446              		@ args = 0, pretend = 0, frame = 0
 447              		@ frame_needed = 0, uses_anonymous_args = 0
 448 0000 08B5     		push	{r3, lr}
 449              	.LCFI9:
 450              		.cfi_def_cfa_offset 8
 451              		.cfi_offset 3, -8
 452              		.cfi_offset 14, -4
 453              		.loc 1 343 0
 454 0002 40F20000 		movw	r0, #:lower16:.LANCHOR2
 455 0006 C0F20000 		movt	r0, #:upper16:.LANCHOR2
ARM GAS  /tmp/ccrPvhwR.s 			page 9


 456 000a FFF7FEFF 		bl	chMtxInit
 457              	.LVL40:
 458              		.loc 1 344 0
 459 000e 40F20000 		movw	r0, #:lower16:.LANCHOR1
 460 0012 C0F20000 		movt	r0, #:upper16:.LANCHOR1
 461              		.loc 1 345 0
 462 0016 BDE80840 		pop	{r3, lr}
 463              		.loc 1 344 0
 464 001a FFF7FEBF 		b	chMtxInit
 465              	.LVL41:
 466              		.cfi_endproc
 467              	.LFE22:
 468              		.size	mtx4_setup, .-mtx4_setup
 469 001e 00BF     		.section	.text.mtx3_setup,"ax",%progbits
 470              		.align	2
 471              		.p2align 4,,15
 472              		.thumb
 473              		.thumb_func
 474              		.type	mtx3_setup, %function
 475              	mtx3_setup:
 476              	.LFB15:
 477              		.loc 1 241 0
 478              		.cfi_startproc
 479              		@ args = 0, pretend = 0, frame = 0
 480              		@ frame_needed = 0, uses_anonymous_args = 0
 481 0000 08B5     		push	{r3, lr}
 482              	.LCFI10:
 483              		.cfi_def_cfa_offset 8
 484              		.cfi_offset 3, -8
 485              		.cfi_offset 14, -4
 486              		.loc 1 243 0
 487 0002 40F20000 		movw	r0, #:lower16:.LANCHOR2
 488 0006 C0F20000 		movt	r0, #:upper16:.LANCHOR2
 489 000a FFF7FEFF 		bl	chMtxInit
 490              	.LVL42:
 491              		.loc 1 244 0
 492 000e 40F20000 		movw	r0, #:lower16:.LANCHOR1
 493 0012 C0F20000 		movt	r0, #:upper16:.LANCHOR1
 494              		.loc 1 245 0
 495 0016 BDE80840 		pop	{r3, lr}
 496              		.loc 1 244 0
 497 001a FFF7FEBF 		b	chMtxInit
 498              	.LVL43:
 499              		.cfi_endproc
 500              	.LFE15:
 501              		.size	mtx3_setup, .-mtx3_setup
 502 001e 00BF     		.section	.text.mtx2_setup,"ax",%progbits
 503              		.align	2
 504              		.p2align 4,,15
 505              		.thumb
 506              		.thumb_func
 507              		.type	mtx2_setup, %function
 508              	mtx2_setup:
 509              	.LFB10:
 510              		.loc 1 151 0
 511              		.cfi_startproc
 512              		@ args = 0, pretend = 0, frame = 0
ARM GAS  /tmp/ccrPvhwR.s 			page 10


 513              		@ frame_needed = 0, uses_anonymous_args = 0
 514              		@ link register save eliminated.
 515              		.loc 1 153 0
 516 0000 40F20000 		movw	r0, #:lower16:.LANCHOR2
 517 0004 C0F20000 		movt	r0, #:upper16:.LANCHOR2
 518              		.loc 1 154 0
 519              		.loc 1 153 0
 520 0008 FFF7FEBF 		b	chMtxInit
 521              	.LVL44:
 522              		.cfi_endproc
 523              	.LFE10:
 524              		.size	mtx2_setup, .-mtx2_setup
 525 000c AFF30080 		.section	.text.mtx1_setup,"ax",%progbits
 526              		.align	2
 527              		.p2align 4,,15
 528              		.thumb
 529              		.thumb_func
 530              		.type	mtx1_setup, %function
 531              	mtx1_setup:
 532              	.LFB7:
 533              		.loc 1 84 0
 534              		.cfi_startproc
 535              		@ args = 0, pretend = 0, frame = 0
 536              		@ frame_needed = 0, uses_anonymous_args = 0
 537              		@ link register save eliminated.
 538              		.loc 1 86 0
 539 0000 40F20000 		movw	r0, #:lower16:.LANCHOR2
 540 0004 C0F20000 		movt	r0, #:upper16:.LANCHOR2
 541              		.loc 1 87 0
 542              		.loc 1 86 0
 543 0008 FFF7FEBF 		b	chMtxInit
 544              	.LVL45:
 545              		.cfi_endproc
 546              	.LFE7:
 547              		.size	mtx1_setup, .-mtx1_setup
 548 000c AFF30080 		.section	.text.mtx7_execute,"ax",%progbits
 549              		.align	2
 550              		.p2align 4,,15
 551              		.thumb
 552              		.thumb_func
 553              		.type	mtx7_execute, %function
 554              	mtx7_execute:
 555              	.LFB32:
 556              		.loc 1 536 0
 557              		.cfi_startproc
 558              		@ args = 0, pretend = 0, frame = 0
 559              		@ frame_needed = 0, uses_anonymous_args = 0
 560 0000 F0B5     		push	{r4, r5, r6, r7, lr}
 561              	.LCFI11:
 562              		.cfi_def_cfa_offset 20
 563              		.cfi_offset 4, -20
 564              		.cfi_offset 5, -16
 565              		.cfi_offset 6, -12
 566              		.cfi_offset 7, -8
 567              		.cfi_offset 14, -4
 568              		.loc 1 538 0
 569 0002 40F20003 		movw	r3, #:lower16:rlist
ARM GAS  /tmp/ccrPvhwR.s 			page 11


 570 0006 C0F20003 		movt	r3, #:upper16:rlist
 571              		.loc 1 539 0
 572 000a 40F20006 		movw	r6, #:lower16:wa
 573              		.loc 1 538 0
 574 000e 9B69     		ldr	r3, [r3, #24]
 575              		.loc 1 536 0
 576 0010 83B0     		sub	sp, sp, #12
 577              	.LCFI12:
 578              		.cfi_def_cfa_offset 32
 579              		.loc 1 538 0
 580 0012 9F68     		ldr	r7, [r3, #8]
 581              	.LVL46:
 582              		.loc 1 539 0
 583 0014 C0F20006 		movt	r6, #:upper16:wa
 584 0018 40F20005 		movw	r5, #:lower16:thread10
 585 001c 40F20001 		movw	r1, #:lower16:.LC4
 586 0020 C0F20005 		movt	r5, #:upper16:thread10
 587 0024 C0F20001 		movt	r1, #:upper16:.LC4
 588 0028 7A1C     		adds	r2, r7, #1
 589 002a 2B46     		mov	r3, r5
 590 002c 0091     		str	r1, [sp, #0]
 591 002e 3068     		ldr	r0, [r6, #0]
 592 0030 4FF49871 		mov	r1, #304
 593 0034 FFF7FEFF 		bl	chThdCreateStatic
 594              	.LVL47:
 595 0038 40F20004 		movw	r4, #:lower16:threads
 596 003c C0F20004 		movt	r4, #:upper16:threads
 597              		.loc 1 540 0
 598 0040 7368     		ldr	r3, [r6, #4]
 599              		.loc 1 539 0
 600 0042 2060     		str	r0, [r4, #0]
 601              		.loc 1 540 0
 602 0044 40F20001 		movw	r1, #:lower16:.LC5
 603 0048 C0F20001 		movt	r1, #:upper16:.LC5
 604 004c BA1C     		adds	r2, r7, #2
 605 004e 0091     		str	r1, [sp, #0]
 606 0050 1846     		mov	r0, r3
 607 0052 4FF49871 		mov	r1, #304
 608 0056 2B46     		mov	r3, r5
 609 0058 FFF7FEFF 		bl	chThdCreateStatic
 610              	.LVL48:
 611              		.loc 1 541 0
 612 005c B368     		ldr	r3, [r6, #8]
 613              		.loc 1 540 0
 614 005e 6060     		str	r0, [r4, #4]
 615              		.loc 1 541 0
 616 0060 40F20001 		movw	r1, #:lower16:.LC1
 617 0064 C0F20001 		movt	r1, #:upper16:.LC1
 618 0068 FA1C     		adds	r2, r7, #3
 619 006a 0091     		str	r1, [sp, #0]
 620 006c 1846     		mov	r0, r3
 621 006e 4FF49871 		mov	r1, #304
 622 0072 2B46     		mov	r3, r5
 623 0074 FFF7FEFF 		bl	chThdCreateStatic
 624              	.LVL49:
 625              		.loc 1 542 0
 626 0078 F368     		ldr	r3, [r6, #12]
ARM GAS  /tmp/ccrPvhwR.s 			page 12


 627              		.loc 1 541 0
 628 007a A060     		str	r0, [r4, #8]
 629              		.loc 1 542 0
 630 007c 40F20001 		movw	r1, #:lower16:.LC2
 631 0080 C0F20001 		movt	r1, #:upper16:.LC2
 632 0084 3A1D     		adds	r2, r7, #4
 633 0086 0091     		str	r1, [sp, #0]
 634 0088 1846     		mov	r0, r3
 635 008a 4FF49871 		mov	r1, #304
 636 008e 2B46     		mov	r3, r5
 637 0090 FFF7FEFF 		bl	chThdCreateStatic
 638              	.LVL50:
 639              		.loc 1 543 0
 640 0094 3369     		ldr	r3, [r6, #16]
 641              		.loc 1 542 0
 642 0096 E060     		str	r0, [r4, #12]
 643              		.loc 1 543 0
 644 0098 40F20001 		movw	r1, #:lower16:.LC0
 645 009c C0F20001 		movt	r1, #:upper16:.LC0
 646 00a0 7A1D     		adds	r2, r7, #5
 647 00a2 0091     		str	r1, [sp, #0]
 648 00a4 1846     		mov	r0, r3
 649 00a6 4FF49871 		mov	r1, #304
 650 00aa 2B46     		mov	r3, r5
 651 00ac FFF7FEFF 		bl	chThdCreateStatic
 652              	.LVL51:
 653              		.loc 1 544 0
 654 00b0 40F20003 		movw	r3, #:lower16:.LANCHOR0
 655              		.loc 1 543 0
 656 00b4 2061     		str	r0, [r4, #16]
 657              		.loc 1 544 0
 658 00b6 1846     		mov	r0, r3
 659 00b8 C0F20000 		movt	r0, #:upper16:.LANCHOR0
 660 00bc FFF7FEFF 		bl	chCondBroadcast
 661              	.LVL52:
 662              		.loc 1 545 0
 663 00c0 FFF7FEFF 		bl	test_wait_threads
 664              	.LVL53:
 665              		.loc 1 546 0
 666 00c4 40F20001 		movw	r1, #:lower16:.LC6
 667 00c8 C0F20001 		movt	r1, #:upper16:.LC6
 668 00cc 0120     		movs	r0, #1
 669              		.loc 1 547 0
 670 00ce 03B0     		add	sp, sp, #12
 671 00d0 BDE8F040 		pop	{r4, r5, r6, r7, lr}
 672              		.loc 1 546 0
 673 00d4 FFF7FEBF 		b	_test_assert_sequence
 674              	.LVL54:
 675              		.cfi_endproc
 676              	.LFE32:
 677              		.size	mtx7_execute, .-mtx7_execute
 678 00d8 AFF30080 		.section	.text.mtx6_execute,"ax",%progbits
 678      AFF30080 
 679              		.align	2
 680              		.p2align 4,,15
 681              		.thumb
 682              		.thumb_func
ARM GAS  /tmp/ccrPvhwR.s 			page 13


 683              		.type	mtx6_execute, %function
 684              	mtx6_execute:
 685              	.LFB30:
 686              		.loc 1 493 0
 687              		.cfi_startproc
 688              		@ args = 0, pretend = 0, frame = 0
 689              		@ frame_needed = 0, uses_anonymous_args = 0
 690 0000 F0B5     		push	{r4, r5, r6, r7, lr}
 691              	.LCFI13:
 692              		.cfi_def_cfa_offset 20
 693              		.cfi_offset 4, -20
 694              		.cfi_offset 5, -16
 695              		.cfi_offset 6, -12
 696              		.cfi_offset 7, -8
 697              		.cfi_offset 14, -4
 698              		.loc 1 495 0
 699 0002 40F20003 		movw	r3, #:lower16:rlist
 700 0006 C0F20003 		movt	r3, #:upper16:rlist
 701              		.loc 1 496 0
 702 000a 40F20006 		movw	r6, #:lower16:wa
 703              		.loc 1 495 0
 704 000e 9B69     		ldr	r3, [r3, #24]
 705              		.loc 1 493 0
 706 0010 83B0     		sub	sp, sp, #12
 707              	.LCFI14:
 708              		.cfi_def_cfa_offset 32
 709              		.loc 1 495 0
 710 0012 9F68     		ldr	r7, [r3, #8]
 711              	.LVL55:
 712              		.loc 1 496 0
 713 0014 C0F20006 		movt	r6, #:upper16:wa
 714 0018 40F20005 		movw	r5, #:lower16:thread10
 715 001c 40F20001 		movw	r1, #:lower16:.LC4
 716 0020 C0F20005 		movt	r5, #:upper16:thread10
 717 0024 C0F20001 		movt	r1, #:upper16:.LC4
 718 0028 7A1C     		adds	r2, r7, #1
 719 002a 2B46     		mov	r3, r5
 720 002c 0091     		str	r1, [sp, #0]
 721 002e 3068     		ldr	r0, [r6, #0]
 722 0030 4FF49871 		mov	r1, #304
 723 0034 FFF7FEFF 		bl	chThdCreateStatic
 724              	.LVL56:
 725 0038 40F20004 		movw	r4, #:lower16:threads
 726 003c C0F20004 		movt	r4, #:upper16:threads
 727              		.loc 1 497 0
 728 0040 7368     		ldr	r3, [r6, #4]
 729              		.loc 1 496 0
 730 0042 2060     		str	r0, [r4, #0]
 731              		.loc 1 497 0
 732 0044 40F20001 		movw	r1, #:lower16:.LC5
 733 0048 C0F20001 		movt	r1, #:upper16:.LC5
 734 004c BA1C     		adds	r2, r7, #2
 735 004e 0091     		str	r1, [sp, #0]
 736 0050 1846     		mov	r0, r3
 737 0052 4FF49871 		mov	r1, #304
 738 0056 2B46     		mov	r3, r5
 739 0058 FFF7FEFF 		bl	chThdCreateStatic
ARM GAS  /tmp/ccrPvhwR.s 			page 14


 740              	.LVL57:
 741              		.loc 1 498 0
 742 005c B368     		ldr	r3, [r6, #8]
 743              		.loc 1 497 0
 744 005e 6060     		str	r0, [r4, #4]
 745              		.loc 1 498 0
 746 0060 40F20001 		movw	r1, #:lower16:.LC1
 747 0064 C0F20001 		movt	r1, #:upper16:.LC1
 748 0068 FA1C     		adds	r2, r7, #3
 749 006a 0091     		str	r1, [sp, #0]
 750 006c 1846     		mov	r0, r3
 751 006e 4FF49871 		mov	r1, #304
 752 0072 2B46     		mov	r3, r5
 753 0074 FFF7FEFF 		bl	chThdCreateStatic
 754              	.LVL58:
 755              		.loc 1 499 0
 756 0078 F368     		ldr	r3, [r6, #12]
 757              		.loc 1 498 0
 758 007a A060     		str	r0, [r4, #8]
 759              		.loc 1 499 0
 760 007c 40F20001 		movw	r1, #:lower16:.LC2
 761 0080 C0F20001 		movt	r1, #:upper16:.LC2
 762 0084 3A1D     		adds	r2, r7, #4
 763 0086 0091     		str	r1, [sp, #0]
 764 0088 1846     		mov	r0, r3
 765 008a 4FF49871 		mov	r1, #304
 766 008e 2B46     		mov	r3, r5
 767 0090 FFF7FEFF 		bl	chThdCreateStatic
 768              	.LVL59:
 769              		.loc 1 500 0
 770 0094 3369     		ldr	r3, [r6, #16]
 771              		.loc 1 499 0
 772 0096 E060     		str	r0, [r4, #12]
 773              		.loc 1 500 0
 774 0098 40F20001 		movw	r1, #:lower16:.LC0
 775 009c C0F20001 		movt	r1, #:upper16:.LC0
 776 00a0 0091     		str	r1, [sp, #0]
 777 00a2 7A1D     		adds	r2, r7, #5
 778 00a4 1846     		mov	r0, r3
 779 00a6 4FF49871 		mov	r1, #304
 780 00aa 2B46     		mov	r3, r5
 781 00ac FFF7FEFF 		bl	chThdCreateStatic
 782              	.LVL60:
 783              	.LBB2:
 784              		.loc 1 501 0
 785 00b0 2023     		movs	r3, #32
 786              	.LVL61:
 787              	.LBE2:
 788              		.loc 1 500 0
 789 00b2 2061     		str	r0, [r4, #16]
 790              	.LBB3:
 791              		.loc 1 501 0
 792              	@ 501 "/home/felix/Documents/ChibiOS/test/testmtx.c" 1
 793 00b4 83F31188 		msr     BASEPRI, r3
 794              	@ 0 "" 2
 795              	.LVL62:
 796              		.thumb
ARM GAS  /tmp/ccrPvhwR.s 			page 15


 797              	.LBE3:
 798              		.loc 1 502 0
 799 00b8 40F20004 		movw	r4, #:lower16:.LANCHOR0
 800 00bc C0F20004 		movt	r4, #:upper16:.LANCHOR0
 801 00c0 2046     		mov	r0, r4
 802 00c2 FFF7FEFF 		bl	chCondSignalI
 803              	.LVL63:
 804              		.loc 1 503 0
 805 00c6 2046     		mov	r0, r4
 806 00c8 FFF7FEFF 		bl	chCondSignalI
 807              	.LVL64:
 808              		.loc 1 504 0
 809 00cc 2046     		mov	r0, r4
 810 00ce FFF7FEFF 		bl	chCondSignalI
 811              	.LVL65:
 812              		.loc 1 505 0
 813 00d2 2046     		mov	r0, r4
 814 00d4 FFF7FEFF 		bl	chCondSignalI
 815              	.LVL66:
 816              		.loc 1 506 0
 817 00d8 2046     		mov	r0, r4
 818 00da FFF7FEFF 		bl	chCondSignalI
 819              	.LVL67:
 820              		.loc 1 507 0
 821 00de FFF7FEFF 		bl	chSchRescheduleS
 822              	.LVL68:
 823              	.LBB4:
 824              		.loc 1 508 0
 825 00e2 0023     		movs	r3, #0
 826              	.LVL69:
 827              	@ 508 "/home/felix/Documents/ChibiOS/test/testmtx.c" 1
 828 00e4 83F31188 		msr     BASEPRI, r3
 829              	@ 0 "" 2
 830              	.LVL70:
 831              		.thumb
 832              	.LBE4:
 833              		.loc 1 509 0
 834 00e8 FFF7FEFF 		bl	test_wait_threads
 835              	.LVL71:
 836              		.loc 1 510 0
 837 00ec 40F20001 		movw	r1, #:lower16:.LC6
 838 00f0 C0F20001 		movt	r1, #:upper16:.LC6
 839 00f4 0120     		movs	r0, #1
 840              		.loc 1 511 0
 841 00f6 03B0     		add	sp, sp, #12
 842 00f8 BDE8F040 		pop	{r4, r5, r6, r7, lr}
 843              		.loc 1 510 0
 844 00fc FFF7FEBF 		b	_test_assert_sequence
 845              	.LVL72:
 846              		.cfi_endproc
 847              	.LFE30:
 848              		.size	mtx6_execute, .-mtx6_execute
 849              		.section	.text.mtx1_execute,"ax",%progbits
 850              		.align	2
 851              		.p2align 4,,15
 852              		.thumb
 853              		.thumb_func
ARM GAS  /tmp/ccrPvhwR.s 			page 16


 854              		.type	mtx1_execute, %function
 855              	mtx1_execute:
 856              	.LFB9:
 857              		.loc 1 97 0
 858              		.cfi_startproc
 859              		@ args = 0, pretend = 0, frame = 0
 860              		@ frame_needed = 0, uses_anonymous_args = 0
 861 0000 F0B5     		push	{r4, r5, r6, r7, lr}
 862              	.LCFI15:
 863              		.cfi_def_cfa_offset 20
 864              		.cfi_offset 4, -20
 865              		.cfi_offset 5, -16
 866              		.cfi_offset 6, -12
 867              		.cfi_offset 7, -8
 868              		.cfi_offset 14, -4
 869              		.loc 1 99 0
 870 0002 2A4F     		ldr	r7, .L20
 871              		.loc 1 100 0
 872 0004 2A48     		ldr	r0, .L20+4
 873              		.loc 1 99 0
 874 0006 BB69     		ldr	r3, [r7, #24]
 875              		.loc 1 101 0
 876 0008 2A4E     		ldr	r6, .L20+8
 877              		.loc 1 99 0
 878 000a 9C68     		ldr	r4, [r3, #8]
 879              	.LVL73:
 880              		.loc 1 101 0
 881 000c 2A4D     		ldr	r5, .L20+12
 882              		.loc 1 97 0
 883 000e 83B0     		sub	sp, sp, #12
 884              	.LCFI16:
 885              		.cfi_def_cfa_offset 32
 886              		.loc 1 100 0
 887 0010 FFF7FEFF 		bl	chMtxLock
 888              	.LVL74:
 889              		.loc 1 101 0
 890 0014 294A     		ldr	r2, .L20+16
 891 0016 2A4B     		ldr	r3, .L20+20
 892 0018 0092     		str	r2, [sp, #0]
 893 001a 4FF49871 		mov	r1, #304
 894 001e 621C     		adds	r2, r4, #1
 895 0020 3068     		ldr	r0, [r6, #0]
 896 0022 FFF7FEFF 		bl	chThdCreateStatic
 897              	.LVL75:
 898              		.loc 1 102 0
 899 0026 7368     		ldr	r3, [r6, #4]
 900 0028 2649     		ldr	r1, .L20+24
 901              		.loc 1 101 0
 902 002a 2860     		str	r0, [r5, #0]
 903              		.loc 1 102 0
 904 002c A21C     		adds	r2, r4, #2
 905 002e 1846     		mov	r0, r3
 906 0030 0091     		str	r1, [sp, #0]
 907 0032 234B     		ldr	r3, .L20+20
 908 0034 4FF49871 		mov	r1, #304
 909 0038 FFF7FEFF 		bl	chThdCreateStatic
 910              	.LVL76:
ARM GAS  /tmp/ccrPvhwR.s 			page 17


 911              		.loc 1 103 0
 912 003c B368     		ldr	r3, [r6, #8]
 913 003e 2249     		ldr	r1, .L20+28
 914              		.loc 1 102 0
 915 0040 6860     		str	r0, [r5, #4]
 916              		.loc 1 103 0
 917 0042 E21C     		adds	r2, r4, #3
 918 0044 1846     		mov	r0, r3
 919 0046 0091     		str	r1, [sp, #0]
 920 0048 1D4B     		ldr	r3, .L20+20
 921 004a 4FF49871 		mov	r1, #304
 922 004e FFF7FEFF 		bl	chThdCreateStatic
 923              	.LVL77:
 924              		.loc 1 104 0
 925 0052 F368     		ldr	r3, [r6, #12]
 926 0054 1D49     		ldr	r1, .L20+32
 927              		.loc 1 103 0
 928 0056 A860     		str	r0, [r5, #8]
 929              		.loc 1 104 0
 930 0058 221D     		adds	r2, r4, #4
 931 005a 1846     		mov	r0, r3
 932 005c 0091     		str	r1, [sp, #0]
 933 005e 184B     		ldr	r3, .L20+20
 934 0060 4FF49871 		mov	r1, #304
 935 0064 FFF7FEFF 		bl	chThdCreateStatic
 936              	.LVL78:
 937              		.loc 1 105 0
 938 0068 3369     		ldr	r3, [r6, #16]
 939 006a 1949     		ldr	r1, .L20+36
 940              		.loc 1 104 0
 941 006c E860     		str	r0, [r5, #12]
 942              		.loc 1 105 0
 943 006e 621D     		adds	r2, r4, #5
 944 0070 1846     		mov	r0, r3
 945 0072 0091     		str	r1, [sp, #0]
 946 0074 124B     		ldr	r3, .L20+20
 947 0076 4FF49871 		mov	r1, #304
 948 007a FFF7FEFF 		bl	chThdCreateStatic
 949              	.LVL79:
 950 007e 2861     		str	r0, [r5, #16]
 951              		.loc 1 106 0
 952 0080 FFF7FEFF 		bl	chMtxUnlock
 953              	.LVL80:
 954              		.loc 1 107 0
 955 0084 FFF7FEFF 		bl	test_wait_threads
 956              	.LVL81:
 957              		.loc 1 108 0
 958 0088 BB69     		ldr	r3, [r7, #24]
 959 008a 9968     		ldr	r1, [r3, #8]
 960 008c 0B1B     		subs	r3, r1, r4
 961 008e 5942     		rsbs	r1, r3, #0
 962 0090 5941     		adcs	r1, r1, r3
 963 0092 0120     		movs	r0, #1
 964 0094 FFF7FEFF 		bl	_test_assert
 965              	.LVL82:
 966 0098 08B1     		cbz	r0, .L19
 967              		.loc 1 110 0
ARM GAS  /tmp/ccrPvhwR.s 			page 18


 968 009a 03B0     		add	sp, sp, #12
 969 009c F0BD     		pop	{r4, r5, r6, r7, pc}
 970              	.L19:
 971              		.loc 1 109 0
 972 009e 0D49     		ldr	r1, .L20+40
 973 00a0 0220     		movs	r0, #2
 974              		.loc 1 110 0
 975 00a2 03B0     		add	sp, sp, #12
 976 00a4 BDE8F040 		pop	{r4, r5, r6, r7, lr}
 977              		.loc 1 109 0
 978 00a8 FFF7FEBF 		b	_test_assert_sequence
 979              	.LVL83:
 980              	.L21:
 981              		.align	2
 982              	.L20:
 983 00ac 00000000 		.word	rlist
 984 00b0 00000000 		.word	.LANCHOR2
 985 00b4 00000000 		.word	wa
 986 00b8 00000000 		.word	threads
 987 00bc 10000000 		.word	.LC4
 988 00c0 00000000 		.word	thread1
 989 00c4 14000000 		.word	.LC5
 990 00c8 04000000 		.word	.LC1
 991 00cc 08000000 		.word	.LC2
 992 00d0 00000000 		.word	.LC0
 993 00d4 18000000 		.word	.LC6
 994              		.cfi_endproc
 995              	.LFE9:
 996              		.size	mtx1_execute, .-mtx1_execute
 997 00d8 AFF30080 		.section	.text.mtx5_execute,"ax",%progbits
 997      AFF30080 
 998              		.align	2
 999              		.p2align 4,,15
 1000              		.thumb
 1001              		.thumb_func
 1002              		.type	mtx5_execute, %function
 1003              	mtx5_execute:
 1004              	.LFB27:
 1005              		.loc 1 433 0
 1006              		.cfi_startproc
 1007              		@ args = 0, pretend = 0, frame = 0
 1008              		@ frame_needed = 0, uses_anonymous_args = 0
 1009 0000 F8B5     		push	{r3, r4, r5, r6, r7, lr}
 1010              	.LCFI17:
 1011              		.cfi_def_cfa_offset 24
 1012              		.cfi_offset 3, -24
 1013              		.cfi_offset 4, -20
 1014              		.cfi_offset 5, -16
 1015              		.cfi_offset 6, -12
 1016              		.cfi_offset 7, -8
 1017              		.cfi_offset 14, -4
 1018              		.loc 1 437 0
 1019 0002 2E4D     		ldr	r5, .L27
 1020              		.loc 1 439 0
 1021 0004 2E4C     		ldr	r4, .L27+4
 1022              		.loc 1 437 0
 1023 0006 AB69     		ldr	r3, [r5, #24]
ARM GAS  /tmp/ccrPvhwR.s 			page 19


 1024              		.loc 1 439 0
 1025 0008 2046     		mov	r0, r4
 1026              		.loc 1 437 0
 1027 000a 9E68     		ldr	r6, [r3, #8]
 1028              	.LVL84:
 1029              		.loc 1 439 0
 1030 000c FFF7FEFF 		bl	chMtxTryLock
 1031              	.LVL85:
 1032              		.loc 1 440 0
 1033 0010 0146     		mov	r1, r0
 1034 0012 0120     		movs	r0, #1
 1035              	.LVL86:
 1036 0014 FFF7FEFF 		bl	_test_assert
 1037              	.LVL87:
 1038 0018 00B1     		cbz	r0, .L26
 1039              	.L22:
 1040 001a F8BD     		pop	{r3, r4, r5, r6, r7, pc}
 1041              	.L26:
 1042              		.loc 1 442 0
 1043 001c 2046     		mov	r0, r4
 1044 001e FFF7FEFF 		bl	chMtxTryLock
 1045              	.LVL88:
 1046              		.loc 1 443 0
 1047 0022 80F00101 		eor	r1, r0, #1
 1048 0026 C9B2     		uxtb	r1, r1
 1049 0028 0220     		movs	r0, #2
 1050              	.LVL89:
 1051 002a FFF7FEFF 		bl	_test_assert
 1052              	.LVL90:
 1053 002e 0746     		mov	r7, r0
 1054 0030 0028     		cmp	r0, #0
 1055 0032 F2D1     		bne	.L22
 1056              	.LBB5:
 1057              		.loc 1 445 0
 1058 0034 2023     		movs	r3, #32
 1059              	.LVL91:
 1060              	@ 445 "/home/felix/Documents/ChibiOS/test/testmtx.c" 1
 1061 0036 83F31188 		msr     BASEPRI, r3
 1062              	@ 0 "" 2
 1063              	.LVL92:
 1064              		.thumb
 1065              	.LBE5:
 1066              		.loc 1 446 0
 1067 003a FFF7FEFF 		bl	chMtxUnlockS
 1068              	.LVL93:
 1069              	.LBB6:
 1070              		.loc 1 447 0
 1071 003e 3B46     		mov	r3, r7
 1072              	.LVL94:
 1073              	@ 447 "/home/felix/Documents/ChibiOS/test/testmtx.c" 1
 1074 0040 83F31188 		msr     BASEPRI, r3
 1075              	@ 0 "" 2
 1076              	.LVL95:
 1077              		.thumb
 1078              	.LBE6:
 1079              		.loc 1 449 0
 1080 0044 2168     		ldr	r1, [r4, #0]
ARM GAS  /tmp/ccrPvhwR.s 			page 20


 1081 0046 B1EB040C 		subs	ip, r1, r4
 1082 004a DCF10001 		rsbs	r1, ip, #0
 1083 004e 51EB0C01 		adcs	r1, r1, ip
 1084 0052 0320     		movs	r0, #3
 1085 0054 FFF7FEFF 		bl	_test_assert
 1086              	.LVL96:
 1087 0058 0028     		cmp	r0, #0
 1088 005a DED1     		bne	.L22
 1089              		.loc 1 450 0
 1090 005c A168     		ldr	r1, [r4, #8]
 1091 005e D1F10101 		rsbs	r1, r1, #1
 1092 0062 38BF     		it	cc
 1093 0064 0021     		movcc	r1, #0
 1094 0066 0420     		movs	r0, #4
 1095 0068 FFF7FEFF 		bl	_test_assert
 1096              	.LVL97:
 1097 006c 0028     		cmp	r0, #0
 1098 006e D4D1     		bne	.L22
 1099              		.loc 1 451 0
 1100 0070 AB69     		ldr	r3, [r5, #24]
 1101 0072 9968     		ldr	r1, [r3, #8]
 1102 0074 B1EB060E 		subs	lr, r1, r6
 1103 0078 DEF10001 		rsbs	r1, lr, #0
 1104 007c 51EB0E01 		adcs	r1, r1, lr
 1105 0080 0520     		movs	r0, #5
 1106 0082 FFF7FEFF 		bl	_test_assert
 1107              	.LVL98:
 1108 0086 0028     		cmp	r0, #0
 1109 0088 C7D1     		bne	.L22
 1110              		.loc 1 453 0
 1111 008a 2046     		mov	r0, r4
 1112 008c FFF7FEFF 		bl	chMtxLock
 1113              	.LVL99:
 1114              		.loc 1 454 0
 1115 0090 FFF7FEFF 		bl	chMtxUnlockAll
 1116              	.LVL100:
 1117              		.loc 1 455 0
 1118 0094 2168     		ldr	r1, [r4, #0]
 1119 0096 0A1B     		subs	r2, r1, r4
 1120 0098 5142     		rsbs	r1, r2, #0
 1121 009a 5141     		adcs	r1, r1, r2
 1122 009c 0620     		movs	r0, #6
 1123 009e FFF7FEFF 		bl	_test_assert
 1124              	.LVL101:
 1125 00a2 0028     		cmp	r0, #0
 1126 00a4 B9D1     		bne	.L22
 1127              		.loc 1 456 0
 1128 00a6 A168     		ldr	r1, [r4, #8]
 1129 00a8 D1F10101 		rsbs	r1, r1, #1
 1130 00ac 4FF00700 		mov	r0, #7
 1131 00b0 38BF     		it	cc
 1132 00b2 0021     		movcc	r1, #0
 1133              		.loc 1 457 0
 1134 00b4 BDE8F840 		pop	{r3, r4, r5, r6, r7, lr}
 1135              		.loc 1 456 0
 1136 00b8 FFF7FEBF 		b	_test_assert
 1137              	.LVL102:
ARM GAS  /tmp/ccrPvhwR.s 			page 21


 1138              	.L28:
 1139              		.align	2
 1140              	.L27:
 1141 00bc 00000000 		.word	rlist
 1142 00c0 00000000 		.word	.LANCHOR2
 1143              		.cfi_endproc
 1144              	.LFE27:
 1145              		.size	mtx5_execute, .-mtx5_execute
 1146 00c4 AFF30080 		.section	.text.mtx4_execute,"ax",%progbits
 1146      AFF30080 
 1146      AFF30080 
 1147              		.align	2
 1148              		.p2align 4,,15
 1149              		.thumb
 1150              		.thumb_func
 1151              		.type	mtx4_execute, %function
 1152              	mtx4_execute:
 1153              	.LFB25:
 1154              		.loc 1 365 0
 1155              		.cfi_startproc
 1156              		@ args = 0, pretend = 0, frame = 8
 1157              		@ frame_needed = 0, uses_anonymous_args = 0
 1158 0000 2DE9F046 		push	{r4, r5, r6, r7, r9, sl, lr}
 1159              	.LCFI18:
 1160              		.cfi_def_cfa_offset 28
 1161              		.cfi_offset 4, -28
 1162              		.cfi_offset 5, -24
 1163              		.cfi_offset 6, -20
 1164              		.cfi_offset 7, -16
 1165              		.cfi_offset 9, -12
 1166              		.cfi_offset 10, -8
 1167              		.cfi_offset 14, -4
 1168              		.loc 1 368 0
 1169 0004 8B4D     		ldr	r5, .L34
 1170              		.loc 1 371 0
 1171 0006 8C4E     		ldr	r6, .L34+4
 1172              		.loc 1 368 0
 1173 0008 AB69     		ldr	r3, [r5, #24]
 1174              		.loc 1 371 0
 1175 000a 3268     		ldr	r2, [r6, #0]
 1176              		.loc 1 368 0
 1177 000c 9C68     		ldr	r4, [r3, #8]
 1178              	.LVL103:
 1179              		.loc 1 371 0
 1180 000e 8B4B     		ldr	r3, .L34+8
 1181 0010 8B4F     		ldr	r7, .L34+12
 1182              		.loc 1 365 0
 1183 0012 85B0     		sub	sp, sp, #20
 1184              	.LCFI19:
 1185              		.cfi_def_cfa_offset 48
 1186              		.loc 1 369 0
 1187 0014 04F10109 		add	r9, r4, #1
 1188              	.LVL104:
 1189              		.loc 1 371 0
 1190 0018 0392     		str	r2, [sp, #12]
 1191 001a 8A4A     		ldr	r2, .L34+16
 1192 001c 0398     		ldr	r0, [sp, #12]
ARM GAS  /tmp/ccrPvhwR.s 			page 22


 1193 001e 0092     		str	r2, [sp, #0]
 1194 0020 4FF49871 		mov	r1, #304
 1195 0024 4A46     		mov	r2, r9
 1196 0026 FFF7FEFF 		bl	chThdCreateStatic
 1197              	.LVL105:
 1198              		.loc 1 372 0
 1199 002a 7668     		ldr	r6, [r6, #4]
 1200 002c 864B     		ldr	r3, .L34+20
 1201              		.loc 1 371 0
 1202 002e 3860     		str	r0, [r7, #0]
 1203              		.loc 1 370 0
 1204 0030 04F1020A 		add	sl, r4, #2
 1205              	.LVL106:
 1206              		.loc 1 372 0
 1207 0034 5246     		mov	r2, sl
 1208 0036 4FF49871 		mov	r1, #304
 1209 003a 0093     		str	r3, [sp, #0]
 1210 003c 3046     		mov	r0, r6
 1211 003e 834B     		ldr	r3, .L34+24
 1212 0040 FFF7FEFF 		bl	chThdCreateStatic
 1213              	.LVL107:
 1214 0044 7860     		str	r0, [r7, #4]
 1215              		.loc 1 373 0
 1216 0046 8248     		ldr	r0, .L34+28
 1217 0048 FFF7FEFF 		bl	chMtxLock
 1218              	.LVL108:
 1219              		.loc 1 374 0
 1220 004c AB69     		ldr	r3, [r5, #24]
 1221 004e 9968     		ldr	r1, [r3, #8]
 1222 0050 0A1B     		subs	r2, r1, r4
 1223 0052 5142     		rsbs	r1, r2, #0
 1224 0054 5141     		adcs	r1, r1, r2
 1225 0056 0120     		movs	r0, #1
 1226 0058 FFF7FEFF 		bl	_test_assert
 1227              	.LVL109:
 1228 005c 10B1     		cbz	r0, .L33
 1229              	.L29:
 1230              		.loc 1 409 0
 1231 005e 05B0     		add	sp, sp, #20
 1232 0060 BDE8F086 		pop	{r4, r5, r6, r7, r9, sl, pc}
 1233              	.L33:
 1234              		.loc 1 375 0
 1235 0064 6420     		movs	r0, #100
 1236 0066 FFF7FEFF 		bl	chThdSleep
 1237              	.LVL110:
 1238              		.loc 1 376 0
 1239 006a AB69     		ldr	r3, [r5, #24]
 1240 006c 9968     		ldr	r1, [r3, #8]
 1241 006e B1EB0903 		subs	r3, r1, r9
 1242 0072 5942     		rsbs	r1, r3, #0
 1243 0074 5941     		adcs	r1, r1, r3
 1244 0076 0220     		movs	r0, #2
 1245 0078 FFF7FEFF 		bl	_test_assert
 1246              	.LVL111:
 1247 007c 0028     		cmp	r0, #0
 1248 007e EED1     		bne	.L29
 1249              		.loc 1 377 0
ARM GAS  /tmp/ccrPvhwR.s 			page 23


 1250 0080 7448     		ldr	r0, .L34+32
 1251 0082 FFF7FEFF 		bl	chMtxLock
 1252              	.LVL112:
 1253              		.loc 1 378 0
 1254 0086 AB69     		ldr	r3, [r5, #24]
 1255 0088 9968     		ldr	r1, [r3, #8]
 1256 008a B1EB090C 		subs	ip, r1, r9
 1257 008e DCF10001 		rsbs	r1, ip, #0
 1258 0092 51EB0C01 		adcs	r1, r1, ip
 1259 0096 0320     		movs	r0, #3
 1260 0098 FFF7FEFF 		bl	_test_assert
 1261              	.LVL113:
 1262 009c 0028     		cmp	r0, #0
 1263 009e DED1     		bne	.L29
 1264              		.loc 1 379 0
 1265 00a0 6420     		movs	r0, #100
 1266 00a2 FFF7FEFF 		bl	chThdSleep
 1267              	.LVL114:
 1268              		.loc 1 380 0
 1269 00a6 AB69     		ldr	r3, [r5, #24]
 1270 00a8 9968     		ldr	r1, [r3, #8]
 1271 00aa B1EB0A0E 		subs	lr, r1, sl
 1272 00ae DEF10001 		rsbs	r1, lr, #0
 1273 00b2 51EB0E01 		adcs	r1, r1, lr
 1274 00b6 0420     		movs	r0, #4
 1275 00b8 FFF7FEFF 		bl	_test_assert
 1276              	.LVL115:
 1277 00bc 0028     		cmp	r0, #0
 1278 00be CED1     		bne	.L29
 1279              		.loc 1 381 0
 1280 00c0 FFF7FEFF 		bl	chMtxUnlock
 1281              	.LVL116:
 1282              		.loc 1 382 0
 1283 00c4 AB69     		ldr	r3, [r5, #24]
 1284 00c6 9968     		ldr	r1, [r3, #8]
 1285 00c8 B1EB0902 		subs	r2, r1, r9
 1286 00cc 5142     		rsbs	r1, r2, #0
 1287 00ce 5141     		adcs	r1, r1, r2
 1288 00d0 0520     		movs	r0, #5
 1289 00d2 FFF7FEFF 		bl	_test_assert
 1290              	.LVL117:
 1291 00d6 0028     		cmp	r0, #0
 1292 00d8 C1D1     		bne	.L29
 1293              		.loc 1 383 0
 1294 00da 6420     		movs	r0, #100
 1295 00dc FFF7FEFF 		bl	chThdSleep
 1296              	.LVL118:
 1297              		.loc 1 384 0
 1298 00e0 AB69     		ldr	r3, [r5, #24]
 1299 00e2 9968     		ldr	r1, [r3, #8]
 1300 00e4 B1EB0903 		subs	r3, r1, r9
 1301 00e8 5942     		rsbs	r1, r3, #0
 1302 00ea 5941     		adcs	r1, r1, r3
 1303 00ec 0620     		movs	r0, #6
 1304 00ee FFF7FEFF 		bl	_test_assert
 1305              	.LVL119:
 1306 00f2 0028     		cmp	r0, #0
ARM GAS  /tmp/ccrPvhwR.s 			page 24


 1307 00f4 B3D1     		bne	.L29
 1308              		.loc 1 385 0
 1309 00f6 FFF7FEFF 		bl	chMtxUnlockAll
 1310              	.LVL120:
 1311              		.loc 1 386 0
 1312 00fa AB69     		ldr	r3, [r5, #24]
 1313 00fc 9968     		ldr	r1, [r3, #8]
 1314 00fe B1EB040C 		subs	ip, r1, r4
 1315 0102 DCF10001 		rsbs	r1, ip, #0
 1316 0106 51EB0C01 		adcs	r1, r1, ip
 1317 010a 0720     		movs	r0, #7
 1318 010c FFF7FEFF 		bl	_test_assert
 1319              	.LVL121:
 1320 0110 0028     		cmp	r0, #0
 1321 0112 A4D1     		bne	.L29
 1322              		.loc 1 387 0
 1323 0114 FFF7FEFF 		bl	test_wait_threads
 1324              	.LVL122:
 1325              		.loc 1 390 0
 1326 0118 4F4A     		ldr	r2, .L34+36
 1327 011a 484B     		ldr	r3, .L34+8
 1328 011c 0092     		str	r2, [sp, #0]
 1329 011e 4FF49871 		mov	r1, #304
 1330 0122 4A46     		mov	r2, r9
 1331 0124 0398     		ldr	r0, [sp, #12]
 1332 0126 FFF7FEFF 		bl	chThdCreateStatic
 1333              	.LVL123:
 1334              		.loc 1 391 0
 1335 012a 4C4B     		ldr	r3, .L34+40
 1336              		.loc 1 390 0
 1337 012c 3860     		str	r0, [r7, #0]
 1338              		.loc 1 391 0
 1339 012e 4FF49871 		mov	r1, #304
 1340 0132 0093     		str	r3, [sp, #0]
 1341 0134 5246     		mov	r2, sl
 1342 0136 454B     		ldr	r3, .L34+24
 1343 0138 3046     		mov	r0, r6
 1344 013a FFF7FEFF 		bl	chThdCreateStatic
 1345              	.LVL124:
 1346 013e 7860     		str	r0, [r7, #4]
 1347              		.loc 1 392 0
 1348 0140 4348     		ldr	r0, .L34+28
 1349 0142 FFF7FEFF 		bl	chMtxLock
 1350              	.LVL125:
 1351              		.loc 1 393 0
 1352 0146 AB69     		ldr	r3, [r5, #24]
 1353 0148 9968     		ldr	r1, [r3, #8]
 1354 014a B1EB040E 		subs	lr, r1, r4
 1355 014e DEF10001 		rsbs	r1, lr, #0
 1356 0152 51EB0E01 		adcs	r1, r1, lr
 1357 0156 0820     		movs	r0, #8
 1358 0158 FFF7FEFF 		bl	_test_assert
 1359              	.LVL126:
 1360 015c 0028     		cmp	r0, #0
 1361 015e 7FF47EAF 		bne	.L29
 1362              		.loc 1 394 0
 1363 0162 6420     		movs	r0, #100
ARM GAS  /tmp/ccrPvhwR.s 			page 25


 1364 0164 FFF7FEFF 		bl	chThdSleep
 1365              	.LVL127:
 1366              		.loc 1 395 0
 1367 0168 AB69     		ldr	r3, [r5, #24]
 1368 016a 9968     		ldr	r1, [r3, #8]
 1369 016c B1EB0902 		subs	r2, r1, r9
 1370 0170 5142     		rsbs	r1, r2, #0
 1371 0172 5141     		adcs	r1, r1, r2
 1372 0174 0920     		movs	r0, #9
 1373 0176 FFF7FEFF 		bl	_test_assert
 1374              	.LVL128:
 1375 017a 0028     		cmp	r0, #0
 1376 017c 7FF46FAF 		bne	.L29
 1377              		.loc 1 396 0
 1378 0180 3448     		ldr	r0, .L34+32
 1379 0182 FFF7FEFF 		bl	chMtxLock
 1380              	.LVL129:
 1381              		.loc 1 397 0
 1382 0186 AB69     		ldr	r3, [r5, #24]
 1383 0188 9968     		ldr	r1, [r3, #8]
 1384 018a B1EB0903 		subs	r3, r1, r9
 1385 018e 5942     		rsbs	r1, r3, #0
 1386 0190 5941     		adcs	r1, r1, r3
 1387 0192 0A20     		movs	r0, #10
 1388 0194 FFF7FEFF 		bl	_test_assert
 1389              	.LVL130:
 1390 0198 0028     		cmp	r0, #0
 1391 019a 7FF460AF 		bne	.L29
 1392              		.loc 1 398 0
 1393 019e 6420     		movs	r0, #100
 1394 01a0 FFF7FEFF 		bl	chThdSleep
 1395              	.LVL131:
 1396              		.loc 1 399 0
 1397 01a4 AB69     		ldr	r3, [r5, #24]
 1398 01a6 9968     		ldr	r1, [r3, #8]
 1399 01a8 B1EB0A0C 		subs	ip, r1, sl
 1400 01ac DCF10001 		rsbs	r1, ip, #0
 1401 01b0 4FF00B00 		mov	r0, #11
 1402 01b4 51EB0C01 		adcs	r1, r1, ip
 1403 01b8 FFF7FEFF 		bl	_test_assert
 1404              	.LVL132:
 1405 01bc 0646     		mov	r6, r0
 1406 01be 0028     		cmp	r0, #0
 1407 01c0 7FF44DAF 		bne	.L29
 1408              	.LBB7:
 1409              		.loc 1 400 0
 1410 01c4 2023     		movs	r3, #32
 1411              	.LVL133:
 1412              	@ 400 "/home/felix/Documents/ChibiOS/test/testmtx.c" 1
 1413 01c6 83F31188 		msr     BASEPRI, r3
 1414              	@ 0 "" 2
 1415              	.LVL134:
 1416              		.thumb
 1417              	.LBE7:
 1418              		.loc 1 401 0
 1419 01ca FFF7FEFF 		bl	chMtxUnlockS
 1420              	.LVL135:
ARM GAS  /tmp/ccrPvhwR.s 			page 26


 1421              	.LBB8:
 1422              		.loc 1 402 0
 1423 01ce 3346     		mov	r3, r6
 1424              	.LVL136:
 1425              	@ 402 "/home/felix/Documents/ChibiOS/test/testmtx.c" 1
 1426 01d0 83F31188 		msr     BASEPRI, r3
 1427              	@ 0 "" 2
 1428              	.LVL137:
 1429              		.thumb
 1430              	.LBE8:
 1431              		.loc 1 403 0
 1432 01d4 AB69     		ldr	r3, [r5, #24]
 1433              	.LVL138:
 1434 01d6 9968     		ldr	r1, [r3, #8]
 1435 01d8 B1EB090E 		subs	lr, r1, r9
 1436 01dc DEF10001 		rsbs	r1, lr, #0
 1437 01e0 51EB0E01 		adcs	r1, r1, lr
 1438 01e4 0C20     		movs	r0, #12
 1439 01e6 FFF7FEFF 		bl	_test_assert
 1440              	.LVL139:
 1441 01ea 0028     		cmp	r0, #0
 1442 01ec 7FF437AF 		bne	.L29
 1443              		.loc 1 404 0
 1444 01f0 6420     		movs	r0, #100
 1445 01f2 FFF7FEFF 		bl	chThdSleep
 1446              	.LVL140:
 1447              		.loc 1 405 0
 1448 01f6 AB69     		ldr	r3, [r5, #24]
 1449 01f8 9968     		ldr	r1, [r3, #8]
 1450 01fa B1EB0902 		subs	r2, r1, r9
 1451 01fe 5142     		rsbs	r1, r2, #0
 1452 0200 5141     		adcs	r1, r1, r2
 1453 0202 0D20     		movs	r0, #13
 1454 0204 FFF7FEFF 		bl	_test_assert
 1455              	.LVL141:
 1456 0208 0028     		cmp	r0, #0
 1457 020a 7FF428AF 		bne	.L29
 1458              		.loc 1 406 0
 1459 020e FFF7FEFF 		bl	chMtxUnlockAll
 1460              	.LVL142:
 1461              		.loc 1 407 0
 1462 0212 AB69     		ldr	r3, [r5, #24]
 1463 0214 9968     		ldr	r1, [r3, #8]
 1464 0216 0B1B     		subs	r3, r1, r4
 1465 0218 5942     		rsbs	r1, r3, #0
 1466 021a 5941     		adcs	r1, r1, r3
 1467 021c 0E20     		movs	r0, #14
 1468 021e FFF7FEFF 		bl	_test_assert
 1469              	.LVL143:
 1470 0222 0028     		cmp	r0, #0
 1471 0224 7FF41BAF 		bne	.L29
 1472              		.loc 1 409 0
 1473 0228 05B0     		add	sp, sp, #20
 1474 022a BDE8F046 		pop	{r4, r5, r6, r7, r9, sl, lr}
 1475              		.loc 1 408 0
 1476 022e FFF7FEBF 		b	test_wait_threads
 1477              	.LVL144:
ARM GAS  /tmp/ccrPvhwR.s 			page 27


 1478              	.L35:
 1479 0232 00BF     		.align	2
 1480              	.L34:
 1481 0234 00000000 		.word	rlist
 1482 0238 00000000 		.word	wa
 1483 023c 00000000 		.word	thread4a
 1484 0240 00000000 		.word	threads
 1485 0244 08000000 		.word	.LC2
 1486 0248 00000000 		.word	.LC0
 1487 024c 00000000 		.word	thread4b
 1488 0250 00000000 		.word	.LANCHOR1
 1489 0254 00000000 		.word	.LANCHOR2
 1490 0258 14000000 		.word	.LC5
 1491 025c 04000000 		.word	.LC1
 1492              		.cfi_endproc
 1493              	.LFE25:
 1494              		.size	mtx4_execute, .-mtx4_execute
 1495              		.section	.text.thread4b,"ax",%progbits
 1496              		.align	2
 1497              		.p2align 4,,15
 1498              		.thumb
 1499              		.thumb_func
 1500              		.type	thread4b, %function
 1501              	thread4b:
 1502              	.LFB24:
 1503              		.loc 1 356 0
 1504              		.cfi_startproc
 1505              		@ args = 0, pretend = 0, frame = 0
 1506              		@ frame_needed = 0, uses_anonymous_args = 0
 1507              	.LVL145:
 1508 0000 08B5     		push	{r3, lr}
 1509              	.LCFI20:
 1510              		.cfi_def_cfa_offset 8
 1511              		.cfi_offset 3, -8
 1512              		.cfi_offset 14, -4
 1513              		.loc 1 359 0
 1514 0002 9620     		movs	r0, #150
 1515              	.LVL146:
 1516 0004 FFF7FEFF 		bl	chThdSleep
 1517              	.LVL147:
 1518              		.loc 1 360 0
 1519 0008 40F20000 		movw	r0, #:lower16:.LANCHOR2
 1520 000c C0F20000 		movt	r0, #:upper16:.LANCHOR2
 1521 0010 FFF7FEFF 		bl	chMtxLock
 1522              	.LVL148:
 1523              		.loc 1 361 0
 1524 0014 FFF7FEFF 		bl	chMtxUnlock
 1525              	.LVL149:
 1526              		.loc 1 363 0
 1527 0018 0020     		movs	r0, #0
 1528 001a 08BD     		pop	{r3, pc}
 1529              		.cfi_endproc
 1530              	.LFE24:
 1531              		.size	thread4b, .-thread4b
 1532 001c AFF30080 		.section	.text.thread4a,"ax",%progbits
 1533              		.align	2
 1534              		.p2align 4,,15
ARM GAS  /tmp/ccrPvhwR.s 			page 28


 1535              		.thumb
 1536              		.thumb_func
 1537              		.type	thread4a, %function
 1538              	thread4a:
 1539              	.LFB23:
 1540              		.loc 1 347 0
 1541              		.cfi_startproc
 1542              		@ args = 0, pretend = 0, frame = 0
 1543              		@ frame_needed = 0, uses_anonymous_args = 0
 1544              	.LVL150:
 1545 0000 08B5     		push	{r3, lr}
 1546              	.LCFI21:
 1547              		.cfi_def_cfa_offset 8
 1548              		.cfi_offset 3, -8
 1549              		.cfi_offset 14, -4
 1550              		.loc 1 350 0
 1551 0002 3220     		movs	r0, #50
 1552              	.LVL151:
 1553 0004 FFF7FEFF 		bl	chThdSleep
 1554              	.LVL152:
 1555              		.loc 1 351 0
 1556 0008 40F20000 		movw	r0, #:lower16:.LANCHOR1
 1557 000c C0F20000 		movt	r0, #:upper16:.LANCHOR1
 1558 0010 FFF7FEFF 		bl	chMtxLock
 1559              	.LVL153:
 1560              		.loc 1 352 0
 1561 0014 FFF7FEFF 		bl	chMtxUnlock
 1562              	.LVL154:
 1563              		.loc 1 354 0
 1564 0018 0020     		movs	r0, #0
 1565 001a 08BD     		pop	{r3, pc}
 1566              		.cfi_endproc
 1567              	.LFE23:
 1568              		.size	thread4a, .-thread4a
 1569 001c AFF30080 		.section	.text.mtx3_execute,"ax",%progbits
 1570              		.align	2
 1571              		.p2align 4,,15
 1572              		.thumb
 1573              		.thumb_func
 1574              		.type	mtx3_execute, %function
 1575              	mtx3_execute:
 1576              	.LFB21:
 1577              		.loc 1 308 0
 1578              		.cfi_startproc
 1579              		@ args = 0, pretend = 0, frame = 0
 1580              		@ frame_needed = 0, uses_anonymous_args = 0
 1581 0000 2DE9F041 		push	{r4, r5, r6, r7, r8, lr}
 1582              	.LCFI22:
 1583              		.cfi_def_cfa_offset 24
 1584              		.cfi_offset 4, -24
 1585              		.cfi_offset 5, -20
 1586              		.cfi_offset 6, -16
 1587              		.cfi_offset 7, -12
 1588              		.cfi_offset 8, -8
 1589              		.cfi_offset 14, -4
 1590              		.loc 1 313 0
 1591 0004 2C4E     		ldr	r6, .L41
ARM GAS  /tmp/ccrPvhwR.s 			page 29


 1592 0006 2D4F     		ldr	r7, .L41+4
 1593 0008 2D4C     		ldr	r4, .L41+8
 1594              		.loc 1 308 0
 1595 000a 82B0     		sub	sp, sp, #8
 1596              	.LCFI23:
 1597              		.cfi_def_cfa_offset 32
 1598              		.loc 1 311 0
 1599 000c FFF7FEFF 		bl	test_wait_tick
 1600              	.LVL155:
 1601              		.loc 1 313 0
 1602 0010 B369     		ldr	r3, [r6, #24]
 1603              		.loc 1 312 0
 1604 0012 2C49     		ldr	r1, .L41+12
 1605              		.loc 1 313 0
 1606 0014 9A68     		ldr	r2, [r3, #8]
 1607              		.loc 1 312 0
 1608 0016 D1F80C80 		ldr	r8, [r1, #12]
 1609              	.LVL156:
 1610              		.loc 1 313 0
 1611 001a 2B4B     		ldr	r3, .L41+16
 1612 001c 3868     		ldr	r0, [r7, #0]
 1613 001e 0025     		movs	r5, #0
 1614 0020 053A     		subs	r2, r2, #5
 1615 0022 4FF49871 		mov	r1, #304
 1616 0026 0095     		str	r5, [sp, #0]
 1617 0028 FFF7FEFF 		bl	chThdCreateStatic
 1618              	.LVL157:
 1619              		.loc 1 314 0
 1620 002c B269     		ldr	r2, [r6, #24]
 1621 002e 7B68     		ldr	r3, [r7, #4]
 1622 0030 9268     		ldr	r2, [r2, #8]
 1623              		.loc 1 313 0
 1624 0032 2060     		str	r0, [r4, #0]
 1625              		.loc 1 314 0
 1626 0034 043A     		subs	r2, r2, #4
 1627 0036 1846     		mov	r0, r3
 1628 0038 4FF49871 		mov	r1, #304
 1629 003c 234B     		ldr	r3, .L41+20
 1630 003e 0095     		str	r5, [sp, #0]
 1631 0040 FFF7FEFF 		bl	chThdCreateStatic
 1632              	.LVL158:
 1633              		.loc 1 315 0
 1634 0044 B269     		ldr	r2, [r6, #24]
 1635 0046 BB68     		ldr	r3, [r7, #8]
 1636 0048 9268     		ldr	r2, [r2, #8]
 1637              		.loc 1 314 0
 1638 004a 6060     		str	r0, [r4, #4]
 1639              		.loc 1 315 0
 1640 004c 033A     		subs	r2, r2, #3
 1641 004e 1846     		mov	r0, r3
 1642 0050 4FF49871 		mov	r1, #304
 1643 0054 1E4B     		ldr	r3, .L41+24
 1644 0056 0095     		str	r5, [sp, #0]
 1645 0058 FFF7FEFF 		bl	chThdCreateStatic
 1646              	.LVL159:
 1647              		.loc 1 316 0
 1648 005c B269     		ldr	r2, [r6, #24]
ARM GAS  /tmp/ccrPvhwR.s 			page 30


 1649 005e FB68     		ldr	r3, [r7, #12]
 1650 0060 9268     		ldr	r2, [r2, #8]
 1651              		.loc 1 315 0
 1652 0062 A060     		str	r0, [r4, #8]
 1653              		.loc 1 316 0
 1654 0064 023A     		subs	r2, r2, #2
 1655 0066 1846     		mov	r0, r3
 1656 0068 4FF49871 		mov	r1, #304
 1657 006c 194B     		ldr	r3, .L41+28
 1658 006e 0095     		str	r5, [sp, #0]
 1659 0070 FFF7FEFF 		bl	chThdCreateStatic
 1660              	.LVL160:
 1661              		.loc 1 317 0
 1662 0074 B269     		ldr	r2, [r6, #24]
 1663 0076 3B69     		ldr	r3, [r7, #16]
 1664 0078 9268     		ldr	r2, [r2, #8]
 1665              		.loc 1 316 0
 1666 007a E060     		str	r0, [r4, #12]
 1667              		.loc 1 317 0
 1668 007c 4FF49871 		mov	r1, #304
 1669 0080 013A     		subs	r2, r2, #1
 1670 0082 1846     		mov	r0, r3
 1671 0084 0095     		str	r5, [sp, #0]
 1672 0086 144B     		ldr	r3, .L41+32
 1673 0088 FFF7FEFF 		bl	chThdCreateStatic
 1674              	.LVL161:
 1675 008c 2061     		str	r0, [r4, #16]
 1676              		.loc 1 318 0
 1677 008e FFF7FEFF 		bl	test_wait_threads
 1678              	.LVL162:
 1679              		.loc 1 319 0
 1680 0092 0120     		movs	r0, #1
 1681 0094 1149     		ldr	r1, .L41+36
 1682 0096 FFF7FEFF 		bl	_test_assert_sequence
 1683              	.LVL163:
 1684 009a 10B1     		cbz	r0, .L40
 1685              		.loc 1 321 0
 1686 009c 02B0     		add	sp, sp, #8
 1687 009e BDE8F081 		pop	{r4, r5, r6, r7, r8, pc}
 1688              	.L40:
 1689              		.loc 1 320 0
 1690 00a2 0220     		movs	r0, #2
 1691 00a4 08F16E01 		add	r1, r8, #110
 1692 00a8 08F17302 		add	r2, r8, #115
 1693              		.loc 1 321 0
 1694 00ac 02B0     		add	sp, sp, #8
 1695 00ae BDE8F041 		pop	{r4, r5, r6, r7, r8, lr}
 1696              		.loc 1 320 0
 1697 00b2 FFF7FEBF 		b	_test_assert_time_window
 1698              	.LVL164:
 1699              	.L42:
 1700 00b6 00BF     		.align	2
 1701              	.L41:
 1702 00b8 00000000 		.word	rlist
 1703 00bc 00000000 		.word	wa
 1704 00c0 00000000 		.word	threads
 1705 00c4 00000000 		.word	vtlist
ARM GAS  /tmp/ccrPvhwR.s 			page 31


 1706 00c8 00000000 		.word	thread3LL
 1707 00cc 00000000 		.word	thread3L
 1708 00d0 00000000 		.word	thread3M
 1709 00d4 00000000 		.word	thread3H
 1710 00d8 00000000 		.word	thread3HH
 1711 00dc 18000000 		.word	.LC6
 1712              		.cfi_endproc
 1713              	.LFE21:
 1714              		.size	mtx3_execute, .-mtx3_execute
 1715              		.section	.text.mtx2_execute,"ax",%progbits
 1716              		.align	2
 1717              		.p2align 4,,15
 1718              		.thumb
 1719              		.thumb_func
 1720              		.type	mtx2_execute, %function
 1721              	mtx2_execute:
 1722              	.LFB14:
 1723              		.loc 1 190 0
 1724              		.cfi_startproc
 1725              		@ args = 0, pretend = 0, frame = 0
 1726              		@ frame_needed = 0, uses_anonymous_args = 0
 1727 0000 2DE9F041 		push	{r4, r5, r6, r7, r8, lr}
 1728              	.LCFI24:
 1729              		.cfi_def_cfa_offset 24
 1730              		.cfi_offset 4, -24
 1731              		.cfi_offset 5, -20
 1732              		.cfi_offset 6, -16
 1733              		.cfi_offset 7, -12
 1734              		.cfi_offset 8, -8
 1735              		.cfi_offset 14, -4
 1736              		.loc 1 195 0
 1737 0004 204E     		ldr	r6, .L46
 1738 0006 214F     		ldr	r7, .L46+4
 1739 0008 214C     		ldr	r4, .L46+8
 1740              		.loc 1 190 0
 1741 000a 82B0     		sub	sp, sp, #8
 1742              	.LCFI25:
 1743              		.cfi_def_cfa_offset 32
 1744              		.loc 1 193 0
 1745 000c FFF7FEFF 		bl	test_wait_tick
 1746              	.LVL165:
 1747              		.loc 1 195 0
 1748 0010 B369     		ldr	r3, [r6, #24]
 1749              		.loc 1 194 0
 1750 0012 2049     		ldr	r1, .L46+12
 1751              		.loc 1 195 0
 1752 0014 9A68     		ldr	r2, [r3, #8]
 1753              		.loc 1 194 0
 1754 0016 D1F80C80 		ldr	r8, [r1, #12]
 1755              	.LVL166:
 1756              		.loc 1 195 0
 1757 001a 1F4B     		ldr	r3, .L46+16
 1758 001c 3868     		ldr	r0, [r7, #0]
 1759 001e 0025     		movs	r5, #0
 1760 0020 013A     		subs	r2, r2, #1
 1761 0022 4FF49871 		mov	r1, #304
 1762 0026 0095     		str	r5, [sp, #0]
ARM GAS  /tmp/ccrPvhwR.s 			page 32


 1763 0028 FFF7FEFF 		bl	chThdCreateStatic
 1764              	.LVL167:
 1765              		.loc 1 196 0
 1766 002c B269     		ldr	r2, [r6, #24]
 1767 002e 7B68     		ldr	r3, [r7, #4]
 1768 0030 9268     		ldr	r2, [r2, #8]
 1769              		.loc 1 195 0
 1770 0032 2060     		str	r0, [r4, #0]
 1771              		.loc 1 196 0
 1772 0034 023A     		subs	r2, r2, #2
 1773 0036 1846     		mov	r0, r3
 1774 0038 4FF49871 		mov	r1, #304
 1775 003c 174B     		ldr	r3, .L46+20
 1776 003e 0095     		str	r5, [sp, #0]
 1777 0040 FFF7FEFF 		bl	chThdCreateStatic
 1778              	.LVL168:
 1779              		.loc 1 197 0
 1780 0044 B269     		ldr	r2, [r6, #24]
 1781 0046 BB68     		ldr	r3, [r7, #8]
 1782 0048 9268     		ldr	r2, [r2, #8]
 1783              		.loc 1 196 0
 1784 004a 6060     		str	r0, [r4, #4]
 1785              		.loc 1 197 0
 1786 004c 4FF49871 		mov	r1, #304
 1787 0050 033A     		subs	r2, r2, #3
 1788 0052 1846     		mov	r0, r3
 1789 0054 0095     		str	r5, [sp, #0]
 1790 0056 124B     		ldr	r3, .L46+24
 1791 0058 FFF7FEFF 		bl	chThdCreateStatic
 1792              	.LVL169:
 1793 005c A060     		str	r0, [r4, #8]
 1794              		.loc 1 198 0
 1795 005e FFF7FEFF 		bl	test_wait_threads
 1796              	.LVL170:
 1797              		.loc 1 199 0
 1798 0062 0120     		movs	r0, #1
 1799 0064 0F49     		ldr	r1, .L46+28
 1800 0066 FFF7FEFF 		bl	_test_assert_sequence
 1801              	.LVL171:
 1802 006a 10B1     		cbz	r0, .L45
 1803              		.loc 1 201 0
 1804 006c 02B0     		add	sp, sp, #8
 1805 006e BDE8F081 		pop	{r4, r5, r6, r7, r8, pc}
 1806              	.L45:
 1807              		.loc 1 200 0
 1808 0072 0220     		movs	r0, #2
 1809 0074 08F16401 		add	r1, r8, #100
 1810 0078 08F16902 		add	r2, r8, #105
 1811              		.loc 1 201 0
 1812 007c 02B0     		add	sp, sp, #8
 1813 007e BDE8F041 		pop	{r4, r5, r6, r7, r8, lr}
 1814              		.loc 1 200 0
 1815 0082 FFF7FEBF 		b	_test_assert_time_window
 1816              	.LVL172:
 1817              	.L47:
 1818 0086 00BF     		.align	2
 1819              	.L46:
ARM GAS  /tmp/ccrPvhwR.s 			page 33


 1820 0088 00000000 		.word	rlist
 1821 008c 00000000 		.word	wa
 1822 0090 00000000 		.word	threads
 1823 0094 00000000 		.word	vtlist
 1824 0098 00000000 		.word	thread2H
 1825 009c 00000000 		.word	thread2M
 1826 00a0 00000000 		.word	thread2L
 1827 00a4 0C000000 		.word	.LC3
 1828              		.cfi_endproc
 1829              	.LFE14:
 1830              		.size	mtx2_execute, .-mtx2_execute
 1831 00a8 AFF30080 		.section	.text.thread3HH,"ax",%progbits
 1831      AFF30080 
 1832              		.align	2
 1833              		.p2align 4,,15
 1834              		.thumb
 1835              		.thumb_func
 1836              		.type	thread3HH, %function
 1837              	thread3HH:
 1838              	.LFB20:
 1839              		.loc 1 297 0
 1840              		.cfi_startproc
 1841              		@ args = 0, pretend = 0, frame = 0
 1842              		@ frame_needed = 0, uses_anonymous_args = 0
 1843              	.LVL173:
 1844 0000 08B5     		push	{r3, lr}
 1845              	.LCFI26:
 1846              		.cfi_def_cfa_offset 8
 1847              		.cfi_offset 3, -8
 1848              		.cfi_offset 14, -4
 1849              		.loc 1 300 0
 1850 0002 3220     		movs	r0, #50
 1851              	.LVL174:
 1852 0004 FFF7FEFF 		bl	chThdSleep
 1853              	.LVL175:
 1854              		.loc 1 301 0
 1855 0008 40F20000 		movw	r0, #:lower16:.LANCHOR1
 1856 000c C0F20000 		movt	r0, #:upper16:.LANCHOR1
 1857 0010 FFF7FEFF 		bl	chMtxLock
 1858              	.LVL176:
 1859              		.loc 1 302 0
 1860 0014 0A20     		movs	r0, #10
 1861 0016 FFF7FEFF 		bl	test_cpu_pulse
 1862              	.LVL177:
 1863              		.loc 1 303 0
 1864 001a FFF7FEFF 		bl	chMtxUnlock
 1865              	.LVL178:
 1866              		.loc 1 304 0
 1867 001e 4120     		movs	r0, #65
 1868 0020 FFF7FEFF 		bl	test_emit_token
 1869              	.LVL179:
 1870              		.loc 1 306 0
 1871 0024 0020     		movs	r0, #0
 1872 0026 08BD     		pop	{r3, pc}
 1873              		.cfi_endproc
 1874              	.LFE20:
 1875              		.size	thread3HH, .-thread3HH
ARM GAS  /tmp/ccrPvhwR.s 			page 34


 1876 0028 AFF30080 		.section	.text.thread3H,"ax",%progbits
 1876      AFF30080 
 1877              		.align	2
 1878              		.p2align 4,,15
 1879              		.thumb
 1880              		.thumb_func
 1881              		.type	thread3H, %function
 1882              	thread3H:
 1883              	.LFB19:
 1884              		.loc 1 287 0
 1885              		.cfi_startproc
 1886              		@ args = 0, pretend = 0, frame = 0
 1887              		@ frame_needed = 0, uses_anonymous_args = 0
 1888              	.LVL180:
 1889 0000 08B5     		push	{r3, lr}
 1890              	.LCFI27:
 1891              		.cfi_def_cfa_offset 8
 1892              		.cfi_offset 3, -8
 1893              		.cfi_offset 14, -4
 1894              		.loc 1 290 0
 1895 0002 2820     		movs	r0, #40
 1896              	.LVL181:
 1897 0004 FFF7FEFF 		bl	chThdSleep
 1898              	.LVL182:
 1899              		.loc 1 291 0
 1900 0008 1420     		movs	r0, #20
 1901 000a FFF7FEFF 		bl	test_cpu_pulse
 1902              	.LVL183:
 1903              		.loc 1 292 0
 1904 000e 4220     		movs	r0, #66
 1905 0010 FFF7FEFF 		bl	test_emit_token
 1906              	.LVL184:
 1907              		.loc 1 294 0
 1908 0014 0020     		movs	r0, #0
 1909 0016 08BD     		pop	{r3, pc}
 1910              		.cfi_endproc
 1911              	.LFE19:
 1912              		.size	thread3H, .-thread3H
 1913 0018 AFF30080 		.section	.text.thread3M,"ax",%progbits
 1913      AFF30080 
 1914              		.align	2
 1915              		.p2align 4,,15
 1916              		.thumb
 1917              		.thumb_func
 1918              		.type	thread3M, %function
 1919              	thread3M:
 1920              	.LFB18:
 1921              		.loc 1 275 0
 1922              		.cfi_startproc
 1923              		@ args = 0, pretend = 0, frame = 0
 1924              		@ frame_needed = 0, uses_anonymous_args = 0
 1925              	.LVL185:
 1926 0000 08B5     		push	{r3, lr}
 1927              	.LCFI28:
 1928              		.cfi_def_cfa_offset 8
 1929              		.cfi_offset 3, -8
 1930              		.cfi_offset 14, -4
ARM GAS  /tmp/ccrPvhwR.s 			page 35


 1931              		.loc 1 278 0
 1932 0002 1420     		movs	r0, #20
 1933              	.LVL186:
 1934 0004 FFF7FEFF 		bl	chThdSleep
 1935              	.LVL187:
 1936              		.loc 1 279 0
 1937 0008 40F20000 		movw	r0, #:lower16:.LANCHOR1
 1938 000c C0F20000 		movt	r0, #:upper16:.LANCHOR1
 1939 0010 FFF7FEFF 		bl	chMtxLock
 1940              	.LVL188:
 1941              		.loc 1 280 0
 1942 0014 0A20     		movs	r0, #10
 1943 0016 FFF7FEFF 		bl	test_cpu_pulse
 1944              	.LVL189:
 1945              		.loc 1 281 0
 1946 001a FFF7FEFF 		bl	chMtxUnlock
 1947              	.LVL190:
 1948              		.loc 1 282 0
 1949 001e 4320     		movs	r0, #67
 1950 0020 FFF7FEFF 		bl	test_emit_token
 1951              	.LVL191:
 1952              		.loc 1 284 0
 1953 0024 0020     		movs	r0, #0
 1954 0026 08BD     		pop	{r3, pc}
 1955              		.cfi_endproc
 1956              	.LFE18:
 1957              		.size	thread3M, .-thread3M
 1958 0028 AFF30080 		.section	.text.thread3L,"ax",%progbits
 1958      AFF30080 
 1959              		.align	2
 1960              		.p2align 4,,15
 1961              		.thumb
 1962              		.thumb_func
 1963              		.type	thread3L, %function
 1964              	thread3L:
 1965              	.LFB17:
 1966              		.loc 1 259 0
 1967              		.cfi_startproc
 1968              		@ args = 0, pretend = 0, frame = 0
 1969              		@ frame_needed = 0, uses_anonymous_args = 0
 1970              	.LVL192:
 1971 0000 08B5     		push	{r3, lr}
 1972              	.LCFI29:
 1973              		.cfi_def_cfa_offset 8
 1974              		.cfi_offset 3, -8
 1975              		.cfi_offset 14, -4
 1976              		.loc 1 262 0
 1977 0002 0A20     		movs	r0, #10
 1978              	.LVL193:
 1979 0004 FFF7FEFF 		bl	chThdSleep
 1980              	.LVL194:
 1981              		.loc 1 263 0
 1982 0008 40F20000 		movw	r0, #:lower16:.LANCHOR1
 1983 000c C0F20000 		movt	r0, #:upper16:.LANCHOR1
 1984 0010 FFF7FEFF 		bl	chMtxLock
 1985              	.LVL195:
 1986              		.loc 1 264 0
ARM GAS  /tmp/ccrPvhwR.s 			page 36


 1987 0014 1420     		movs	r0, #20
 1988 0016 FFF7FEFF 		bl	test_cpu_pulse
 1989              	.LVL196:
 1990              		.loc 1 265 0
 1991 001a 40F20000 		movw	r0, #:lower16:.LANCHOR2
 1992 001e C0F20000 		movt	r0, #:upper16:.LANCHOR2
 1993 0022 FFF7FEFF 		bl	chMtxLock
 1994              	.LVL197:
 1995              		.loc 1 266 0
 1996 0026 0A20     		movs	r0, #10
 1997 0028 FFF7FEFF 		bl	test_cpu_pulse
 1998              	.LVL198:
 1999              		.loc 1 267 0
 2000 002c FFF7FEFF 		bl	chMtxUnlock
 2001              	.LVL199:
 2002              		.loc 1 268 0
 2003 0030 0A20     		movs	r0, #10
 2004 0032 FFF7FEFF 		bl	test_cpu_pulse
 2005              	.LVL200:
 2006              		.loc 1 269 0
 2007 0036 FFF7FEFF 		bl	chMtxUnlock
 2008              	.LVL201:
 2009              		.loc 1 270 0
 2010 003a 4420     		movs	r0, #68
 2011 003c FFF7FEFF 		bl	test_emit_token
 2012              	.LVL202:
 2013              		.loc 1 272 0
 2014 0040 0020     		movs	r0, #0
 2015 0042 08BD     		pop	{r3, pc}
 2016              		.cfi_endproc
 2017              	.LFE17:
 2018              		.size	thread3L, .-thread3L
 2019 0044 AFF30080 		.section	.text.thread3LL,"ax",%progbits
 2019      AFF30080 
 2019      AFF30080 
 2020              		.align	2
 2021              		.p2align 4,,15
 2022              		.thumb
 2023              		.thumb_func
 2024              		.type	thread3LL, %function
 2025              	thread3LL:
 2026              	.LFB16:
 2027              		.loc 1 248 0
 2028              		.cfi_startproc
 2029              		@ args = 0, pretend = 0, frame = 0
 2030              		@ frame_needed = 0, uses_anonymous_args = 0
 2031              	.LVL203:
 2032              		.loc 1 251 0
 2033 0000 40F20000 		movw	r0, #:lower16:.LANCHOR2
 2034              	.LVL204:
 2035              		.loc 1 248 0
 2036 0004 08B5     		push	{r3, lr}
 2037              	.LCFI30:
 2038              		.cfi_def_cfa_offset 8
 2039              		.cfi_offset 3, -8
 2040              		.cfi_offset 14, -4
 2041              		.loc 1 251 0
ARM GAS  /tmp/ccrPvhwR.s 			page 37


 2042 0006 C0F20000 		movt	r0, #:upper16:.LANCHOR2
 2043 000a FFF7FEFF 		bl	chMtxLock
 2044              	.LVL205:
 2045              		.loc 1 252 0
 2046 000e 1E20     		movs	r0, #30
 2047 0010 FFF7FEFF 		bl	test_cpu_pulse
 2048              	.LVL206:
 2049              		.loc 1 253 0
 2050 0014 FFF7FEFF 		bl	chMtxUnlock
 2051              	.LVL207:
 2052              		.loc 1 254 0
 2053 0018 4520     		movs	r0, #69
 2054 001a FFF7FEFF 		bl	test_emit_token
 2055              	.LVL208:
 2056              		.loc 1 256 0
 2057 001e 0020     		movs	r0, #0
 2058 0020 08BD     		pop	{r3, pc}
 2059              		.cfi_endproc
 2060              	.LFE16:
 2061              		.size	thread3LL, .-thread3LL
 2062 0022 00BFAFF3 		.section	.text.thread2L,"ax",%progbits
 2062      0080AFF3 
 2062      0080AFF3 
 2062      0080
 2063              		.align	2
 2064              		.p2align 4,,15
 2065              		.thumb
 2066              		.thumb_func
 2067              		.type	thread2L, %function
 2068              	thread2L:
 2069              	.LFB11:
 2070              		.loc 1 157 0
 2071              		.cfi_startproc
 2072              		@ args = 0, pretend = 0, frame = 0
 2073              		@ frame_needed = 0, uses_anonymous_args = 0
 2074              	.LVL209:
 2075              		.loc 1 160 0
 2076 0000 40F20000 		movw	r0, #:lower16:.LANCHOR2
 2077              	.LVL210:
 2078              		.loc 1 157 0
 2079 0004 08B5     		push	{r3, lr}
 2080              	.LCFI31:
 2081              		.cfi_def_cfa_offset 8
 2082              		.cfi_offset 3, -8
 2083              		.cfi_offset 14, -4
 2084              		.loc 1 160 0
 2085 0006 C0F20000 		movt	r0, #:upper16:.LANCHOR2
 2086 000a FFF7FEFF 		bl	chMtxLock
 2087              	.LVL211:
 2088              		.loc 1 161 0
 2089 000e 2820     		movs	r0, #40
 2090 0010 FFF7FEFF 		bl	test_cpu_pulse
 2091              	.LVL212:
 2092              		.loc 1 162 0
 2093 0014 FFF7FEFF 		bl	chMtxUnlock
 2094              	.LVL213:
 2095              		.loc 1 163 0
ARM GAS  /tmp/ccrPvhwR.s 			page 38


 2096 0018 0A20     		movs	r0, #10
 2097 001a FFF7FEFF 		bl	test_cpu_pulse
 2098              	.LVL214:
 2099              		.loc 1 164 0
 2100 001e 4320     		movs	r0, #67
 2101 0020 FFF7FEFF 		bl	test_emit_token
 2102              	.LVL215:
 2103              		.loc 1 166 0
 2104 0024 0020     		movs	r0, #0
 2105 0026 08BD     		pop	{r3, pc}
 2106              		.cfi_endproc
 2107              	.LFE11:
 2108              		.size	thread2L, .-thread2L
 2109 0028 AFF30080 		.section	.text.thread2M,"ax",%progbits
 2109      AFF30080 
 2110              		.align	2
 2111              		.p2align 4,,15
 2112              		.thumb
 2113              		.thumb_func
 2114              		.type	thread2M, %function
 2115              	thread2M:
 2116              	.LFB12:
 2117              		.loc 1 169 0
 2118              		.cfi_startproc
 2119              		@ args = 0, pretend = 0, frame = 0
 2120              		@ frame_needed = 0, uses_anonymous_args = 0
 2121              	.LVL216:
 2122 0000 08B5     		push	{r3, lr}
 2123              	.LCFI32:
 2124              		.cfi_def_cfa_offset 8
 2125              		.cfi_offset 3, -8
 2126              		.cfi_offset 14, -4
 2127              		.loc 1 172 0
 2128 0002 1420     		movs	r0, #20
 2129              	.LVL217:
 2130 0004 FFF7FEFF 		bl	chThdSleep
 2131              	.LVL218:
 2132              		.loc 1 173 0
 2133 0008 2820     		movs	r0, #40
 2134 000a FFF7FEFF 		bl	test_cpu_pulse
 2135              	.LVL219:
 2136              		.loc 1 174 0
 2137 000e 4220     		movs	r0, #66
 2138 0010 FFF7FEFF 		bl	test_emit_token
 2139              	.LVL220:
 2140              		.loc 1 176 0
 2141 0014 0020     		movs	r0, #0
 2142 0016 08BD     		pop	{r3, pc}
 2143              		.cfi_endproc
 2144              	.LFE12:
 2145              		.size	thread2M, .-thread2M
 2146 0018 AFF30080 		.section	.text.thread2H,"ax",%progbits
 2146      AFF30080 
 2147              		.align	2
 2148              		.p2align 4,,15
 2149              		.thumb
 2150              		.thumb_func
ARM GAS  /tmp/ccrPvhwR.s 			page 39


 2151              		.type	thread2H, %function
 2152              	thread2H:
 2153              	.LFB13:
 2154              		.loc 1 179 0
 2155              		.cfi_startproc
 2156              		@ args = 0, pretend = 0, frame = 0
 2157              		@ frame_needed = 0, uses_anonymous_args = 0
 2158              	.LVL221:
 2159 0000 08B5     		push	{r3, lr}
 2160              	.LCFI33:
 2161              		.cfi_def_cfa_offset 8
 2162              		.cfi_offset 3, -8
 2163              		.cfi_offset 14, -4
 2164              		.loc 1 182 0
 2165 0002 2820     		movs	r0, #40
 2166              	.LVL222:
 2167 0004 FFF7FEFF 		bl	chThdSleep
 2168              	.LVL223:
 2169              		.loc 1 183 0
 2170 0008 40F20000 		movw	r0, #:lower16:.LANCHOR2
 2171 000c C0F20000 		movt	r0, #:upper16:.LANCHOR2
 2172 0010 FFF7FEFF 		bl	chMtxLock
 2173              	.LVL224:
 2174              		.loc 1 184 0
 2175 0014 0A20     		movs	r0, #10
 2176 0016 FFF7FEFF 		bl	test_cpu_pulse
 2177              	.LVL225:
 2178              		.loc 1 185 0
 2179 001a FFF7FEFF 		bl	chMtxUnlock
 2180              	.LVL226:
 2181              		.loc 1 186 0
 2182 001e 4120     		movs	r0, #65
 2183 0020 FFF7FEFF 		bl	test_emit_token
 2184              	.LVL227:
 2185              		.loc 1 188 0
 2186 0024 0020     		movs	r0, #0
 2187 0026 08BD     		pop	{r3, pc}
 2188              		.cfi_endproc
 2189              	.LFE13:
 2190              		.size	thread2H, .-thread2H
 2191              		.global	patternmtx
 2192              		.global	testmtx8
 2193              		.global	testmtx7
 2194              		.global	testmtx6
 2195              		.global	testmtx5
 2196              		.global	testmtx4
 2197              		.global	testmtx3
 2198              		.global	testmtx2
 2199              		.global	testmtx1
 2200 0028 AFF30080 		.section	.rodata.testmtx5,"a",%progbits
 2200      AFF30080 
 2201              		.align	2
 2202              		.type	testmtx5, %object
 2203              		.size	testmtx5, 16
 2204              	testmtx5:
 2205 0000 64000000 		.word	.LC10
 2206 0004 00000000 		.word	mtx5_setup
ARM GAS  /tmp/ccrPvhwR.s 			page 40


 2207 0008 00000000 		.word	0
 2208 000c 00000000 		.word	mtx5_execute
 2209              		.section	.rodata.testmtx6,"a",%progbits
 2210              		.align	2
 2211              		.type	testmtx6, %object
 2212              		.size	testmtx6, 16
 2213              	testmtx6:
 2214 0000 4C000000 		.word	.LC9
 2215 0004 00000000 		.word	mtx6_setup
 2216 0008 00000000 		.word	0
 2217 000c 00000000 		.word	mtx6_execute
 2218              		.section	.rodata.testmtx7,"a",%progbits
 2219              		.align	2
 2220              		.type	testmtx7, %object
 2221              		.size	testmtx7, 16
 2222              	testmtx7:
 2223 0000 34000000 		.word	.LC8
 2224 0004 00000000 		.word	mtx7_setup
 2225 0008 00000000 		.word	0
 2226 000c 00000000 		.word	mtx7_execute
 2227              		.section	.rodata.testmtx8,"a",%progbits
 2228              		.align	2
 2229              		.type	testmtx8, %object
 2230              		.size	testmtx8, 16
 2231              	testmtx8:
 2232 0000 20000000 		.word	.LC7
 2233 0004 00000000 		.word	mtx8_setup
 2234 0008 00000000 		.word	0
 2235 000c 00000000 		.word	mtx8_execute
 2236              		.section	.data.m1,"aw",%progbits
 2237              		.align	2
 2238              		.set	.LANCHOR2,. + 0
 2239              		.type	m1, %object
 2240              		.size	m1, 16
 2241              	m1:
 2242 0000 00000000 		.word	m1
 2243 0004 00000000 		.word	m1
 2244 0008 00000000 		.word	0
 2245 000c 00000000 		.word	0
 2246              		.section	.data.m2,"aw",%progbits
 2247              		.align	2
 2248              		.set	.LANCHOR1,. + 0
 2249              		.type	m2, %object
 2250              		.size	m2, 16
 2251              	m2:
 2252 0000 00000000 		.word	m2
 2253 0004 00000000 		.word	m2
 2254 0008 00000000 		.word	0
 2255 000c 00000000 		.word	0
 2256              		.section	.rodata.str1.4,"aMS",%progbits,1
 2257              		.align	2
 2258              	.LC0:
 2259 0000 4100     		.ascii	"A\000"
 2260 0002 0000     		.space	2
 2261              	.LC1:
 2262 0004 4300     		.ascii	"C\000"
 2263 0006 0000     		.space	2
ARM GAS  /tmp/ccrPvhwR.s 			page 41


 2264              	.LC2:
 2265 0008 4200     		.ascii	"B\000"
 2266 000a 0000     		.space	2
 2267              	.LC3:
 2268 000c 41424300 		.ascii	"ABC\000"
 2269              	.LC4:
 2270 0010 4500     		.ascii	"E\000"
 2271 0012 0000     		.space	2
 2272              	.LC5:
 2273 0014 4400     		.ascii	"D\000"
 2274 0016 0000     		.space	2
 2275              	.LC6:
 2276 0018 41424344 		.ascii	"ABCDE\000"
 2276      4500
 2277 001e 0000     		.space	2
 2278              	.LC7:
 2279 0020 436F6E64 		.ascii	"CondVar, boost test\000"
 2279      5661722C 
 2279      20626F6F 
 2279      73742074 
 2279      65737400 
 2280              	.LC8:
 2281 0034 436F6E64 		.ascii	"CondVar, broadcast test\000"
 2281      5661722C 
 2281      2062726F 
 2281      61646361 
 2281      73742074 
 2282              	.LC9:
 2283 004c 436F6E64 		.ascii	"CondVar, signal test\000"
 2283      5661722C 
 2283      20736967 
 2283      6E616C20 
 2283      74657374 
 2284 0061 000000   		.space	3
 2285              	.LC10:
 2286 0064 4D757465 		.ascii	"Mutexes, status\000"
 2286      7865732C 
 2286      20737461 
 2286      74757300 
 2287              	.LC11:
 2288 0074 4D757465 		.ascii	"Mutexes, priority return\000"
 2288      7865732C 
 2288      20707269 
 2288      6F726974 
 2288      79207265 
 2289 008d 000000   		.space	3
 2290              	.LC12:
 2291 0090 4D757465 		.ascii	"Mutexes, priority inheritance, complex case\000"
 2291      7865732C 
 2291      20707269 
 2291      6F726974 
 2291      7920696E 
 2292              	.LC13:
 2293 00bc 4D757465 		.ascii	"Mutexes, priority inheritance, simple case\000"
 2293      7865732C 
 2293      20707269 
 2293      6F726974 
ARM GAS  /tmp/ccrPvhwR.s 			page 42


 2293      7920696E 
 2294 00e7 00       		.space	1
 2295              	.LC14:
 2296 00e8 4D757465 		.ascii	"Mutexes, priority enqueuing test\000"
 2296      7865732C 
 2296      20707269 
 2296      6F726974 
 2296      7920656E 
 2297 0109 000000   		.section	.rodata.patternmtx,"a",%progbits
 2298              		.align	2
 2299              		.type	patternmtx, %object
 2300              		.size	patternmtx, 36
 2301              	patternmtx:
 2302 0000 00000000 		.word	testmtx1
 2303 0004 00000000 		.word	testmtx2
 2304 0008 00000000 		.word	testmtx3
 2305 000c 00000000 		.word	testmtx4
 2306 0010 00000000 		.word	testmtx5
 2307 0014 00000000 		.word	testmtx6
 2308 0018 00000000 		.word	testmtx7
 2309 001c 00000000 		.word	testmtx8
 2310 0020 00000000 		.word	0
 2311              		.section	.data.c1,"aw",%progbits
 2312              		.align	2
 2313              		.set	.LANCHOR0,. + 0
 2314              		.type	c1, %object
 2315              		.size	c1, 8
 2316              	c1:
 2317 0000 00000000 		.word	c1
 2318 0004 00000000 		.word	c1
 2319              		.section	.rodata.testmtx1,"a",%progbits
 2320              		.align	2
 2321              		.type	testmtx1, %object
 2322              		.size	testmtx1, 16
 2323              	testmtx1:
 2324 0000 E8000000 		.word	.LC14
 2325 0004 00000000 		.word	mtx1_setup
 2326 0008 00000000 		.word	0
 2327 000c 00000000 		.word	mtx1_execute
 2328              		.section	.rodata.testmtx2,"a",%progbits
 2329              		.align	2
 2330              		.type	testmtx2, %object
 2331              		.size	testmtx2, 16
 2332              	testmtx2:
 2333 0000 BC000000 		.word	.LC13
 2334 0004 00000000 		.word	mtx2_setup
 2335 0008 00000000 		.word	0
 2336 000c 00000000 		.word	mtx2_execute
 2337              		.section	.rodata.testmtx3,"a",%progbits
 2338              		.align	2
 2339              		.type	testmtx3, %object
 2340              		.size	testmtx3, 16
 2341              	testmtx3:
 2342 0000 90000000 		.word	.LC12
 2343 0004 00000000 		.word	mtx3_setup
 2344 0008 00000000 		.word	0
 2345 000c 00000000 		.word	mtx3_execute
ARM GAS  /tmp/ccrPvhwR.s 			page 43


 2346              		.section	.rodata.testmtx4,"a",%progbits
 2347              		.align	2
 2348              		.type	testmtx4, %object
 2349              		.size	testmtx4, 16
 2350              	testmtx4:
 2351 0000 74000000 		.word	.LC11
 2352 0004 00000000 		.word	mtx4_setup
 2353 0008 00000000 		.word	0
 2354 000c 00000000 		.word	mtx4_execute
 2355              		.text
 2356              	.Letext0:
 2357              		.file 2 "/opt/tools_arm/lib/gcc/arm-none-eabi/4.7.3/include/stddef.h"
 2358              		.file 3 "/opt/tools_arm/lib/gcc/arm-none-eabi/4.7.3/../../../../arm-none-eabi/include/stdint.h"
 2359              		.file 4 "/home/felix/Documents/ChibiOS/os/ports/GCC/ARMCMx/chtypes.h"
 2360              		.file 5 "/home/felix/Documents/ChibiOS/os/kernel/include/chlists.h"
 2361              		.file 6 "/home/felix/Documents/ChibiOS/os/kernel/include/chthreads.h"
 2362              		.file 7 "/home/felix/Documents/ChibiOS/os/ports/GCC/ARMCMx/chcore_v7m.h"
 2363              		.file 8 "/home/felix/Documents/ChibiOS/os/kernel/include/chvt.h"
 2364              		.file 9 "/home/felix/Documents/ChibiOS/os/kernel/include/chschd.h"
 2365              		.file 10 "/home/felix/Documents/ChibiOS/os/kernel/include/chmtx.h"
 2366              		.file 11 "/home/felix/Documents/ChibiOS/os/kernel/include/chcond.h"
 2367              		.file 12 "/home/felix/Documents/ChibiOS/test/test.h"