ARM GAS  /tmp/ccr5FXCl.s 			page 1


   1              		.syntax unified
   2              		.cpu cortex-m4
   3              		.fpu softvfp
   4              		.eabi_attribute 20, 1
   5              		.eabi_attribute 21, 1
   6              		.eabi_attribute 23, 3
   7              		.eabi_attribute 24, 1
   8              		.eabi_attribute 25, 1
   9              		.eabi_attribute 26, 1
  10              		.eabi_attribute 30, 2
  11              		.eabi_attribute 34, 1
  12              		.eabi_attribute 18, 4
  13              		.thumb
  14              		.file	"testevt.c"
  15              		.text
  16              	.Ltext0:
  17              		.cfi_sections	.debug_frame
  18              		.section	.text.evt3_setup,"ax",%progbits
  19              		.align	2
  20              		.p2align 4,,15
  21              		.thumb
  22              		.thumb_func
  23              		.type	evt3_setup, %function
  24              	evt3_setup:
  25              	.LFB16:
  26              		.file 1 "/home/felix/Documents/ChibiOS/test/testevt.c"
  27              		.loc 1 247 0
  28              		.cfi_startproc
  29              		@ args = 0, pretend = 0, frame = 0
  30              		@ frame_needed = 0, uses_anonymous_args = 0
  31              		@ link register save eliminated.
  32              		.loc 1 249 0
  33 0000 4FF0FF30 		mov	r0, #-1
  34              		.loc 1 250 0
  35              		.loc 1 249 0
  36 0004 FFF7FEBF 		b	chEvtGetAndClearEvents
  37              	.LVL0:
  38              		.cfi_endproc
  39              	.LFE16:
  40              		.size	evt3_setup, .-evt3_setup
  41 0008 AFF30080 		.section	.text.evt2_setup,"ax",%progbits
  41      AFF30080 
  42              		.align	2
  43              		.p2align 4,,15
  44              		.thumb
  45              		.thumb_func
  46              		.type	evt2_setup, %function
  47              	evt2_setup:
  48              	.LFB12:
  49              		.loc 1 128 0
  50              		.cfi_startproc
  51              		@ args = 0, pretend = 0, frame = 0
  52              		@ frame_needed = 0, uses_anonymous_args = 0
  53              		@ link register save eliminated.
  54              		.loc 1 130 0
  55 0000 4FF0FF30 		mov	r0, #-1
  56              		.loc 1 131 0
ARM GAS  /tmp/ccr5FXCl.s 			page 2


  57              		.loc 1 130 0
  58 0004 FFF7FEBF 		b	chEvtGetAndClearEvents
  59              	.LVL1:
  60              		.cfi_endproc
  61              	.LFE12:
  62              		.size	evt2_setup, .-evt2_setup
  63 0008 AFF30080 		.section	.text.evt1_setup,"ax",%progbits
  63      AFF30080 
  64              		.align	2
  65              		.p2align 4,,15
  66              		.thumb
  67              		.thumb_func
  68              		.type	evt1_setup, %function
  69              	evt1_setup:
  70              	.LFB7:
  71              		.loc 1 75 0
  72              		.cfi_startproc
  73              		@ args = 0, pretend = 0, frame = 0
  74              		@ frame_needed = 0, uses_anonymous_args = 0
  75              		@ link register save eliminated.
  76              		.loc 1 77 0
  77 0000 4FF0FF30 		mov	r0, #-1
  78              		.loc 1 78 0
  79              		.loc 1 77 0
  80 0004 FFF7FEBF 		b	chEvtGetAndClearEvents
  81              	.LVL2:
  82              		.cfi_endproc
  83              	.LFE7:
  84              		.size	evt1_setup, .-evt1_setup
  85 0008 AFF30080 		.section	.text.evt2_execute,"ax",%progbits
  85      AFF30080 
  86              		.align	2
  87              		.p2align 4,,15
  88              		.thumb
  89              		.thumb_func
  90              		.type	evt2_execute, %function
  91              	evt2_execute:
  92              	.LFB15:
  93              		.loc 1 149 0
  94              		.cfi_startproc
  95              		@ args = 0, pretend = 0, frame = 40
  96              		@ frame_needed = 0, uses_anonymous_args = 0
  97 0000 2DE9F042 		push	{r4, r5, r6, r7, r9, lr}
  98              	.LCFI0:
  99              		.cfi_def_cfa_offset 24
 100              		.cfi_offset 4, -24
 101              		.cfi_offset 5, -20
 102              		.cfi_offset 6, -16
 103              		.cfi_offset 7, -12
 104              		.cfi_offset 9, -8
 105              		.cfi_offset 14, -4
 106              		.loc 1 157 0
 107 0004 0520     		movs	r0, #5
 108              		.loc 1 149 0
 109 0006 8CB0     		sub	sp, sp, #48
 110              	.LCFI1:
 111              		.cfi_def_cfa_offset 72
ARM GAS  /tmp/ccr5FXCl.s 			page 3


 112              		.loc 1 157 0
 113 0008 FFF7FEFF 		bl	chEvtAddEvents
 114              	.LVL3:
 115              		.loc 1 158 0
 116 000c 4FF0FF30 		mov	r0, #-1
 117 0010 FFF7FEFF 		bl	chEvtWaitOne
 118              	.LVL4:
 119              		.loc 1 159 0
 120 0014 421E     		subs	r2, r0, #1
 121 0016 5142     		rsbs	r1, r2, #0
 122 0018 5141     		adcs	r1, r1, r2
 123 001a 0120     		movs	r0, #1
 124              	.LVL5:
 125 001c FFF7FEFF 		bl	_test_assert
 126              	.LVL6:
 127 0020 10B1     		cbz	r0, .L8
 128              	.L4:
 129              		.loc 1 222 0
 130 0022 0CB0     		add	sp, sp, #48
 131 0024 BDE8F082 		pop	{r4, r5, r6, r7, r9, pc}
 132              	.L8:
 133              		.loc 1 160 0
 134 0028 4FF0FF30 		mov	r0, #-1
 135 002c FFF7FEFF 		bl	chEvtWaitOne
 136              	.LVL7:
 137              		.loc 1 161 0
 138 0030 031F     		subs	r3, r0, #4
 139 0032 5942     		rsbs	r1, r3, #0
 140 0034 5941     		adcs	r1, r1, r3
 141 0036 0220     		movs	r0, #2
 142              	.LVL8:
 143 0038 FFF7FEFF 		bl	_test_assert
 144              	.LVL9:
 145 003c 0028     		cmp	r0, #0
 146 003e F0D1     		bne	.L4
 147              		.loc 1 162 0
 148 0040 4FF0FF30 		mov	r0, #-1
 149 0044 FFF7FEFF 		bl	chEvtGetAndClearEvents
 150              	.LVL10:
 151              		.loc 1 163 0
 152 0048 D0F10101 		rsbs	r1, r0, #1
 153 004c 38BF     		it	cc
 154 004e 0021     		movcc	r1, #0
 155 0050 0320     		movs	r0, #3
 156              	.LVL11:
 157 0052 FFF7FEFF 		bl	_test_assert
 158              	.LVL12:
 159 0056 0028     		cmp	r0, #0
 160 0058 E3D1     		bne	.L4
 161              		.loc 1 170 0
 162 005a 754D     		ldr	r5, .L9
 163              		.loc 1 169 0
 164 005c 754F     		ldr	r7, .L9+4
 165              		.loc 1 170 0
 166 005e 764E     		ldr	r6, .L9+8
 167              		.loc 1 168 0
 168 0060 FFF7FEFF 		bl	test_wait_tick
ARM GAS  /tmp/ccr5FXCl.s 			page 4


 169              	.LVL13:
 170              		.loc 1 170 0
 171 0064 AB69     		ldr	r3, [r5, #24]
 172 0066 7549     		ldr	r1, .L9+12
 173 0068 9A68     		ldr	r2, [r3, #8]
 174 006a 0968     		ldr	r1, [r1, #0]
 175 006c 0093     		str	r3, [sp, #0]
 176 006e 013A     		subs	r2, r2, #1
 177 0070 0391     		str	r1, [sp, #12]
 178 0072 0846     		mov	r0, r1
 179 0074 724B     		ldr	r3, .L9+16
 180              		.loc 1 169 0
 181 0076 FC68     		ldr	r4, [r7, #12]
 182              	.LVL14:
 183              		.loc 1 170 0
 184 0078 4FF49871 		mov	r1, #304
 185 007c FFF7FEFF 		bl	chThdCreateStatic
 186              	.LVL15:
 187 0080 3060     		str	r0, [r6, #0]
 188              		.loc 1 172 0
 189 0082 4FF0FF30 		mov	r0, #-1
 190 0086 FFF7FEFF 		bl	chEvtWaitOne
 191              	.LVL16:
 192              		.loc 1 173 0
 193 008a 04F13201 		add	r1, r4, #50
 194              	.LVL17:
 195              		.loc 1 172 0
 196 008e 8146     		mov	r9, r0
 197              	.LVL18:
 198              		.loc 1 173 0
 199 0090 04F13702 		add	r2, r4, #55
 200 0094 0420     		movs	r0, #4
 201              	.LVL19:
 202 0096 FFF7FEFF 		bl	_test_assert_time_window
 203              	.LVL20:
 204 009a 0028     		cmp	r0, #0
 205 009c C1D1     		bne	.L4
 206              		.loc 1 174 0
 207 009e B9F1010C 		subs	ip, r9, #1
 208 00a2 DCF10001 		rsbs	r1, ip, #0
 209 00a6 51EB0C01 		adcs	r1, r1, ip
 210 00aa 0520     		movs	r0, #5
 211 00ac FFF7FEFF 		bl	_test_assert
 212              	.LVL21:
 213 00b0 0028     		cmp	r0, #0
 214 00b2 B6D1     		bne	.L4
 215              		.loc 1 175 0
 216 00b4 4FF0FF30 		mov	r0, #-1
 217 00b8 FFF7FEFF 		bl	chEvtGetAndClearEvents
 218              	.LVL22:
 219              		.loc 1 176 0
 220 00bc D0F10101 		rsbs	r1, r0, #1
 221 00c0 38BF     		it	cc
 222 00c2 0021     		movcc	r1, #0
 223 00c4 0620     		movs	r0, #6
 224              	.LVL23:
 225 00c6 FFF7FEFF 		bl	_test_assert
ARM GAS  /tmp/ccr5FXCl.s 			page 5


 226              	.LVL24:
 227 00ca 0028     		cmp	r0, #0
 228 00cc A9D1     		bne	.L4
 229              		.loc 1 177 0
 230 00ce FFF7FEFF 		bl	test_wait_threads
 231              	.LVL25:
 232              		.loc 1 182 0
 233 00d2 0520     		movs	r0, #5
 234 00d4 FFF7FEFF 		bl	chEvtAddEvents
 235              	.LVL26:
 236              		.loc 1 183 0
 237 00d8 4FF0FF30 		mov	r0, #-1
 238 00dc FFF7FEFF 		bl	chEvtWaitAny
 239              	.LVL27:
 240              		.loc 1 184 0
 241 00e0 B0F1050E 		subs	lr, r0, #5
 242 00e4 DEF10001 		rsbs	r1, lr, #0
 243 00e8 51EB0E01 		adcs	r1, r1, lr
 244 00ec 0720     		movs	r0, #7
 245              	.LVL28:
 246 00ee FFF7FEFF 		bl	_test_assert
 247              	.LVL29:
 248 00f2 0028     		cmp	r0, #0
 249 00f4 95D1     		bne	.L4
 250              		.loc 1 185 0
 251 00f6 4FF0FF30 		mov	r0, #-1
 252 00fa FFF7FEFF 		bl	chEvtGetAndClearEvents
 253              	.LVL30:
 254              		.loc 1 186 0
 255 00fe D0F10101 		rsbs	r1, r0, #1
 256 0102 38BF     		it	cc
 257 0104 0021     		movcc	r1, #0
 258 0106 0820     		movs	r0, #8
 259              	.LVL31:
 260 0108 FFF7FEFF 		bl	_test_assert
 261              	.LVL32:
 262 010c 0028     		cmp	r0, #0
 263 010e 88D1     		bne	.L4
 264              		.loc 1 191 0
 265 0110 FFF7FEFF 		bl	test_wait_tick
 266              	.LVL33:
 267              		.loc 1 193 0
 268 0114 A969     		ldr	r1, [r5, #24]
 269 0116 4A4B     		ldr	r3, .L9+16
 270 0118 8A68     		ldr	r2, [r1, #8]
 271 011a 0398     		ldr	r0, [sp, #12]
 272 011c 0091     		str	r1, [sp, #0]
 273 011e 013A     		subs	r2, r2, #1
 274 0120 4FF49871 		mov	r1, #304
 275              		.loc 1 192 0
 276 0124 FC68     		ldr	r4, [r7, #12]
 277              	.LVL34:
 278              		.loc 1 193 0
 279 0126 FFF7FEFF 		bl	chThdCreateStatic
 280              	.LVL35:
 281 012a 3060     		str	r0, [r6, #0]
 282              		.loc 1 195 0
ARM GAS  /tmp/ccr5FXCl.s 			page 6


 283 012c 4FF0FF30 		mov	r0, #-1
 284 0130 FFF7FEFF 		bl	chEvtWaitAny
 285              	.LVL36:
 286              		.loc 1 196 0
 287 0134 04F13201 		add	r1, r4, #50
 288              	.LVL37:
 289              		.loc 1 195 0
 290 0138 8146     		mov	r9, r0
 291              	.LVL38:
 292              		.loc 1 196 0
 293 013a 04F13702 		add	r2, r4, #55
 294 013e 0920     		movs	r0, #9
 295              	.LVL39:
 296 0140 FFF7FEFF 		bl	_test_assert_time_window
 297              	.LVL40:
 298 0144 0028     		cmp	r0, #0
 299 0146 7FF46CAF 		bne	.L4
 300              		.loc 1 197 0
 301 014a B9F10100 		subs	r0, r9, #1
 302 014e 4142     		rsbs	r1, r0, #0
 303 0150 4141     		adcs	r1, r1, r0
 304 0152 0A20     		movs	r0, #10
 305 0154 FFF7FEFF 		bl	_test_assert
 306              	.LVL41:
 307 0158 0028     		cmp	r0, #0
 308 015a 7FF462AF 		bne	.L4
 309              		.loc 1 198 0
 310 015e 4FF0FF30 		mov	r0, #-1
 311 0162 FFF7FEFF 		bl	chEvtGetAndClearEvents
 312              	.LVL42:
 313              		.loc 1 199 0
 314 0166 D0F10101 		rsbs	r1, r0, #1
 315 016a 38BF     		it	cc
 316 016c 0021     		movcc	r1, #0
 317 016e 0B20     		movs	r0, #11
 318              	.LVL43:
 319 0170 FFF7FEFF 		bl	_test_assert
 320              	.LVL44:
 321 0174 0028     		cmp	r0, #0
 322 0176 7FF454AF 		bne	.L4
 323              		.loc 1 205 0
 324 017a DFF8D490 		ldr	r9, .L9+32
 325              		.loc 1 206 0
 326 017e 314C     		ldr	r4, .L9+20
 327              	.LVL45:
 328              		.loc 1 200 0
 329 0180 FFF7FEFF 		bl	test_wait_threads
 330              	.LVL46:
 331              		.loc 1 207 0
 332 0184 4846     		mov	r0, r9
 333 0186 04A9     		add	r1, sp, #16
 334 0188 0122     		movs	r2, #1
 335              		.loc 1 205 0
 336 018a C9F80090 		str	r9, [r9, #0]
 337              		.loc 1 206 0
 338 018e 2460     		str	r4, [r4, #0]
 339              		.loc 1 207 0
ARM GAS  /tmp/ccr5FXCl.s 			page 7


 340 0190 FFF7FEFF 		bl	chEvtRegisterMask
 341              	.LVL47:
 342              		.loc 1 208 0
 343 0194 08A9     		add	r1, sp, #32
 344 0196 0422     		movs	r2, #4
 345 0198 2046     		mov	r0, r4
 346 019a FFF7FEFF 		bl	chEvtRegisterMask
 347              	.LVL48:
 348              		.loc 1 209 0
 349 019e FFF7FEFF 		bl	test_wait_tick
 350              	.LVL49:
 351              		.loc 1 211 0
 352 01a2 AB69     		ldr	r3, [r5, #24]
 353 01a4 2849     		ldr	r1, .L9+24
 354 01a6 9A68     		ldr	r2, [r3, #8]
 355 01a8 0398     		ldr	r0, [sp, #12]
 356 01aa 0091     		str	r1, [sp, #0]
 357 01ac 013A     		subs	r2, r2, #1
 358 01ae 4FF49871 		mov	r1, #304
 359 01b2 264B     		ldr	r3, .L9+28
 360              		.loc 1 210 0
 361 01b4 FD68     		ldr	r5, [r7, #12]
 362              	.LVL50:
 363              		.loc 1 211 0
 364 01b6 FFF7FEFF 		bl	chThdCreateStatic
 365              	.LVL51:
 366 01ba 3060     		str	r0, [r6, #0]
 367              		.loc 1 213 0
 368 01bc 0520     		movs	r0, #5
 369 01be FFF7FEFF 		bl	chEvtWaitAll
 370              	.LVL52:
 371              		.loc 1 214 0
 372 01c2 05F13201 		add	r1, r5, #50
 373              	.LVL53:
 374 01c6 05F13702 		add	r2, r5, #55
 375 01ca 0C20     		movs	r0, #12
 376 01cc FFF7FEFF 		bl	_test_assert_time_window
 377              	.LVL54:
 378 01d0 0028     		cmp	r0, #0
 379 01d2 7FF426AF 		bne	.L4
 380              		.loc 1 215 0
 381 01d6 4FF0FF30 		mov	r0, #-1
 382 01da FFF7FEFF 		bl	chEvtGetAndClearEvents
 383              	.LVL55:
 384              		.loc 1 216 0
 385 01de D0F10101 		rsbs	r1, r0, #1
 386 01e2 38BF     		it	cc
 387 01e4 0021     		movcc	r1, #0
 388 01e6 0D20     		movs	r0, #13
 389              	.LVL56:
 390 01e8 FFF7FEFF 		bl	_test_assert
 391              	.LVL57:
 392 01ec 0028     		cmp	r0, #0
 393 01ee 7FF418AF 		bne	.L4
 394              		.loc 1 217 0
 395 01f2 FFF7FEFF 		bl	test_wait_threads
 396              	.LVL58:
ARM GAS  /tmp/ccr5FXCl.s 			page 8


 397              		.loc 1 218 0
 398 01f6 4846     		mov	r0, r9
 399 01f8 04A9     		add	r1, sp, #16
 400 01fa FFF7FEFF 		bl	chEvtUnregister
 401              	.LVL59:
 402              		.loc 1 219 0
 403 01fe 2046     		mov	r0, r4
 404 0200 08A9     		add	r1, sp, #32
 405 0202 FFF7FEFF 		bl	chEvtUnregister
 406              	.LVL60:
 407              		.loc 1 220 0
 408 0206 D9F80010 		ldr	r1, [r9, #0]
 409 020a B1EB0902 		subs	r2, r1, r9
 410 020e 5142     		rsbs	r1, r2, #0
 411 0210 5141     		adcs	r1, r1, r2
 412 0212 0E20     		movs	r0, #14
 413 0214 FFF7FEFF 		bl	_test_assert
 414              	.LVL61:
 415 0218 0028     		cmp	r0, #0
 416 021a 7FF402AF 		bne	.L4
 417              		.loc 1 221 0
 418 021e 2168     		ldr	r1, [r4, #0]
 419 0220 0B1B     		subs	r3, r1, r4
 420 0222 5942     		rsbs	r1, r3, #0
 421 0224 5941     		adcs	r1, r1, r3
 422 0226 0F20     		movs	r0, #15
 423 0228 FFF7FEFF 		bl	_test_assert
 424              	.LVL62:
 425 022c F9E6     		b	.L4
 426              	.L10:
 427 022e 00BF     		.align	2
 428              	.L9:
 429 0230 00000000 		.word	rlist
 430 0234 00000000 		.word	vtlist
 431 0238 00000000 		.word	threads
 432 023c 00000000 		.word	wa
 433 0240 00000000 		.word	thread1
 434 0244 00000000 		.word	.LANCHOR1
 435 0248 00000000 		.word	.LC0
 436 024c 00000000 		.word	thread2
 437 0250 00000000 		.word	.LANCHOR0
 438              		.cfi_endproc
 439              	.LFE15:
 440              		.size	evt2_execute, .-evt2_execute
 441 0254 AFF30080 		.section	.text.thread2,"ax",%progbits
 441      AFF30080 
 441      AFF30080 
 442              		.align	2
 443              		.p2align 4,,15
 444              		.thumb
 445              		.thumb_func
 446              		.type	thread2, %function
 447              	thread2:
 448              	.LFB14:
 449              		.loc 1 140 0
 450              		.cfi_startproc
 451              		@ args = 0, pretend = 0, frame = 0
ARM GAS  /tmp/ccr5FXCl.s 			page 9


 452              		@ frame_needed = 0, uses_anonymous_args = 0
 453              	.LVL63:
 454              		.loc 1 143 0
 455 0000 40F20000 		movw	r0, #:lower16:.LANCHOR0
 456              	.LVL64:
 457              		.loc 1 140 0
 458 0004 08B5     		push	{r3, lr}
 459              	.LCFI2:
 460              		.cfi_def_cfa_offset 8
 461              		.cfi_offset 3, -8
 462              		.cfi_offset 14, -4
 463              		.loc 1 143 0
 464 0006 0021     		movs	r1, #0
 465 0008 C0F20000 		movt	r0, #:upper16:.LANCHOR0
 466 000c FFF7FEFF 		bl	chEvtBroadcastFlags
 467              	.LVL65:
 468              		.loc 1 144 0
 469 0010 3220     		movs	r0, #50
 470 0012 FFF7FEFF 		bl	chThdSleep
 471              	.LVL66:
 472              		.loc 1 145 0
 473 0016 40F20000 		movw	r0, #:lower16:.LANCHOR1
 474 001a C0F20000 		movt	r0, #:upper16:.LANCHOR1
 475 001e 0021     		movs	r1, #0
 476 0020 FFF7FEFF 		bl	chEvtBroadcastFlags
 477              	.LVL67:
 478              		.loc 1 147 0
 479 0024 0020     		movs	r0, #0
 480 0026 08BD     		pop	{r3, pc}
 481              		.cfi_endproc
 482              	.LFE14:
 483              		.size	thread2, .-thread2
 484 0028 AFF30080 		.section	.text.thread1,"ax",%progbits
 484      AFF30080 
 485              		.align	2
 486              		.p2align 4,,15
 487              		.thumb
 488              		.thumb_func
 489              		.type	thread1, %function
 490              	thread1:
 491              	.LFB13:
 492              		.loc 1 133 0
 493              		.cfi_startproc
 494              		@ args = 0, pretend = 0, frame = 0
 495              		@ frame_needed = 0, uses_anonymous_args = 0
 496              	.LVL68:
 497 0000 10B5     		push	{r4, lr}
 498              	.LCFI3:
 499              		.cfi_def_cfa_offset 8
 500              		.cfi_offset 4, -8
 501              		.cfi_offset 14, -4
 502              		.loc 1 133 0
 503 0002 0446     		mov	r4, r0
 504              		.loc 1 135 0
 505 0004 3220     		movs	r0, #50
 506              	.LVL69:
 507 0006 FFF7FEFF 		bl	chThdSleep
ARM GAS  /tmp/ccr5FXCl.s 			page 10


 508              	.LVL70:
 509              		.loc 1 136 0
 510 000a 2046     		mov	r0, r4
 511 000c 0121     		movs	r1, #1
 512 000e FFF7FEFF 		bl	chEvtSignal
 513              	.LVL71:
 514              		.loc 1 138 0
 515 0012 0020     		movs	r0, #0
 516 0014 10BD     		pop	{r4, pc}
 517              		.cfi_endproc
 518              	.LFE13:
 519              		.size	thread1, .-thread1
 520 0016 00BFAFF3 		.section	.text.evt1_execute,"ax",%progbits
 520      0080AFF3 
 520      0080
 521              		.align	2
 522              		.p2align 4,,15
 523              		.thumb
 524              		.thumb_func
 525              		.type	evt1_execute, %function
 526              	evt1_execute:
 527              	.LFB11:
 528              		.loc 1 85 0
 529              		.cfi_startproc
 530              		@ args = 0, pretend = 0, frame = 32
 531              		@ frame_needed = 0, uses_anonymous_args = 0
 532 0000 10B5     		push	{r4, lr}
 533              	.LCFI4:
 534              		.cfi_def_cfa_offset 8
 535              		.cfi_offset 4, -8
 536              		.cfi_offset 14, -4
 537              		.loc 1 91 0
 538 0002 1E4C     		ldr	r4, .L17
 539              		.loc 1 85 0
 540 0004 88B0     		sub	sp, sp, #32
 541              	.LCFI5:
 542              		.cfi_def_cfa_offset 40
 543              		.loc 1 92 0
 544 0006 2046     		mov	r0, r4
 545 0008 6946     		mov	r1, sp
 546 000a 0122     		movs	r2, #1
 547              		.loc 1 91 0
 548 000c 2460     		str	r4, [r4, #0]
 549              		.loc 1 92 0
 550 000e FFF7FEFF 		bl	chEvtRegisterMask
 551              	.LVL72:
 552              		.loc 1 93 0
 553 0012 2046     		mov	r0, r4
 554 0014 04A9     		add	r1, sp, #16
 555 0016 0222     		movs	r2, #2
 556 0018 FFF7FEFF 		bl	chEvtRegisterMask
 557              	.LVL73:
 558              		.loc 1 94 0
 559 001c 2168     		ldr	r1, [r4, #0]
 560 001e 091B     		subs	r1, r1, r4
 561 0020 18BF     		it	ne
 562 0022 0121     		movne	r1, #1
ARM GAS  /tmp/ccr5FXCl.s 			page 11


 563 0024 0120     		movs	r0, #1
 564 0026 FFF7FEFF 		bl	_test_assert
 565              	.LVL74:
 566 002a 08B1     		cbz	r0, .L16
 567              	.L13:
 568              		.loc 1 105 0
 569 002c 08B0     		add	sp, sp, #32
 570 002e 10BD     		pop	{r4, pc}
 571              	.L16:
 572              		.loc 1 95 0
 573 0030 6946     		mov	r1, sp
 574 0032 2046     		mov	r0, r4
 575 0034 FFF7FEFF 		bl	chEvtUnregister
 576              	.LVL75:
 577              		.loc 1 96 0
 578 0038 2168     		ldr	r1, [r4, #0]
 579 003a 091B     		subs	r1, r1, r4
 580 003c 18BF     		it	ne
 581 003e 0121     		movne	r1, #1
 582 0040 0220     		movs	r0, #2
 583 0042 FFF7FEFF 		bl	_test_assert
 584              	.LVL76:
 585 0046 0028     		cmp	r0, #0
 586 0048 F0D1     		bne	.L13
 587              		.loc 1 97 0
 588 004a 04A9     		add	r1, sp, #16
 589 004c 2046     		mov	r0, r4
 590 004e FFF7FEFF 		bl	chEvtUnregister
 591              	.LVL77:
 592              		.loc 1 98 0
 593 0052 2168     		ldr	r1, [r4, #0]
 594 0054 B1EB040E 		subs	lr, r1, r4
 595 0058 DEF10001 		rsbs	r1, lr, #0
 596 005c 51EB0E01 		adcs	r1, r1, lr
 597 0060 0320     		movs	r0, #3
 598 0062 FFF7FEFF 		bl	_test_assert
 599              	.LVL78:
 600 0066 0028     		cmp	r0, #0
 601 0068 E0D1     		bne	.L13
 602              		.loc 1 103 0
 603 006a 0548     		ldr	r0, .L17+4
 604 006c 0721     		movs	r1, #7
 605 006e FFF7FEFF 		bl	chEvtDispatch
 606              	.LVL79:
 607              		.loc 1 104 0
 608 0072 0449     		ldr	r1, .L17+8
 609 0074 0420     		movs	r0, #4
 610 0076 FFF7FEFF 		bl	_test_assert_sequence
 611              	.LVL80:
 612 007a D7E7     		b	.L13
 613              	.L18:
 614              		.align	2
 615              	.L17:
 616 007c 00000000 		.word	.LANCHOR0
 617 0080 00000000 		.word	.LANCHOR2
 618 0084 04000000 		.word	.LC1
 619              		.cfi_endproc
ARM GAS  /tmp/ccr5FXCl.s 			page 12


 620              	.LFE11:
 621              		.size	evt1_execute, .-evt1_execute
 622 0088 AFF30080 		.section	.text.h3,"ax",%progbits
 622      AFF30080 
 623              		.align	2
 624              		.p2align 4,,15
 625              		.thumb
 626              		.thumb_func
 627              		.type	h3, %function
 628              	h3:
 629              	.LFB10:
 630              		.loc 1 82 0
 631              		.cfi_startproc
 632              		@ args = 0, pretend = 0, frame = 0
 633              		@ frame_needed = 0, uses_anonymous_args = 0
 634              		@ link register save eliminated.
 635              	.LVL81:
 636              		.loc 1 82 0
 637 0000 4320     		movs	r0, #67
 638              	.LVL82:
 639 0002 FFF7FEBF 		b	test_emit_token
 640              	.LVL83:
 641              		.cfi_endproc
 642              	.LFE10:
 643              		.size	h3, .-h3
 644 0006 00BFAFF3 		.section	.text.h2,"ax",%progbits
 644      0080AFF3 
 644      0080
 645              		.align	2
 646              		.p2align 4,,15
 647              		.thumb
 648              		.thumb_func
 649              		.type	h2, %function
 650              	h2:
 651              	.LFB9:
 652              		.loc 1 81 0
 653              		.cfi_startproc
 654              		@ args = 0, pretend = 0, frame = 0
 655              		@ frame_needed = 0, uses_anonymous_args = 0
 656              		@ link register save eliminated.
 657              	.LVL84:
 658              		.loc 1 81 0
 659 0000 4220     		movs	r0, #66
 660              	.LVL85:
 661 0002 FFF7FEBF 		b	test_emit_token
 662              	.LVL86:
 663              		.cfi_endproc
 664              	.LFE9:
 665              		.size	h2, .-h2
 666 0006 00BFAFF3 		.section	.text.h1,"ax",%progbits
 666      0080AFF3 
 666      0080
 667              		.align	2
 668              		.p2align 4,,15
 669              		.thumb
 670              		.thumb_func
 671              		.type	h1, %function
ARM GAS  /tmp/ccr5FXCl.s 			page 13


 672              	h1:
 673              	.LFB8:
 674              		.loc 1 80 0
 675              		.cfi_startproc
 676              		@ args = 0, pretend = 0, frame = 0
 677              		@ frame_needed = 0, uses_anonymous_args = 0
 678              		@ link register save eliminated.
 679              	.LVL87:
 680              		.loc 1 80 0
 681 0000 4120     		movs	r0, #65
 682              	.LVL88:
 683 0002 FFF7FEBF 		b	test_emit_token
 684              	.LVL89:
 685              		.cfi_endproc
 686              	.LFE8:
 687              		.size	h1, .-h1
 688 0006 00BFAFF3 		.section	.text.evt3_execute,"ax",%progbits
 688      0080AFF3 
 688      0080
 689              		.align	2
 690              		.p2align 4,,15
 691              		.thumb
 692              		.thumb_func
 693              		.type	evt3_execute, %function
 694              	evt3_execute:
 695              	.LFB17:
 696              		.loc 1 252 0
 697              		.cfi_startproc
 698              		@ args = 0, pretend = 0, frame = 0
 699              		@ frame_needed = 0, uses_anonymous_args = 0
 700 0000 08B5     		push	{r3, lr}
 701              	.LCFI6:
 702              		.cfi_def_cfa_offset 8
 703              		.cfi_offset 3, -8
 704              		.cfi_offset 14, -4
 705              		.loc 1 258 0
 706 0002 0021     		movs	r1, #0
 707 0004 4FF0FF30 		mov	r0, #-1
 708 0008 FFF7FEFF 		bl	chEvtWaitOneTimeout
 709              	.LVL90:
 710              		.loc 1 259 0
 711 000c D0F10101 		rsbs	r1, r0, #1
 712 0010 38BF     		it	cc
 713 0012 0021     		movcc	r1, #0
 714 0014 0120     		movs	r0, #1
 715              	.LVL91:
 716 0016 FFF7FEFF 		bl	_test_assert
 717              	.LVL92:
 718 001a 00B1     		cbz	r0, .L26
 719              	.L22:
 720 001c 08BD     		pop	{r3, pc}
 721              	.L26:
 722              		.loc 1 260 0
 723 001e 0146     		mov	r1, r0
 724 0020 4FF0FF30 		mov	r0, #-1
 725 0024 FFF7FEFF 		bl	chEvtWaitAnyTimeout
 726              	.LVL93:
ARM GAS  /tmp/ccr5FXCl.s 			page 14


 727              		.loc 1 261 0
 728 0028 D0F10101 		rsbs	r1, r0, #1
 729 002c 38BF     		it	cc
 730 002e 0021     		movcc	r1, #0
 731 0030 0220     		movs	r0, #2
 732              	.LVL94:
 733 0032 FFF7FEFF 		bl	_test_assert
 734              	.LVL95:
 735 0036 0028     		cmp	r0, #0
 736 0038 F0D1     		bne	.L22
 737              		.loc 1 262 0
 738 003a 0146     		mov	r1, r0
 739 003c 4FF0FF30 		mov	r0, #-1
 740 0040 FFF7FEFF 		bl	chEvtWaitAllTimeout
 741              	.LVL96:
 742              		.loc 1 263 0
 743 0044 D0F10101 		rsbs	r1, r0, #1
 744 0048 38BF     		it	cc
 745 004a 0021     		movcc	r1, #0
 746 004c 0320     		movs	r0, #3
 747              	.LVL97:
 748 004e FFF7FEFF 		bl	_test_assert
 749              	.LVL98:
 750 0052 0028     		cmp	r0, #0
 751 0054 E2D1     		bne	.L22
 752              	.LBB4:
 753              	.LBB5:
 754              		.loc 1 264 0
 755 0056 0A21     		movs	r1, #10
 756 0058 4FF0FF30 		mov	r0, #-1
 757 005c FFF7FEFF 		bl	chEvtWaitOneTimeout
 758              	.LVL99:
 759              		.loc 1 265 0
 760 0060 D0F10101 		rsbs	r1, r0, #1
 761 0064 38BF     		it	cc
 762 0066 0021     		movcc	r1, #0
 763 0068 0420     		movs	r0, #4
 764              	.LVL100:
 765 006a FFF7FEFF 		bl	_test_assert
 766              	.LVL101:
 767 006e 0028     		cmp	r0, #0
 768 0070 D4D1     		bne	.L22
 769              		.loc 1 266 0
 770 0072 0A21     		movs	r1, #10
 771 0074 4FF0FF30 		mov	r0, #-1
 772 0078 FFF7FEFF 		bl	chEvtWaitAnyTimeout
 773              	.LVL102:
 774              		.loc 1 267 0
 775 007c D0F10101 		rsbs	r1, r0, #1
 776 0080 38BF     		it	cc
 777 0082 0021     		movcc	r1, #0
 778 0084 0520     		movs	r0, #5
 779              	.LVL103:
 780 0086 FFF7FEFF 		bl	_test_assert
 781              	.LVL104:
 782 008a 0028     		cmp	r0, #0
 783 008c C6D1     		bne	.L22
ARM GAS  /tmp/ccr5FXCl.s 			page 15


 784              		.loc 1 268 0
 785 008e 0A21     		movs	r1, #10
 786 0090 4FF0FF30 		mov	r0, #-1
 787 0094 FFF7FEFF 		bl	chEvtWaitAllTimeout
 788              	.LVL105:
 789              		.loc 1 269 0
 790 0098 D0F10101 		rsbs	r1, r0, #1
 791 009c 38BF     		it	cc
 792 009e 0021     		movcc	r1, #0
 793 00a0 0620     		movs	r0, #6
 794              	.LVL106:
 795              	.LBE5:
 796              	.LBE4:
 797              		.loc 1 270 0
 798 00a2 BDE80840 		pop	{r3, lr}
 799              	.LBB7:
 800              	.LBB6:
 801              		.loc 1 269 0
 802 00a6 FFF7FEBF 		b	_test_assert
 803              	.LVL107:
 804              	.LBE6:
 805              	.LBE7:
 806              		.cfi_endproc
 807              	.LFE17:
 808              		.size	evt3_execute, .-evt3_execute
 809              		.global	patternevt
 810              		.global	testevt3
 811              		.global	testevt2
 812              		.global	testevt1
 813 00aa 00BFAFF3 		.section	.rodata.patternevt,"a",%progbits
 813      0080
 814              		.align	2
 815              		.type	patternevt, %object
 816              		.size	patternevt, 16
 817              	patternevt:
 818 0000 00000000 		.word	testevt1
 819 0004 00000000 		.word	testevt2
 820 0008 00000000 		.word	testevt3
 821 000c 00000000 		.word	0
 822              		.section	.rodata.testevt2,"a",%progbits
 823              		.align	2
 824              		.type	testevt2, %object
 825              		.size	testevt2, 16
 826              	testevt2:
 827 0000 1C000000 		.word	.LC3
 828 0004 00000000 		.word	evt2_setup
 829 0008 00000000 		.word	0
 830 000c 00000000 		.word	evt2_execute
 831              		.section	.rodata.str1.4,"aMS",%progbits,1
 832              		.align	2
 833              	.LC0:
 834 0000 4100     		.ascii	"A\000"
 835 0002 0000     		.space	2
 836              	.LC1:
 837 0004 41424300 		.ascii	"ABC\000"
 838              	.LC2:
 839 0008 4576656E 		.ascii	"Events, timeouts\000"
ARM GAS  /tmp/ccr5FXCl.s 			page 16


 839      74732C20 
 839      74696D65 
 839      6F757473 
 839      00
 840 0019 000000   		.space	3
 841              	.LC3:
 842 001c 4576656E 		.ascii	"Events, wait and broadcast\000"
 842      74732C20 
 842      77616974 
 842      20616E64 
 842      2062726F 
 843 0037 00       		.space	1
 844              	.LC4:
 845 0038 4576656E 		.ascii	"Events, registration and dispatch\000"
 845      74732C20 
 845      72656769 
 845      73747261 
 845      74696F6E 
 846 005a 0000     		.section	.rodata.testevt1,"a",%progbits
 847              		.align	2
 848              		.type	testevt1, %object
 849              		.size	testevt1, 16
 850              	testevt1:
 851 0000 38000000 		.word	.LC4
 852 0004 00000000 		.word	evt1_setup
 853 0008 00000000 		.word	0
 854 000c 00000000 		.word	evt1_execute
 855              		.section	.rodata.evhndl,"a",%progbits
 856              		.align	2
 857              		.set	.LANCHOR2,. + 0
 858              		.type	evhndl, %object
 859              		.size	evhndl, 12
 860              	evhndl:
 861 0000 00000000 		.word	h1
 862 0004 00000000 		.word	h2
 863 0008 00000000 		.word	h3
 864              		.section	.rodata.testevt3,"a",%progbits
 865              		.align	2
 866              		.type	testevt3, %object
 867              		.size	testevt3, 16
 868              	testevt3:
 869 0000 08000000 		.word	.LC2
 870 0004 00000000 		.word	evt3_setup
 871 0008 00000000 		.word	0
 872 000c 00000000 		.word	evt3_execute
 873              		.section	.data.es1,"aw",%progbits
 874              		.align	2
 875              		.set	.LANCHOR0,. + 0
 876              		.type	es1, %object
 877              		.size	es1, 4
 878              	es1:
 879 0000 00000000 		.word	es1
 880              		.section	.data.es2,"aw",%progbits
 881              		.align	2
 882              		.set	.LANCHOR1,. + 0
 883              		.type	es2, %object
 884              		.size	es2, 4
ARM GAS  /tmp/ccr5FXCl.s 			page 17


 885              	es2:
 886 0000 00000000 		.word	es2
 887              		.text
 888              	.Letext0:
 889              		.file 2 "/opt/tools_arm/lib/gcc/arm-none-eabi/4.7.3/include/stddef.h"
 890              		.file 3 "/opt/tools_arm/lib/gcc/arm-none-eabi/4.7.3/../../../../arm-none-eabi/include/stdint.h"
 891              		.file 4 "/home/felix/Documents/ChibiOS/os/ports/GCC/ARMCMx/chtypes.h"
 892              		.file 5 "/home/felix/Documents/ChibiOS/os/kernel/include/chlists.h"
 893              		.file 6 "/home/felix/Documents/ChibiOS/os/kernel/include/chthreads.h"
 894              		.file 7 "/home/felix/Documents/ChibiOS/os/ports/GCC/ARMCMx/chcore_v7m.h"
 895              		.file 8 "/home/felix/Documents/ChibiOS/os/kernel/include/chvt.h"
 896              		.file 9 "/home/felix/Documents/ChibiOS/os/kernel/include/chschd.h"
 897              		.file 10 "/home/felix/Documents/ChibiOS/os/kernel/include/chmtx.h"
 898              		.file 11 "/home/felix/Documents/ChibiOS/os/kernel/include/chevents.h"
 899              		.file 12 "/home/felix/Documents/ChibiOS/test/test.h"