ARM GAS  /tmp/ccAzizIy.s 			page 1


   1              		.syntax unified
   2              		.cpu cortex-m4
   3              		.fpu softvfp
   4              		.eabi_attribute 20, 1
   5              		.eabi_attribute 21, 1
   6              		.eabi_attribute 23, 3
   7              		.eabi_attribute 24, 1
   8              		.eabi_attribute 25, 1
   9              		.eabi_attribute 26, 1
  10              		.eabi_attribute 30, 2
  11              		.eabi_attribute 34, 1
  12              		.eabi_attribute 18, 4
  13              		.thumb
  14              		.file	"testthd.c"
  15              		.text
  16              	.Ltext0:
  17              		.cfi_sections	.debug_frame
  18              		.section	.text.thd3_execute,"ax",%progbits
  19              		.align	2
  20              		.p2align 4,,15
  21              		.thumb
  22              		.thumb_func
  23              		.type	thd3_execute, %function
  24              	thd3_execute:
  25              	.LFB10:
  26              		.file 1 "/home/felix/Documents/ChibiOS/test/testthd.c"
  27              		.loc 1 126 0
  28              		.cfi_startproc
  29              		@ args = 0, pretend = 0, frame = 0
  30              		@ frame_needed = 0, uses_anonymous_args = 0
  31 0000 F8B5     		push	{r3, r4, r5, r6, r7, lr}
  32              	.LCFI0:
  33              		.cfi_def_cfa_offset 24
  34              		.cfi_offset 3, -24
  35              		.cfi_offset 4, -20
  36              		.cfi_offset 5, -16
  37              		.cfi_offset 6, -12
  38              		.cfi_offset 7, -8
  39              		.cfi_offset 14, -4
  40              		.loc 1 129 0
  41 0002 4D4E     		ldr	r6, .L7
  42 0004 B369     		ldr	r3, [r6, #24]
  43 0006 9C68     		ldr	r4, [r3, #8]
  44              	.LVL0:
  45              		.loc 1 130 0
  46 0008 651C     		adds	r5, r4, #1
  47 000a 2846     		mov	r0, r5
  48 000c FFF7FEFF 		bl	chThdSetPriority
  49              	.LVL1:
  50              		.loc 1 131 0
  51 0010 021B     		subs	r2, r0, r4
  52 0012 5142     		rsbs	r1, r2, #0
  53              		.loc 1 130 0
  54 0014 0746     		mov	r7, r0
  55              	.LVL2:
  56              		.loc 1 131 0
  57 0016 5141     		adcs	r1, r1, r2
ARM GAS  /tmp/ccAzizIy.s 			page 2


  58 0018 0120     		movs	r0, #1
  59              	.LVL3:
  60 001a FFF7FEFF 		bl	_test_assert
  61              	.LVL4:
  62 001e 00B1     		cbz	r0, .L6
  63              	.LVL5:
  64              	.L1:
  65 0020 F8BD     		pop	{r3, r4, r5, r6, r7, pc}
  66              	.LVL6:
  67              	.L6:
  68              		.loc 1 133 0
  69 0022 B369     		ldr	r3, [r6, #24]
  70 0024 9968     		ldr	r1, [r3, #8]
  71 0026 6B1A     		subs	r3, r5, r1
  72 0028 5942     		rsbs	r1, r3, #0
  73 002a 5941     		adcs	r1, r1, r3
  74 002c 0220     		movs	r0, #2
  75 002e FFF7FEFF 		bl	_test_assert
  76              	.LVL7:
  77 0032 0028     		cmp	r0, #0
  78 0034 F4D1     		bne	.L1
  79              		.loc 1 135 0
  80 0036 3846     		mov	r0, r7
  81 0038 FFF7FEFF 		bl	chThdSetPriority
  82              	.LVL8:
  83              		.loc 1 136 0
  84 003c B5EB000C 		subs	ip, r5, r0
  85 0040 DCF10001 		rsbs	r1, ip, #0
  86 0044 51EB0C01 		adcs	r1, r1, ip
  87 0048 0320     		movs	r0, #3
  88              	.LVL9:
  89 004a FFF7FEFF 		bl	_test_assert
  90              	.LVL10:
  91 004e 0028     		cmp	r0, #0
  92 0050 E6D1     		bne	.L1
  93              		.loc 1 138 0
  94 0052 B369     		ldr	r3, [r6, #24]
  95 0054 9968     		ldr	r1, [r3, #8]
  96 0056 B1EB040E 		subs	lr, r1, r4
  97 005a DEF10001 		rsbs	r1, lr, #0
  98 005e 51EB0E01 		adcs	r1, r1, lr
  99 0062 0420     		movs	r0, #4
 100 0064 FFF7FEFF 		bl	_test_assert
 101              	.LVL11:
 102 0068 0028     		cmp	r0, #0
 103 006a D9D1     		bne	.L1
 104              	.LBB2:
 105              		.loc 1 143 0
 106 006c 2023     		movs	r3, #32
 107              	.LVL12:
 108              	@ 143 "/home/felix/Documents/ChibiOS/test/testthd.c" 1
 109 006e 83F31188 		msr     BASEPRI, r3
 110              	@ 0 "" 2
 111              	.LVL13:
 112              		.thumb
 113              	.LBE2:
 114              		.loc 1 144 0
ARM GAS  /tmp/ccAzizIy.s 			page 3


 115 0072 B269     		ldr	r2, [r6, #24]
 116 0074 9368     		ldr	r3, [r2, #8]
 117              	.LVL14:
 118 0076 991C     		adds	r1, r3, #2
 119 0078 9160     		str	r1, [r2, #8]
 120              	.LBB3:
 121              		.loc 1 145 0
 122 007a 0346     		mov	r3, r0
 123              	.LVL15:
 124              	@ 145 "/home/felix/Documents/ChibiOS/test/testthd.c" 1
 125 007c 83F31188 		msr     BASEPRI, r3
 126              	@ 0 "" 2
 127              	.LVL16:
 128              		.thumb
 129              	.LBE3:
 130              		.loc 1 146 0
 131 0080 B369     		ldr	r3, [r6, #24]
 132              	.LVL17:
 133 0082 9968     		ldr	r1, [r3, #8]
 134 0084 A71C     		adds	r7, r4, #2
 135 0086 CA1B     		subs	r2, r1, r7
 136 0088 5142     		rsbs	r1, r2, #0
 137 008a 5141     		adcs	r1, r1, r2
 138 008c 0520     		movs	r0, #5
 139 008e FFF7FEFF 		bl	_test_assert
 140              	.LVL18:
 141 0092 0028     		cmp	r0, #0
 142 0094 C4D1     		bne	.L1
 143              		.loc 1 150 0
 144 0096 2846     		mov	r0, r5
 145 0098 FFF7FEFF 		bl	chThdSetPriority
 146              	.LVL19:
 147              		.loc 1 151 0
 148 009c 031B     		subs	r3, r0, r4
 149 009e 5942     		rsbs	r1, r3, #0
 150 00a0 5941     		adcs	r1, r1, r3
 151 00a2 0620     		movs	r0, #6
 152              	.LVL20:
 153 00a4 FFF7FEFF 		bl	_test_assert
 154              	.LVL21:
 155 00a8 0028     		cmp	r0, #0
 156 00aa B9D1     		bne	.L1
 157              		.loc 1 153 0
 158 00ac B369     		ldr	r3, [r6, #24]
 159 00ae 9968     		ldr	r1, [r3, #8]
 160 00b0 B7EB010C 		subs	ip, r7, r1
 161 00b4 DCF10001 		rsbs	r1, ip, #0
 162 00b8 51EB0C01 		adcs	r1, r1, ip
 163 00bc 0720     		movs	r0, #7
 164 00be FFF7FEFF 		bl	_test_assert
 165              	.LVL22:
 166 00c2 0028     		cmp	r0, #0
 167 00c4 ACD1     		bne	.L1
 168              		.loc 1 155 0
 169 00c6 B369     		ldr	r3, [r6, #24]
 170 00c8 196C     		ldr	r1, [r3, #64]
 171 00ca B5EB010E 		subs	lr, r5, r1
ARM GAS  /tmp/ccAzizIy.s 			page 4


 172 00ce DEF10001 		rsbs	r1, lr, #0
 173 00d2 51EB0E01 		adcs	r1, r1, lr
 174 00d6 0820     		movs	r0, #8
 175 00d8 FFF7FEFF 		bl	_test_assert
 176              	.LVL23:
 177 00dc 0028     		cmp	r0, #0
 178 00de 9FD1     		bne	.L1
 179              		.loc 1 159 0
 180 00e0 E71C     		adds	r7, r4, #3
 181 00e2 3846     		mov	r0, r7
 182 00e4 FFF7FEFF 		bl	chThdSetPriority
 183              	.LVL24:
 184              		.loc 1 160 0
 185 00e8 281A     		subs	r0, r5, r0
 186              	.LVL25:
 187 00ea 4142     		rsbs	r1, r0, #0
 188 00ec 4141     		adcs	r1, r1, r0
 189 00ee 0920     		movs	r0, #9
 190 00f0 FFF7FEFF 		bl	_test_assert
 191              	.LVL26:
 192 00f4 0028     		cmp	r0, #0
 193 00f6 93D1     		bne	.L1
 194              		.loc 1 162 0
 195 00f8 B369     		ldr	r3, [r6, #24]
 196 00fa 9968     		ldr	r1, [r3, #8]
 197 00fc 7A1A     		subs	r2, r7, r1
 198 00fe 5142     		rsbs	r1, r2, #0
 199 0100 5141     		adcs	r1, r1, r2
 200 0102 0A20     		movs	r0, #10
 201 0104 FFF7FEFF 		bl	_test_assert
 202              	.LVL27:
 203 0108 0028     		cmp	r0, #0
 204 010a 89D1     		bne	.L1
 205              		.loc 1 164 0
 206 010c B369     		ldr	r3, [r6, #24]
 207 010e 196C     		ldr	r1, [r3, #64]
 208 0110 7B1A     		subs	r3, r7, r1
 209 0112 5942     		rsbs	r1, r3, #0
 210 0114 5941     		adcs	r1, r1, r3
 211 0116 0B20     		movs	r0, #11
 212 0118 3546     		mov	r5, r6
 213 011a FFF7FEFF 		bl	_test_assert
 214              	.LVL28:
 215 011e 0028     		cmp	r0, #0
 216 0120 7FF47EAF 		bne	.L1
 217              	.LBB4:
 218              		.loc 1 167 0
 219 0124 2023     		movs	r3, #32
 220              	.LVL29:
 221              	@ 167 "/home/felix/Documents/ChibiOS/test/testthd.c" 1
 222 0126 83F31188 		msr     BASEPRI, r3
 223              	@ 0 "" 2
 224              	.LVL30:
 225              		.thumb
 226              	.LBE4:
 227              		.loc 1 168 0
 228 012a B269     		ldr	r2, [r6, #24]
ARM GAS  /tmp/ccAzizIy.s 			page 5


 229              	.LBB5:
 230              		.loc 1 170 0
 231 012c 0346     		mov	r3, r0
 232              	.LVL31:
 233              	.LBE5:
 234              		.loc 1 168 0
 235 012e 9460     		str	r4, [r2, #8]
 236              		.loc 1 169 0
 237 0130 1464     		str	r4, [r2, #64]
 238              	.LBB6:
 239              		.loc 1 170 0
 240              	@ 170 "/home/felix/Documents/ChibiOS/test/testthd.c" 1
 241 0132 83F31188 		msr     BASEPRI, r3
 242              	@ 0 "" 2
 243              	.LVL32:
 244              		.thumb
 245 0136 73E7     		b	.L1
 246              	.L8:
 247              		.align	2
 248              	.L7:
 249 0138 00000000 		.word	rlist
 250              	.LBE6:
 251              		.cfi_endproc
 252              	.LFE10:
 253              		.size	thd3_execute, .-thd3_execute
 254 013c AFF30080 		.section	.text.thd2_execute,"ax",%progbits
 255              		.align	2
 256              		.p2align 4,,15
 257              		.thumb
 258              		.thumb_func
 259              		.type	thd2_execute, %function
 260              	thd2_execute:
 261              	.LFB9:
 262              		.loc 1 94 0
 263              		.cfi_startproc
 264              		@ args = 0, pretend = 0, frame = 0
 265              		@ frame_needed = 0, uses_anonymous_args = 0
 266 0000 F0B5     		push	{r4, r5, r6, r7, lr}
 267              	.LCFI1:
 268              		.cfi_def_cfa_offset 20
 269              		.cfi_offset 4, -20
 270              		.cfi_offset 5, -16
 271              		.cfi_offset 6, -12
 272              		.cfi_offset 7, -8
 273              		.cfi_offset 14, -4
 274              		.loc 1 96 0
 275 0002 40F20007 		movw	r7, #:lower16:rlist
 276 0006 C0F20007 		movt	r7, #:upper16:rlist
 277 000a 40F20006 		movw	r6, #:lower16:wa
 278 000e BB69     		ldr	r3, [r7, #24]
 279              		.loc 1 94 0
 280 0010 83B0     		sub	sp, sp, #12
 281              	.LCFI2:
 282              		.cfi_def_cfa_offset 32
 283              		.loc 1 96 0
 284 0012 C0F20006 		movt	r6, #:upper16:wa
 285 0016 9A68     		ldr	r2, [r3, #8]
ARM GAS  /tmp/ccAzizIy.s 			page 6


 286 0018 7068     		ldr	r0, [r6, #4]
 287 001a 40F20005 		movw	r5, #:lower16:thread
 288 001e 40F20001 		movw	r1, #:lower16:.LC0
 289 0022 C0F20005 		movt	r5, #:upper16:thread
 290 0026 C0F20001 		movt	r1, #:upper16:.LC0
 291 002a 2B46     		mov	r3, r5
 292 002c 0091     		str	r1, [sp, #0]
 293 002e 043A     		subs	r2, r2, #4
 294 0030 4FF49871 		mov	r1, #304
 295 0034 FFF7FEFF 		bl	chThdCreateStatic
 296              	.LVL33:
 297              		.loc 1 97 0
 298 0038 BA69     		ldr	r2, [r7, #24]
 299 003a 3368     		ldr	r3, [r6, #0]
 300 003c 9268     		ldr	r2, [r2, #8]
 301              		.loc 1 96 0
 302 003e 40F20004 		movw	r4, #:lower16:threads
 303 0042 C0F20004 		movt	r4, #:upper16:threads
 304              		.loc 1 97 0
 305 0046 40F20001 		movw	r1, #:lower16:.LC1
 306 004a C0F20001 		movt	r1, #:upper16:.LC1
 307              		.loc 1 96 0
 308 004e 6060     		str	r0, [r4, #4]
 309              		.loc 1 97 0
 310 0050 0091     		str	r1, [sp, #0]
 311 0052 053A     		subs	r2, r2, #5
 312 0054 1846     		mov	r0, r3
 313 0056 4FF49871 		mov	r1, #304
 314 005a 2B46     		mov	r3, r5
 315 005c FFF7FEFF 		bl	chThdCreateStatic
 316              	.LVL34:
 317              		.loc 1 98 0
 318 0060 BA69     		ldr	r2, [r7, #24]
 319 0062 3369     		ldr	r3, [r6, #16]
 320 0064 9268     		ldr	r2, [r2, #8]
 321              		.loc 1 97 0
 322 0066 2060     		str	r0, [r4, #0]
 323              		.loc 1 98 0
 324 0068 40F20001 		movw	r1, #:lower16:.LC2
 325 006c C0F20001 		movt	r1, #:upper16:.LC2
 326 0070 0091     		str	r1, [sp, #0]
 327 0072 013A     		subs	r2, r2, #1
 328 0074 1846     		mov	r0, r3
 329 0076 4FF49871 		mov	r1, #304
 330 007a 2B46     		mov	r3, r5
 331 007c FFF7FEFF 		bl	chThdCreateStatic
 332              	.LVL35:
 333              		.loc 1 99 0
 334 0080 BA69     		ldr	r2, [r7, #24]
 335 0082 F368     		ldr	r3, [r6, #12]
 336 0084 9268     		ldr	r2, [r2, #8]
 337              		.loc 1 98 0
 338 0086 2061     		str	r0, [r4, #16]
 339              		.loc 1 99 0
 340 0088 40F20001 		movw	r1, #:lower16:.LC3
 341 008c C0F20001 		movt	r1, #:upper16:.LC3
 342 0090 0091     		str	r1, [sp, #0]
ARM GAS  /tmp/ccAzizIy.s 			page 7


 343 0092 023A     		subs	r2, r2, #2
 344 0094 1846     		mov	r0, r3
 345 0096 4FF49871 		mov	r1, #304
 346 009a 2B46     		mov	r3, r5
 347 009c FFF7FEFF 		bl	chThdCreateStatic
 348              	.LVL36:
 349              	.LBB7:
 350              		.loc 1 101 0
 351 00a0 2023     		movs	r3, #32
 352              	.LVL37:
 353              	.LBE7:
 354              		.loc 1 99 0
 355 00a2 E060     		str	r0, [r4, #12]
 356              	.LBB8:
 357              		.loc 1 101 0
 358              	@ 101 "/home/felix/Documents/ChibiOS/test/testthd.c" 1
 359 00a4 83F31188 		msr     BASEPRI, r3
 360              	@ 0 "" 2
 361              	.LVL38:
 362              		.thumb
 363              	.LBE8:
 364              		.loc 1 102 0
 365 00a8 BB69     		ldr	r3, [r7, #24]
 366              	.LVL39:
 367 00aa B068     		ldr	r0, [r6, #8]
 368 00ac 9A68     		ldr	r2, [r3, #8]
 369 00ae 40F20001 		movw	r1, #:lower16:.LC4
 370 00b2 C0F20001 		movt	r1, #:upper16:.LC4
 371 00b6 2B46     		mov	r3, r5
 372 00b8 0091     		str	r1, [sp, #0]
 373 00ba 033A     		subs	r2, r2, #3
 374 00bc 4FF49871 		mov	r1, #304
 375 00c0 FFF7FEFF 		bl	chThdCreateI
 376              	.LVL40:
 377 00c4 A060     		str	r0, [r4, #8]
 378              	.LBB9:
 379              		.loc 1 103 0
 380 00c6 0023     		movs	r3, #0
 381              	.LVL41:
 382              	@ 103 "/home/felix/Documents/ChibiOS/test/testthd.c" 1
 383 00c8 83F31188 		msr     BASEPRI, r3
 384              	@ 0 "" 2
 385              	.LVL42:
 386              		.thumb
 387              	.LBE9:
 388              		.loc 1 104 0
 389 00cc A068     		ldr	r0, [r4, #8]
 390 00ce FFF7FEFF 		bl	chThdResume
 391              	.LVL43:
 392              		.loc 1 105 0
 393 00d2 FFF7FEFF 		bl	test_wait_threads
 394              	.LVL44:
 395              		.loc 1 106 0
 396 00d6 40F20001 		movw	r1, #:lower16:.LC5
 397 00da C0F20001 		movt	r1, #:upper16:.LC5
 398 00de 0120     		movs	r0, #1
 399              		.loc 1 107 0
ARM GAS  /tmp/ccAzizIy.s 			page 8


 400 00e0 03B0     		add	sp, sp, #12
 401 00e2 BDE8F040 		pop	{r4, r5, r6, r7, lr}
 402              		.loc 1 106 0
 403 00e6 FFF7FEBF 		b	_test_assert_sequence
 404              	.LVL45:
 405              		.cfi_endproc
 406              	.LFE9:
 407              		.size	thd2_execute, .-thd2_execute
 408 00ea 00BFAFF3 		.section	.text.thd1_execute,"ax",%progbits
 408      0080
 409              		.align	2
 410              		.p2align 4,,15
 411              		.thumb
 412              		.thumb_func
 413              		.type	thd1_execute, %function
 414              	thd1_execute:
 415              	.LFB8:
 416              		.loc 1 66 0
 417              		.cfi_startproc
 418              		@ args = 0, pretend = 0, frame = 0
 419              		@ frame_needed = 0, uses_anonymous_args = 0
 420 0000 F0B5     		push	{r4, r5, r6, r7, lr}
 421              	.LCFI3:
 422              		.cfi_def_cfa_offset 20
 423              		.cfi_offset 4, -20
 424              		.cfi_offset 5, -16
 425              		.cfi_offset 6, -12
 426              		.cfi_offset 7, -8
 427              		.cfi_offset 14, -4
 428              		.loc 1 68 0
 429 0002 40F20007 		movw	r7, #:lower16:rlist
 430 0006 C0F20007 		movt	r7, #:upper16:rlist
 431 000a 40F20006 		movw	r6, #:lower16:wa
 432 000e BB69     		ldr	r3, [r7, #24]
 433              		.loc 1 66 0
 434 0010 83B0     		sub	sp, sp, #12
 435              	.LCFI4:
 436              		.cfi_def_cfa_offset 32
 437              		.loc 1 68 0
 438 0012 C0F20006 		movt	r6, #:upper16:wa
 439 0016 9A68     		ldr	r2, [r3, #8]
 440 0018 3068     		ldr	r0, [r6, #0]
 441 001a 40F20005 		movw	r5, #:lower16:thread
 442 001e 40F20001 		movw	r1, #:lower16:.LC1
 443 0022 C0F20005 		movt	r5, #:upper16:thread
 444 0026 C0F20001 		movt	r1, #:upper16:.LC1
 445 002a 2B46     		mov	r3, r5
 446 002c 0091     		str	r1, [sp, #0]
 447 002e 053A     		subs	r2, r2, #5
 448 0030 4FF49871 		mov	r1, #304
 449 0034 FFF7FEFF 		bl	chThdCreateStatic
 450              	.LVL46:
 451              		.loc 1 69 0
 452 0038 BA69     		ldr	r2, [r7, #24]
 453 003a 7368     		ldr	r3, [r6, #4]
 454 003c 9268     		ldr	r2, [r2, #8]
 455              		.loc 1 68 0
ARM GAS  /tmp/ccAzizIy.s 			page 9


 456 003e 40F20004 		movw	r4, #:lower16:threads
 457 0042 C0F20004 		movt	r4, #:upper16:threads
 458              		.loc 1 69 0
 459 0046 40F20001 		movw	r1, #:lower16:.LC0
 460 004a C0F20001 		movt	r1, #:upper16:.LC0
 461              		.loc 1 68 0
 462 004e 2060     		str	r0, [r4, #0]
 463              		.loc 1 69 0
 464 0050 0091     		str	r1, [sp, #0]
 465 0052 043A     		subs	r2, r2, #4
 466 0054 1846     		mov	r0, r3
 467 0056 4FF49871 		mov	r1, #304
 468 005a 2B46     		mov	r3, r5
 469 005c FFF7FEFF 		bl	chThdCreateStatic
 470              	.LVL47:
 471              		.loc 1 70 0
 472 0060 BA69     		ldr	r2, [r7, #24]
 473 0062 B368     		ldr	r3, [r6, #8]
 474 0064 9268     		ldr	r2, [r2, #8]
 475              		.loc 1 69 0
 476 0066 6060     		str	r0, [r4, #4]
 477              		.loc 1 70 0
 478 0068 40F20001 		movw	r1, #:lower16:.LC4
 479 006c C0F20001 		movt	r1, #:upper16:.LC4
 480 0070 0091     		str	r1, [sp, #0]
 481 0072 033A     		subs	r2, r2, #3
 482 0074 1846     		mov	r0, r3
 483 0076 4FF49871 		mov	r1, #304
 484 007a 2B46     		mov	r3, r5
 485 007c FFF7FEFF 		bl	chThdCreateStatic
 486              	.LVL48:
 487              		.loc 1 71 0
 488 0080 BA69     		ldr	r2, [r7, #24]
 489 0082 F368     		ldr	r3, [r6, #12]
 490 0084 9268     		ldr	r2, [r2, #8]
 491              		.loc 1 70 0
 492 0086 A060     		str	r0, [r4, #8]
 493              		.loc 1 71 0
 494 0088 40F20001 		movw	r1, #:lower16:.LC3
 495 008c C0F20001 		movt	r1, #:upper16:.LC3
 496 0090 0091     		str	r1, [sp, #0]
 497 0092 023A     		subs	r2, r2, #2
 498 0094 1846     		mov	r0, r3
 499 0096 4FF49871 		mov	r1, #304
 500 009a 2B46     		mov	r3, r5
 501 009c FFF7FEFF 		bl	chThdCreateStatic
 502              	.LVL49:
 503              		.loc 1 72 0
 504 00a0 BA69     		ldr	r2, [r7, #24]
 505 00a2 3369     		ldr	r3, [r6, #16]
 506 00a4 9268     		ldr	r2, [r2, #8]
 507              		.loc 1 71 0
 508 00a6 E060     		str	r0, [r4, #12]
 509              		.loc 1 72 0
 510 00a8 40F20001 		movw	r1, #:lower16:.LC2
 511 00ac C0F20001 		movt	r1, #:upper16:.LC2
 512 00b0 013A     		subs	r2, r2, #1
ARM GAS  /tmp/ccAzizIy.s 			page 10


 513 00b2 0091     		str	r1, [sp, #0]
 514 00b4 1846     		mov	r0, r3
 515 00b6 4FF49871 		mov	r1, #304
 516 00ba 2B46     		mov	r3, r5
 517 00bc FFF7FEFF 		bl	chThdCreateStatic
 518              	.LVL50:
 519 00c0 2061     		str	r0, [r4, #16]
 520              		.loc 1 73 0
 521 00c2 FFF7FEFF 		bl	test_wait_threads
 522              	.LVL51:
 523              		.loc 1 74 0
 524 00c6 40F20001 		movw	r1, #:lower16:.LC5
 525 00ca C0F20001 		movt	r1, #:upper16:.LC5
 526 00ce 0120     		movs	r0, #1
 527              		.loc 1 75 0
 528 00d0 03B0     		add	sp, sp, #12
 529 00d2 BDE8F040 		pop	{r4, r5, r6, r7, lr}
 530              		.loc 1 74 0
 531 00d6 FFF7FEBF 		b	_test_assert_sequence
 532              	.LVL52:
 533              		.cfi_endproc
 534              	.LFE8:
 535              		.size	thd1_execute, .-thd1_execute
 536 00da 00BFAFF3 		.section	.text.thread,"ax",%progbits
 536      0080
 537              		.align	2
 538              		.p2align 4,,15
 539              		.thumb
 540              		.thumb_func
 541              		.type	thread, %function
 542              	thread:
 543              	.LFB7:
 544              		.loc 1 60 0
 545              		.cfi_startproc
 546              		@ args = 0, pretend = 0, frame = 0
 547              		@ frame_needed = 0, uses_anonymous_args = 0
 548              	.LVL53:
 549 0000 08B5     		push	{r3, lr}
 550              	.LCFI5:
 551              		.cfi_def_cfa_offset 8
 552              		.cfi_offset 3, -8
 553              		.cfi_offset 14, -4
 554              		.loc 1 62 0
 555 0002 0078     		ldrb	r0, [r0, #0]	@ zero_extendqisi2
 556              	.LVL54:
 557 0004 FFF7FEFF 		bl	test_emit_token
 558              	.LVL55:
 559              		.loc 1 64 0
 560 0008 0020     		movs	r0, #0
 561 000a 08BD     		pop	{r3, pc}
 562              		.cfi_endproc
 563              	.LFE7:
 564              		.size	thread, .-thread
 565 000c AFF30080 		.section	.text.thd4_execute,"ax",%progbits
 566              		.align	2
 567              		.p2align 4,,15
 568              		.thumb
ARM GAS  /tmp/ccAzizIy.s 			page 11


 569              		.thumb_func
 570              		.type	thd4_execute, %function
 571              	thd4_execute:
 572              	.LFB11:
 573              		.loc 1 189 0
 574              		.cfi_startproc
 575              		@ args = 0, pretend = 0, frame = 0
 576              		@ frame_needed = 0, uses_anonymous_args = 0
 577 0000 38B5     		push	{r3, r4, r5, lr}
 578              	.LCFI6:
 579              		.cfi_def_cfa_offset 16
 580              		.cfi_offset 3, -16
 581              		.cfi_offset 4, -12
 582              		.cfi_offset 5, -8
 583              		.cfi_offset 14, -4
 584              		.loc 1 195 0
 585 0002 1C4D     		ldr	r5, .L17
 586              		.loc 1 192 0
 587 0004 FFF7FEFF 		bl	test_wait_tick
 588              	.LVL56:
 589              		.loc 1 195 0
 590 0008 EC68     		ldr	r4, [r5, #12]
 591              	.LVL57:
 592              		.loc 1 196 0
 593 000a 6420     		movs	r0, #100
 594 000c FFF7FEFF 		bl	chThdSleep
 595              	.LVL58:
 596              		.loc 1 197 0
 597 0010 04F16401 		add	r1, r4, #100
 598 0014 04F16502 		add	r2, r4, #101
 599 0018 0120     		movs	r0, #1
 600 001a FFF7FEFF 		bl	_test_assert_time_window
 601              	.LVL59:
 602 001e 00B1     		cbz	r0, .L16
 603              	.LVL60:
 604              	.L12:
 605 0020 38BD     		pop	{r3, r4, r5, pc}
 606              	.LVL61:
 607              	.L16:
 608              		.loc 1 200 0
 609 0022 EC68     		ldr	r4, [r5, #12]
 610              	.LVL62:
 611              		.loc 1 201 0
 612 0024 6420     		movs	r0, #100
 613 0026 FFF7FEFF 		bl	chThdSleep
 614              	.LVL63:
 615              		.loc 1 202 0
 616 002a 04F16401 		add	r1, r4, #100
 617 002e 04F16502 		add	r2, r4, #101
 618 0032 0220     		movs	r0, #2
 619 0034 FFF7FEFF 		bl	_test_assert_time_window
 620              	.LVL64:
 621 0038 0028     		cmp	r0, #0
 622 003a F1D1     		bne	.L12
 623              	.LBB12:
 624              	.LBB13:
 625              		.loc 1 205 0
ARM GAS  /tmp/ccAzizIy.s 			page 12


 626 003c EC68     		ldr	r4, [r5, #12]
 627              	.LVL65:
 628              		.loc 1 206 0
 629 003e 4FF47A70 		mov	r0, #1000
 630 0042 FFF7FEFF 		bl	chThdSleep
 631              	.LVL66:
 632              		.loc 1 207 0
 633 0046 04F57A71 		add	r1, r4, #1000
 634 004a 04F2E932 		addw	r2, r4, #1001
 635 004e 0320     		movs	r0, #3
 636 0050 FFF7FEFF 		bl	_test_assert_time_window
 637              	.LVL67:
 638 0054 0028     		cmp	r0, #0
 639 0056 E3D1     		bne	.L12
 640              		.loc 1 210 0
 641 0058 EC68     		ldr	r4, [r5, #12]
 642              	.LVL68:
 643 005a 04F16405 		add	r5, r4, #100
 644              	.LVL69:
 645              		.loc 1 211 0
 646 005e 2846     		mov	r0, r5
 647 0060 FFF7FEFF 		bl	chThdSleepUntil
 648              	.LVL70:
 649              		.loc 1 212 0
 650 0064 2946     		mov	r1, r5
 651 0066 04F16502 		add	r2, r4, #101
 652 006a 0420     		movs	r0, #4
 653              	.LBE13:
 654              	.LBE12:
 655              		.loc 1 213 0
 656 006c BDE83840 		pop	{r3, r4, r5, lr}
 657              	.LBB15:
 658              	.LBB14:
 659              		.loc 1 212 0
 660 0070 FFF7FEBF 		b	_test_assert_time_window
 661              	.LVL71:
 662              	.L18:
 663              		.align	2
 664              	.L17:
 665 0074 00000000 		.word	vtlist
 666              	.LBE14:
 667              	.LBE15:
 668              		.cfi_endproc
 669              	.LFE11:
 670              		.size	thd4_execute, .-thd4_execute
 671              		.global	patternthd
 672              		.global	testthd4
 673              		.global	testthd3
 674              		.global	testthd2
 675              		.global	testthd1
 676 0078 AFF30080 		.section	.rodata.testthd1,"a",%progbits
 676      AFF30080 
 677              		.align	2
 678              		.type	testthd1, %object
 679              		.size	testthd1, 16
 680              	testthd1:
 681 0000 64000000 		.word	.LC9
ARM GAS  /tmp/ccAzizIy.s 			page 13


 682 0004 00000000 		.word	0
 683 0008 00000000 		.word	0
 684 000c 00000000 		.word	thd1_execute
 685              		.section	.rodata.testthd2,"a",%progbits
 686              		.align	2
 687              		.type	testthd2, %object
 688              		.size	testthd2, 16
 689              	testthd2:
 690 0000 48000000 		.word	.LC8
 691 0004 00000000 		.word	0
 692 0008 00000000 		.word	0
 693 000c 00000000 		.word	thd2_execute
 694              		.section	.rodata.testthd3,"a",%progbits
 695              		.align	2
 696              		.type	testthd3, %object
 697              		.size	testthd3, 16
 698              	testthd3:
 699 0000 2C000000 		.word	.LC7
 700 0004 00000000 		.word	0
 701 0008 00000000 		.word	0
 702 000c 00000000 		.word	thd3_execute
 703              		.section	.rodata.testthd4,"a",%progbits
 704              		.align	2
 705              		.type	testthd4, %object
 706              		.size	testthd4, 16
 707              	testthd4:
 708 0000 1C000000 		.word	.LC6
 709 0004 00000000 		.word	0
 710 0008 00000000 		.word	0
 711 000c 00000000 		.word	thd4_execute
 712              		.section	.rodata.patternthd,"a",%progbits
 713              		.align	2
 714              		.type	patternthd, %object
 715              		.size	patternthd, 20
 716              	patternthd:
 717 0000 00000000 		.word	testthd1
 718 0004 00000000 		.word	testthd2
 719 0008 00000000 		.word	testthd3
 720 000c 00000000 		.word	testthd4
 721 0010 00000000 		.word	0
 722              		.section	.rodata.str1.4,"aMS",%progbits,1
 723              		.align	2
 724              	.LC0:
 725 0000 4400     		.ascii	"D\000"
 726 0002 0000     		.space	2
 727              	.LC1:
 728 0004 4500     		.ascii	"E\000"
 729 0006 0000     		.space	2
 730              	.LC2:
 731 0008 4100     		.ascii	"A\000"
 732 000a 0000     		.space	2
 733              	.LC3:
 734 000c 4200     		.ascii	"B\000"
 735 000e 0000     		.space	2
 736              	.LC4:
 737 0010 4300     		.ascii	"C\000"
 738 0012 0000     		.space	2
ARM GAS  /tmp/ccAzizIy.s 			page 14


 739              	.LC5:
 740 0014 41424344 		.ascii	"ABCDE\000"
 740      4500
 741 001a 0000     		.space	2
 742              	.LC6:
 743 001c 54687265 		.ascii	"Threads, delays\000"
 743      6164732C 
 743      2064656C 
 743      61797300 
 744              	.LC7:
 745 002c 54687265 		.ascii	"Threads, priority change\000"
 745      6164732C 
 745      20707269 
 745      6F726974 
 745      79206368 
 746 0045 000000   		.space	3
 747              	.LC8:
 748 0048 54687265 		.ascii	"Threads, enqueuing test #2\000"
 748      6164732C 
 748      20656E71 
 748      75657569 
 748      6E672074 
 749 0063 00       		.space	1
 750              	.LC9:
 751 0064 54687265 		.ascii	"Threads, enqueuing test #1\000"
 751      6164732C 
 751      20656E71 
 751      75657569 
 751      6E672074 
 752 007f 00       		.text
 753              	.Letext0:
 754              		.file 2 "/opt/tools_arm/lib/gcc/arm-none-eabi/4.7.3/include/stddef.h"
 755              		.file 3 "/opt/tools_arm/lib/gcc/arm-none-eabi/4.7.3/../../../../arm-none-eabi/include/stdint.h"
 756              		.file 4 "/home/felix/Documents/ChibiOS/os/ports/GCC/ARMCMx/chtypes.h"
 757              		.file 5 "/home/felix/Documents/ChibiOS/os/kernel/include/chlists.h"
 758              		.file 6 "/home/felix/Documents/ChibiOS/os/kernel/include/chthreads.h"
 759              		.file 7 "/home/felix/Documents/ChibiOS/os/ports/GCC/ARMCMx/chcore_v7m.h"
 760              		.file 8 "/home/felix/Documents/ChibiOS/os/kernel/include/chvt.h"
 761              		.file 9 "/home/felix/Documents/ChibiOS/os/kernel/include/chschd.h"
 762              		.file 10 "/home/felix/Documents/ChibiOS/os/kernel/include/chmtx.h"
 763              		.file 11 "/home/felix/Documents/ChibiOS/test/test.h"