ARM GAS  /tmp/ccv8GbkB.s 			page 1


   1              		.syntax unified
   2              		.cpu cortex-m4
   3              		.fpu softvfp
   4              		.eabi_attribute 20, 1
   5              		.eabi_attribute 21, 1
   6              		.eabi_attribute 23, 3
   7              		.eabi_attribute 24, 1
   8              		.eabi_attribute 25, 1
   9              		.eabi_attribute 26, 1
  10              		.eabi_attribute 30, 2
  11              		.eabi_attribute 34, 1
  12              		.eabi_attribute 18, 4
  13              		.thumb
  14              		.file	"testqueues.c"
  15              		.text
  16              	.Ltext0:
  17              		.cfi_sections	.debug_frame
  18              		.section	.text.notify,"ax",%progbits
  19              		.align	2
  20              		.p2align 4,,15
  21              		.thumb
  22              		.thumb_func
  23              		.type	notify, %function
  24              	notify:
  25              	.LFB7:
  26              		.file 1 "/home/felix/Documents/ChibiOS/test/testqueues.c"
  27              		.loc 1 57 0
  28              		.cfi_startproc
  29              		@ args = 0, pretend = 0, frame = 0
  30              		@ frame_needed = 0, uses_anonymous_args = 0
  31              		@ link register save eliminated.
  32              	.LVL0:
  33 0000 7047     		bx	lr
  34              		.cfi_endproc
  35              	.LFE7:
  36              		.size	notify, .-notify
  37 0002 00BFAFF3 		.section	.text.thread2,"ax",%progbits
  37      0080AFF3 
  37      0080AFF3 
  37      0080
  38              		.align	2
  39              		.p2align 4,,15
  40              		.thumb
  41              		.thumb_func
  42              		.type	thread2, %function
  43              	thread2:
  44              	.LFB12:
  45              		.loc 1 170 0
  46              		.cfi_startproc
  47              		@ args = 0, pretend = 0, frame = 0
  48              		@ frame_needed = 0, uses_anonymous_args = 0
  49              	.LVL1:
  50              		.loc 1 173 0
  51 0000 40F20000 		movw	r0, #:lower16:.LANCHOR0
  52              	.LVL2:
  53              		.loc 1 170 0
  54 0004 08B5     		push	{r3, lr}
ARM GAS  /tmp/ccv8GbkB.s 			page 2


  55              	.LCFI0:
  56              		.cfi_def_cfa_offset 8
  57              		.cfi_offset 3, -8
  58              		.cfi_offset 14, -4
  59              		.loc 1 173 0
  60 0006 0021     		movs	r1, #0
  61 0008 C822     		movs	r2, #200
  62 000a C0F20000 		movt	r0, #:upper16:.LANCHOR0
  63 000e FFF7FEFF 		bl	chOQPutTimeout
  64              	.LVL3:
  65              		.loc 1 175 0
  66 0012 0020     		movs	r0, #0
  67 0014 08BD     		pop	{r3, pc}
  68              		.cfi_endproc
  69              	.LFE12:
  70              		.size	thread2, .-thread2
  71 0016 00BFAFF3 		.section	.text.queues2_setup,"ax",%progbits
  71      0080AFF3 
  71      0080
  72              		.align	2
  73              		.p2align 4,,15
  74              		.thumb
  75              		.thumb_func
  76              		.type	queues2_setup, %function
  77              	queues2_setup:
  78              	.LFB11:
  79              		.loc 1 165 0
  80              		.cfi_startproc
  81              		@ args = 0, pretend = 0, frame = 0
  82              		@ frame_needed = 0, uses_anonymous_args = 0
  83 0000 00B5     		push	{lr}
  84              	.LCFI1:
  85              		.cfi_def_cfa_offset 4
  86              		.cfi_offset 14, -4
  87              		.loc 1 167 0
  88 0002 40F20003 		movw	r3, #:lower16:wa
  89 0006 C0F20003 		movt	r3, #:upper16:wa
  90              		.loc 1 165 0
  91 000a 83B0     		sub	sp, sp, #12
  92              	.LCFI2:
  93              		.cfi_def_cfa_offset 16
  94              		.loc 1 167 0
  95 000c 1968     		ldr	r1, [r3, #0]
  96 000e 0022     		movs	r2, #0
  97 0010 40F20000 		movw	r0, #:lower16:.LANCHOR0
  98 0014 40F20003 		movw	r3, #:lower16:notify
  99 0018 0092     		str	r2, [sp, #0]
 100 001a C0F20000 		movt	r0, #:upper16:.LANCHOR0
 101 001e C0F20003 		movt	r3, #:upper16:notify
 102 0022 0422     		movs	r2, #4
 103 0024 FFF7FEFF 		bl	chOQInit
 104              	.LVL4:
 105              		.loc 1 168 0
 106 0028 03B0     		add	sp, sp, #12
 107 002a 00BD     		pop	{pc}
 108              		.cfi_endproc
 109              	.LFE11:
ARM GAS  /tmp/ccv8GbkB.s 			page 3


 110              		.size	queues2_setup, .-queues2_setup
 111 002c AFF30080 		.section	.text.thread1,"ax",%progbits
 112              		.align	2
 113              		.p2align 4,,15
 114              		.thumb
 115              		.thumb_func
 116              		.type	thread1, %function
 117              	thread1:
 118              	.LFB9:
 119              		.loc 1 83 0
 120              		.cfi_startproc
 121              		@ args = 0, pretend = 0, frame = 0
 122              		@ frame_needed = 0, uses_anonymous_args = 0
 123              	.LVL5:
 124              		.loc 1 86 0
 125 0000 40F20000 		movw	r0, #:lower16:.LANCHOR1
 126              	.LVL6:
 127              		.loc 1 83 0
 128 0004 08B5     		push	{r3, lr}
 129              	.LCFI3:
 130              		.cfi_def_cfa_offset 8
 131              		.cfi_offset 3, -8
 132              		.cfi_offset 14, -4
 133              		.loc 1 86 0
 134 0006 C821     		movs	r1, #200
 135 0008 C0F20000 		movt	r0, #:upper16:.LANCHOR1
 136 000c FFF7FEFF 		bl	chIQGetTimeout
 137              	.LVL7:
 138              		.loc 1 88 0
 139 0010 0020     		movs	r0, #0
 140 0012 08BD     		pop	{r3, pc}
 141              		.cfi_endproc
 142              	.LFE9:
 143              		.size	thread1, .-thread1
 144 0014 AFF30080 		.section	.text.queues1_setup,"ax",%progbits
 144      AFF30080 
 144      AFF30080 
 145              		.align	2
 146              		.p2align 4,,15
 147              		.thumb
 148              		.thumb_func
 149              		.type	queues1_setup, %function
 150              	queues1_setup:
 151              	.LFB8:
 152              		.loc 1 78 0
 153              		.cfi_startproc
 154              		@ args = 0, pretend = 0, frame = 0
 155              		@ frame_needed = 0, uses_anonymous_args = 0
 156 0000 00B5     		push	{lr}
 157              	.LCFI4:
 158              		.cfi_def_cfa_offset 4
 159              		.cfi_offset 14, -4
 160              		.loc 1 80 0
 161 0002 40F20003 		movw	r3, #:lower16:wa
 162 0006 C0F20003 		movt	r3, #:upper16:wa
 163              		.loc 1 78 0
 164 000a 83B0     		sub	sp, sp, #12
ARM GAS  /tmp/ccv8GbkB.s 			page 4


 165              	.LCFI5:
 166              		.cfi_def_cfa_offset 16
 167              		.loc 1 80 0
 168 000c 1968     		ldr	r1, [r3, #0]
 169 000e 0022     		movs	r2, #0
 170 0010 40F20000 		movw	r0, #:lower16:.LANCHOR1
 171 0014 40F20003 		movw	r3, #:lower16:notify
 172 0018 0092     		str	r2, [sp, #0]
 173 001a C0F20000 		movt	r0, #:upper16:.LANCHOR1
 174 001e C0F20003 		movt	r3, #:upper16:notify
 175 0022 0422     		movs	r2, #4
 176 0024 FFF7FEFF 		bl	chIQInit
 177              	.LVL8:
 178              		.loc 1 81 0
 179 0028 03B0     		add	sp, sp, #12
 180 002a 00BD     		pop	{pc}
 181              		.cfi_endproc
 182              	.LFE8:
 183              		.size	queues1_setup, .-queues1_setup
 184 002c AFF30080 		.section	.text.queues2_execute,"ax",%progbits
 185              		.align	2
 186              		.p2align 4,,15
 187              		.thumb
 188              		.thumb_func
 189              		.type	queues2_execute, %function
 190              	queues2_execute:
 191              	.LFB13:
 192              		.loc 1 177 0
 193              		.cfi_startproc
 194              		@ args = 0, pretend = 0, frame = 0
 195              		@ frame_needed = 0, uses_anonymous_args = 0
 196 0000 2DE9F041 		push	{r4, r5, r6, r7, r8, lr}
 197              	.LCFI6:
 198              		.cfi_def_cfa_offset 24
 199              		.cfi_offset 4, -24
 200              		.cfi_offset 5, -20
 201              		.cfi_offset 6, -16
 202              		.cfi_offset 7, -12
 203              		.cfi_offset 8, -8
 204              		.cfi_offset 14, -4
 205              	.LBB96:
 206              		.loc 1 182 0
 207 0004 2023     		movs	r3, #32
 208              	.LVL9:
 209              	.LBE96:
 210              		.loc 1 177 0
 211 0006 82B0     		sub	sp, sp, #8
 212              	.LCFI7:
 213              		.cfi_def_cfa_offset 32
 214              	.LBB97:
 215              		.loc 1 182 0
 216              	@ 182 "/home/felix/Documents/ChibiOS/test/testqueues.c" 1
 217 0008 83F31188 		msr     BASEPRI, r3
 218              	@ 0 "" 2
 219              	.LVL10:
 220              		.thumb
 221              	.LBE97:
ARM GAS  /tmp/ccv8GbkB.s 			page 5


 222 000c 914B     		ldr	r3, .L31
 223              	.LVL11:
 224 000e 5969     		ldr	r1, [r3, #20]
 225 0010 9A69     		ldr	r2, [r3, #24]
 226 0012 9142     		cmp	r1, r2
 227 0014 18BF     		it	ne
 228 0016 0021     		movne	r1, #0
 229 0018 62D0     		beq	.L29
 230              	.L7:
 231              		.loc 1 182 0 is_stmt 0 discriminator 4
 232 001a 0120     		movs	r0, #1
 233 001c FFF7FEFF 		bl	_test_assert
 234              	.LVL12:
 235 0020 0028     		cmp	r0, #0
 236 0022 3AD1     		bne	.L27
 237              	.LBB98:
 238              	.LBB99:
 239              	.LBB100:
 240              		.loc 1 182 0
 241 0024 0346     		mov	r3, r0
 242              	.LVL13:
 243              	@ 182 "/home/felix/Documents/ChibiOS/test/testqueues.c" 1
 244 0026 83F31188 		msr     BASEPRI, r3
 245              	@ 0 "" 2
 246              	.LVL14:
 247              		.thumb
 248 002a 4124     		movs	r4, #65
 249              	.LVL15:
 250              	.L10:
 251              	.LBE100:
 252              		.loc 1 186 0 is_stmt 1
 253 002c 894D     		ldr	r5, .L31
 254 002e 2146     		mov	r1, r4
 255 0030 0134     		adds	r4, r4, #1
 256 0032 2846     		mov	r0, r5
 257 0034 4FF0FF32 		mov	r2, #-1
 258 0038 E4B2     		uxtb	r4, r4
 259 003a FFF7FEFF 		bl	chOQPutTimeout
 260              	.LVL16:
 261              		.loc 1 185 0
 262 003e 452C     		cmp	r4, #69
 263 0040 F4D1     		bne	.L10
 264              	.LBB101:
 265              		.loc 1 187 0
 266 0042 2023     		movs	r3, #32
 267              	.LVL17:
 268              	@ 187 "/home/felix/Documents/ChibiOS/test/testqueues.c" 1
 269 0044 83F31188 		msr     BASEPRI, r3
 270              	@ 0 "" 2
 271              	.LVL18:
 272              		.thumb
 273              	.LBE101:
 274 0048 A968     		ldr	r1, [r5, #8]
 275 004a D1F10101 		rsbs	r1, r1, #1
 276 004e 38BF     		it	cc
 277 0050 0021     		movcc	r1, #0
 278 0052 0220     		movs	r0, #2
ARM GAS  /tmp/ccv8GbkB.s 			page 6


 279 0054 FFF7FEFF 		bl	_test_assert
 280              	.LVL19:
 281 0058 F8B9     		cbnz	r0, .L27
 282              	.LBB102:
 283 005a 0346     		mov	r3, r0
 284              	.LVL20:
 285              	@ 187 "/home/felix/Documents/ChibiOS/test/testqueues.c" 1
 286 005c 83F31188 		msr     BASEPRI, r3
 287              	@ 0 "" 2
 288              	.LVL21:
 289              		.thumb
 290 0060 0424     		movs	r4, #4
 291              	.LVL22:
 292              	.L12:
 293              	.LBE102:
 294              	.LBB103:
 295              	.LBB104:
 296              		.loc 1 193 0
 297 0062 2023     		movs	r3, #32
 298              	.LVL23:
 299              	@ 193 "/home/felix/Documents/ChibiOS/test/testqueues.c" 1
 300 0064 83F31188 		msr     BASEPRI, r3
 301              	@ 0 "" 2
 302              	.LVL24:
 303              		.thumb
 304              	.LBE104:
 305              		.loc 1 194 0
 306 0068 7A4D     		ldr	r5, .L31
 307 006a 2846     		mov	r0, r5
 308 006c FFF7FEFF 		bl	chOQGetI
 309              	.LVL25:
 310              	.LBB105:
 311              		.loc 1 195 0
 312 0070 0023     		movs	r3, #0
 313              	.LVL26:
 314              	@ 195 "/home/felix/Documents/ChibiOS/test/testqueues.c" 1
 315 0072 83F31188 		msr     BASEPRI, r3
 316              	@ 0 "" 2
 317              	.LVL27:
 318              		.thumb
 319              	.LBE105:
 320              		.loc 1 196 0
 321 0076 C0B2     		uxtb	r0, r0
 322              	.LVL28:
 323 0078 FFF7FEFF 		bl	test_emit_token
 324              	.LVL29:
 325              	.LBE103:
 326              		.loc 1 190 0
 327 007c 013C     		subs	r4, r4, #1
 328 007e F0D1     		bne	.L12
 329              	.LBB106:
 330              		.loc 1 198 0
 331 0080 2023     		movs	r3, #32
 332              	.LVL30:
 333              	@ 198 "/home/felix/Documents/ChibiOS/test/testqueues.c" 1
 334 0082 83F31188 		msr     BASEPRI, r3
 335              	@ 0 "" 2
ARM GAS  /tmp/ccv8GbkB.s 			page 7


 336              	.LVL31:
 337              		.thumb
 338              	.LBE106:
 339 0086 6A69     		ldr	r2, [r5, #20]
 340 0088 AB69     		ldr	r3, [r5, #24]
 341              	.LVL32:
 342 008a 9A42     		cmp	r2, r3
 343 008c 18BF     		it	ne
 344 008e 2146     		movne	r1, r4
 345 0090 2BD0     		beq	.L30
 346              	.L13:
 347 0092 0320     		movs	r0, #3
 348 0094 FFF7FEFF 		bl	_test_assert
 349              	.LVL33:
 350 0098 28B1     		cbz	r0, .L14
 351              	.L27:
 352              	.LBB107:
 353 009a 0023     		movs	r3, #0
 354              	.LVL34:
 355              	@ 198 "/home/felix/Documents/ChibiOS/test/testqueues.c" 1
 356 009c 83F31188 		msr     BASEPRI, r3
 357              	@ 0 "" 2
 358              	.LVL35:
 359              		.thumb
 360              	.L6:
 361              	.LBE107:
 362              	.LBE99:
 363              	.LBE98:
 364              		.loc 1 225 0
 365 00a0 02B0     		add	sp, sp, #8
 366 00a2 BDE8F081 		pop	{r4, r5, r6, r7, r8, pc}
 367              	.LVL36:
 368              	.L14:
 369              	.LBB129:
 370              	.LBB126:
 371              	.LBB108:
 372              		.loc 1 198 0
 373 00a6 0346     		mov	r3, r0
 374              	.LVL37:
 375              	@ 198 "/home/felix/Documents/ChibiOS/test/testqueues.c" 1
 376 00a8 83F31188 		msr     BASEPRI, r3
 377              	@ 0 "" 2
 378              	.LVL38:
 379              		.thumb
 380              	.LBE108:
 381              		.loc 1 199 0
 382 00ac 0420     		movs	r0, #4
 383 00ae 6A49     		ldr	r1, .L31+4
 384 00b0 FFF7FEFF 		bl	_test_assert_sequence
 385              	.LVL39:
 386 00b4 0446     		mov	r4, r0
 387 00b6 0028     		cmp	r0, #0
 388 00b8 F2D1     		bne	.L6
 389              	.LBB109:
 390              		.loc 1 200 0
 391 00ba 2023     		movs	r3, #32
 392              	.LVL40:
ARM GAS  /tmp/ccv8GbkB.s 			page 8


 393              	@ 200 "/home/felix/Documents/ChibiOS/test/testqueues.c" 1
 394 00bc 83F31188 		msr     BASEPRI, r3
 395              	@ 0 "" 2
 396              	.LVL41:
 397              		.thumb
 398              	.LBE109:
 399 00c0 644D     		ldr	r5, .L31
 400 00c2 2846     		mov	r0, r5
 401 00c4 FFF7FEFF 		bl	chOQGetI
 402              	.LVL42:
 403 00c8 0330     		adds	r0, r0, #3
 404 00ca 14BF     		ite	ne
 405 00cc 0021     		movne	r1, #0
 406 00ce 0121     		moveq	r1, #1
 407 00d0 0520     		movs	r0, #5
 408 00d2 FFF7FEFF 		bl	_test_assert
 409              	.LVL43:
 410 00d6 68B1     		cbz	r0, .L16
 411              	.LBB110:
 412 00d8 2346     		mov	r3, r4
 413              	@ 200 "/home/felix/Documents/ChibiOS/test/testqueues.c" 1
 414 00da 83F31188 		msr     BASEPRI, r3
 415              	@ 0 "" 2
 416              	.LVL44:
 417              		.thumb
 418 00de DFE7     		b	.L6
 419              	.LVL45:
 420              	.L29:
 421              	.LBE110:
 422              	.LBE126:
 423              	.LBE129:
 424              		.loc 1 182 0 discriminator 1
 425 00e0 9968     		ldr	r1, [r3, #8]
 426 00e2 0031     		adds	r1, r1, #0
 427 00e4 18BF     		it	ne
 428 00e6 0121     		movne	r1, #1
 429 00e8 97E7     		b	.L7
 430              	.L30:
 431              	.LBB130:
 432              	.LBB127:
 433              		.loc 1 198 0
 434 00ea A968     		ldr	r1, [r5, #8]
 435 00ec 0031     		adds	r1, r1, #0
 436 00ee 18BF     		it	ne
 437 00f0 0121     		movne	r1, #1
 438 00f2 CEE7     		b	.L13
 439              	.L16:
 440              	.LBB111:
 441              		.loc 1 200 0
 442 00f4 0346     		mov	r3, r0
 443              	.LVL46:
 444              	@ 200 "/home/felix/Documents/ChibiOS/test/testqueues.c" 1
 445 00f6 83F31188 		msr     BASEPRI, r3
 446              	@ 0 "" 2
 447              	.LVL47:
 448              		.thumb
 449              	.LBE111:
ARM GAS  /tmp/ccv8GbkB.s 			page 9


 450              		.loc 1 203 0
 451 00fa 584E     		ldr	r6, .L31+8
 452 00fc 7468     		ldr	r4, [r6, #4]
 453 00fe 0822     		movs	r2, #8
 454 0100 2146     		mov	r1, r4
 455 0102 2846     		mov	r0, r5
 456 0104 FFF7FEFF 		bl	chOQWriteTimeout
 457              	.LVL48:
 458              		.loc 1 204 0
 459 0108 031F     		subs	r3, r0, #4
 460 010a 5942     		rsbs	r1, r3, #0
 461 010c 5941     		adcs	r1, r1, r3
 462 010e 0620     		movs	r0, #6
 463              	.LVL49:
 464 0110 FFF7FEFF 		bl	_test_assert
 465              	.LVL50:
 466 0114 0746     		mov	r7, r0
 467 0116 0028     		cmp	r0, #0
 468 0118 C2D1     		bne	.L6
 469              	.LBB112:
 470              		.loc 1 205 0
 471 011a 2023     		movs	r3, #32
 472              	.LVL51:
 473              	@ 205 "/home/felix/Documents/ChibiOS/test/testqueues.c" 1
 474 011c 83F31188 		msr     BASEPRI, r3
 475              	@ 0 "" 2
 476              	.LVL52:
 477              		.thumb
 478              	.LBE112:
 479 0120 A968     		ldr	r1, [r5, #8]
 480 0122 D1F10101 		rsbs	r1, r1, #1
 481 0126 4FF00700 		mov	r0, #7
 482 012a 38BF     		it	cc
 483 012c 0021     		movcc	r1, #0
 484 012e FFF7FEFF 		bl	_test_assert
 485              	.LVL53:
 486 0132 8046     		mov	r8, r0
 487 0134 18B1     		cbz	r0, .L18
 488              	.LBB113:
 489 0136 3B46     		mov	r3, r7
 490              	@ 205 "/home/felix/Documents/ChibiOS/test/testqueues.c" 1
 491 0138 83F31188 		msr     BASEPRI, r3
 492              	@ 0 "" 2
 493              	.LVL54:
 494              		.thumb
 495 013c B0E7     		b	.L6
 496              	.LVL55:
 497              	.L18:
 498              	.LBE113:
 499              	.LBB114:
 500 013e 0346     		mov	r3, r0
 501              	.LVL56:
 502              	@ 205 "/home/felix/Documents/ChibiOS/test/testqueues.c" 1
 503 0140 83F31188 		msr     BASEPRI, r3
 504              	@ 0 "" 2
 505              	.LVL57:
 506              		.thumb
ARM GAS  /tmp/ccv8GbkB.s 			page 10


 507              	.LBE114:
 508              		.loc 1 206 0
 509 0144 464B     		ldr	r3, .L31+12
 510              	.LVL58:
 511 0146 3068     		ldr	r0, [r6, #0]
 512 0148 9A69     		ldr	r2, [r3, #24]
 513 014a 464B     		ldr	r3, .L31+16
 514 014c 9268     		ldr	r2, [r2, #8]
 515 014e CDF80080 		str	r8, [sp, #0]
 516 0152 0132     		adds	r2, r2, #1
 517 0154 4FF49871 		mov	r1, #304
 518 0158 FFF7FEFF 		bl	chThdCreateStatic
 519              	.LVL59:
 520 015c 424A     		ldr	r2, .L31+20
 521              	.LBB115:
 522              		.loc 1 207 0
 523 015e 2023     		movs	r3, #32
 524              	.LVL60:
 525              	.LBE115:
 526              		.loc 1 206 0
 527 0160 1060     		str	r0, [r2, #0]
 528              	.LBB116:
 529              		.loc 1 207 0
 530              	@ 207 "/home/felix/Documents/ChibiOS/test/testqueues.c" 1
 531 0162 83F31188 		msr     BASEPRI, r3
 532              	@ 0 "" 2
 533              	.LVL61:
 534              		.thumb
 535              	.LBE116:
 536 0166 2969     		ldr	r1, [r5, #16]
 537 0168 EA68     		ldr	r2, [r5, #12]
 538 016a AB68     		ldr	r3, [r5, #8]
 539              	.LVL62:
 540 016c 8A1A     		subs	r2, r1, r2
 541 016e D11A     		subs	r1, r2, r3
 542 0170 B1F1040C 		subs	ip, r1, #4
 543 0174 DCF10001 		rsbs	r1, ip, #0
 544 0178 51EB0C01 		adcs	r1, r1, ip
 545 017c 0820     		movs	r0, #8
 546 017e FFF7FEFF 		bl	_test_assert
 547              	.LVL63:
 548 0182 0646     		mov	r6, r0
 549 0184 18B1     		cbz	r0, .L19
 550              	.LBB117:
 551 0186 4346     		mov	r3, r8
 552              	@ 207 "/home/felix/Documents/ChibiOS/test/testqueues.c" 1
 553 0188 83F31188 		msr     BASEPRI, r3
 554              	@ 0 "" 2
 555              	.LVL64:
 556              		.thumb
 557 018c 88E7     		b	.L6
 558              	.LVL65:
 559              	.L19:
 560              	.LBE117:
 561              	.LBB118:
 562 018e 0346     		mov	r3, r0
 563              	.LVL66:
ARM GAS  /tmp/ccv8GbkB.s 			page 11


 564              	@ 207 "/home/felix/Documents/ChibiOS/test/testqueues.c" 1
 565 0190 83F31188 		msr     BASEPRI, r3
 566              	@ 0 "" 2
 567              	.LVL67:
 568              		.thumb
 569              	.LBE118:
 570              		.loc 1 208 0
 571 0194 FFF7FEFF 		bl	test_wait_threads
 572              	.LVL68:
 573              	.LBB119:
 574              		.loc 1 211 0
 575 0198 2023     		movs	r3, #32
 576              	.LVL69:
 577              	@ 211 "/home/felix/Documents/ChibiOS/test/testqueues.c" 1
 578 019a 83F31188 		msr     BASEPRI, r3
 579              	@ 0 "" 2
 580              	.LVL70:
 581              		.thumb
 582              	.LBE119:
 583              		.loc 1 212 0
 584 019e 2846     		mov	r0, r5
 585 01a0 FFF7FEFF 		bl	chOQResetI
 586              	.LVL71:
 587              	.LBB120:
 588              		.loc 1 213 0
 589 01a4 3346     		mov	r3, r6
 590              	.LVL72:
 591              	@ 213 "/home/felix/Documents/ChibiOS/test/testqueues.c" 1
 592 01a6 83F31188 		msr     BASEPRI, r3
 593              	@ 0 "" 2
 594              	.LVL73:
 595              		.thumb
 596              	.LBE120:
 597              	.LBB121:
 598              		.loc 1 214 0
 599 01aa 2023     		movs	r3, #32
 600              	.LVL74:
 601              	@ 214 "/home/felix/Documents/ChibiOS/test/testqueues.c" 1
 602 01ac 83F31188 		msr     BASEPRI, r3
 603              	@ 0 "" 2
 604              	.LVL75:
 605              		.thumb
 606              	.LBE121:
 607 01b0 2969     		ldr	r1, [r5, #16]
 608 01b2 EA68     		ldr	r2, [r5, #12]
 609 01b4 AB68     		ldr	r3, [r5, #8]
 610              	.LVL76:
 611 01b6 891A     		subs	r1, r1, r2
 612 01b8 B1EB030E 		subs	lr, r1, r3
 613 01bc DEF10001 		rsbs	r1, lr, #0
 614 01c0 51EB0E01 		adcs	r1, r1, lr
 615 01c4 0920     		movs	r0, #9
 616 01c6 FFF7FEFF 		bl	_test_assert
 617              	.LVL77:
 618 01ca 0346     		mov	r3, r0
 619 01cc 18B1     		cbz	r0, .L20
 620              	.LBB122:
ARM GAS  /tmp/ccv8GbkB.s 			page 12


 621 01ce 3346     		mov	r3, r6
 622              	@ 214 "/home/felix/Documents/ChibiOS/test/testqueues.c" 1
 623 01d0 83F31188 		msr     BASEPRI, r3
 624              	@ 0 "" 2
 625              	.LVL78:
 626              		.thumb
 627 01d4 64E7     		b	.L6
 628              	.LVL79:
 629              	.L20:
 630              	.LBE122:
 631              	.LBB123:
 632              	@ 214 "/home/felix/Documents/ChibiOS/test/testqueues.c" 1
 633 01d6 83F31188 		msr     BASEPRI, r3
 634              	@ 0 "" 2
 635              	.LVL80:
 636              		.thumb
 637              	.LBE123:
 638              		.loc 1 217 0
 639 01da 0222     		movs	r2, #2
 640 01dc 2146     		mov	r1, r4
 641 01de 2846     		mov	r0, r5
 642 01e0 FFF7FEFF 		bl	chOQWriteTimeout
 643              	.LVL81:
 644              		.loc 1 218 0
 645 01e4 0238     		subs	r0, r0, #2
 646              	.LVL82:
 647 01e6 4142     		rsbs	r1, r0, #0
 648 01e8 4141     		adcs	r1, r1, r0
 649 01ea 0A20     		movs	r0, #10
 650              	.LVL83:
 651 01ec FFF7FEFF 		bl	_test_assert
 652              	.LVL84:
 653 01f0 0346     		mov	r3, r0
 654 01f2 0028     		cmp	r0, #0
 655 01f4 7FF454AF 		bne	.L6
 656              		.loc 1 219 0
 657 01f8 2146     		mov	r1, r4
 658 01fa 0222     		movs	r2, #2
 659 01fc 2846     		mov	r0, r5
 660 01fe FFF7FEFF 		bl	chOQWriteTimeout
 661              	.LVL85:
 662              		.loc 1 220 0
 663 0202 821E     		subs	r2, r0, #2
 664 0204 5142     		rsbs	r1, r2, #0
 665 0206 5141     		adcs	r1, r1, r2
 666 0208 0B20     		movs	r0, #11
 667              	.LVL86:
 668 020a FFF7FEFF 		bl	_test_assert
 669              	.LVL87:
 670 020e 0028     		cmp	r0, #0
 671 0210 7FF446AF 		bne	.L6
 672              	.LBB124:
 673              		.loc 1 221 0
 674 0214 2023     		movs	r3, #32
 675              	.LVL88:
 676              	@ 221 "/home/felix/Documents/ChibiOS/test/testqueues.c" 1
 677 0216 83F31188 		msr     BASEPRI, r3
ARM GAS  /tmp/ccv8GbkB.s 			page 13


 678              	@ 0 "" 2
 679              	.LVL89:
 680              		.thumb
 681              	.LBE124:
 682 021a A968     		ldr	r1, [r5, #8]
 683 021c D1F10101 		rsbs	r1, r1, #1
 684 0220 38BF     		it	cc
 685 0222 0021     		movcc	r1, #0
 686 0224 0C20     		movs	r0, #12
 687 0226 FFF7FEFF 		bl	_test_assert
 688              	.LVL90:
 689              	.LBB125:
 690 022a 0023     		movs	r3, #0
 691              	@ 221 "/home/felix/Documents/ChibiOS/test/testqueues.c" 1
 692 022c 83F31188 		msr     BASEPRI, r3
 693              	@ 0 "" 2
 694              	.LVL91:
 695              		.thumb
 696              	.LBE125:
 697 0230 0028     		cmp	r0, #0
 698 0232 7FF435AF 		bne	.L6
 699              		.loc 1 224 0
 700 0236 1946     		mov	r1, r3
 701              	.LVL92:
 702 0238 0A22     		movs	r2, #10
 703 023a 0648     		ldr	r0, .L31
 704 023c FFF7FEFF 		bl	chOQPutTimeout
 705              	.LVL93:
 706 0240 B0F1FF33 		subs	r3, r0, #-1
 707 0244 5942     		rsbs	r1, r3, #0
 708 0246 5941     		adcs	r1, r1, r3
 709 0248 0D20     		movs	r0, #13
 710              	.LBE127:
 711              	.LBE130:
 712              		.loc 1 225 0
 713 024a 02B0     		add	sp, sp, #8
 714 024c BDE8F041 		pop	{r4, r5, r6, r7, r8, lr}
 715              	.LBB131:
 716              	.LBB128:
 717              		.loc 1 224 0
 718 0250 FFF7FEBF 		b	_test_assert
 719              	.LVL94:
 720              	.L32:
 721              		.align	2
 722              	.L31:
 723 0254 00000000 		.word	.LANCHOR0
 724 0258 00000000 		.word	.LC0
 725 025c 00000000 		.word	wa
 726 0260 00000000 		.word	rlist
 727 0264 00000000 		.word	thread2
 728 0268 00000000 		.word	threads
 729              	.LBE128:
 730              	.LBE131:
 731              		.cfi_endproc
 732              	.LFE13:
 733              		.size	queues2_execute, .-queues2_execute
 734 026c AFF30080 		.section	.text.queues1_execute,"ax",%progbits
ARM GAS  /tmp/ccv8GbkB.s 			page 14


 735              		.align	2
 736              		.p2align 4,,15
 737              		.thumb
 738              		.thumb_func
 739              		.type	queues1_execute, %function
 740              	queues1_execute:
 741              	.LFB10:
 742              		.loc 1 90 0
 743              		.cfi_startproc
 744              		@ args = 0, pretend = 0, frame = 0
 745              		@ frame_needed = 0, uses_anonymous_args = 0
 746 0000 F0B5     		push	{r4, r5, r6, r7, lr}
 747              	.LCFI8:
 748              		.cfi_def_cfa_offset 20
 749              		.cfi_offset 4, -20
 750              		.cfi_offset 5, -16
 751              		.cfi_offset 6, -12
 752              		.cfi_offset 7, -8
 753              		.cfi_offset 14, -4
 754              	.LBB168:
 755              		.loc 1 95 0
 756 0002 2023     		movs	r3, #32
 757              	.LVL95:
 758              	.LBE168:
 759              		.loc 1 90 0
 760 0004 83B0     		sub	sp, sp, #12
 761              	.LCFI9:
 762              		.cfi_def_cfa_offset 32
 763              	.LBB169:
 764              		.loc 1 95 0
 765              	@ 95 "/home/felix/Documents/ChibiOS/test/testqueues.c" 1
 766 0006 83F31188 		msr     BASEPRI, r3
 767              	@ 0 "" 2
 768              	.LVL96:
 769              		.thumb
 770              	.LBE169:
 771 000a A34C     		ldr	r4, .L52
 772 000c A168     		ldr	r1, [r4, #8]
 773 000e D1F10101 		rsbs	r1, r1, #1
 774 0012 4FF00100 		mov	r0, #1
 775 0016 38BF     		it	cc
 776 0018 0021     		movcc	r1, #0
 777 001a FFF7FEFF 		bl	_test_assert
 778              	.LVL97:
 779 001e 0546     		mov	r5, r0
 780 0020 38BB     		cbnz	r0, .L49
 781              	.LBB170:
 782              	.LBB171:
 783              	.LBB172:
 784 0022 0346     		mov	r3, r0
 785              	.LVL98:
 786              	@ 95 "/home/felix/Documents/ChibiOS/test/testqueues.c" 1
 787 0024 83F31188 		msr     BASEPRI, r3
 788              	@ 0 "" 2
 789              	.LVL99:
 790              		.thumb
 791              	.LBE172:
ARM GAS  /tmp/ccv8GbkB.s 			page 15


 792              	.LBB173:
 793              		.loc 1 98 0
 794 0028 2023     		movs	r3, #32
 795              	.LVL100:
 796              	@ 98 "/home/felix/Documents/ChibiOS/test/testqueues.c" 1
 797 002a 83F31188 		msr     BASEPRI, r3
 798              	@ 0 "" 2
 799              	.LVL101:
 800              		.thumb
 801              	.LBE173:
 802              		.loc 1 100 0
 803 002e 4121     		movs	r1, #65
 804 0030 2046     		mov	r0, r4
 805 0032 FFF7FEFF 		bl	chIQPutI
 806              	.LVL102:
 807 0036 2046     		mov	r0, r4
 808 0038 4221     		movs	r1, #66
 809 003a FFF7FEFF 		bl	chIQPutI
 810              	.LVL103:
 811 003e 2046     		mov	r0, r4
 812 0040 4321     		movs	r1, #67
 813 0042 FFF7FEFF 		bl	chIQPutI
 814              	.LVL104:
 815 0046 2046     		mov	r0, r4
 816 0048 4421     		movs	r1, #68
 817 004a FFF7FEFF 		bl	chIQPutI
 818              	.LVL105:
 819              	.LBB174:
 820              		.loc 1 101 0
 821 004e 2B46     		mov	r3, r5
 822              	.LVL106:
 823              	@ 101 "/home/felix/Documents/ChibiOS/test/testqueues.c" 1
 824 0050 83F31188 		msr     BASEPRI, r3
 825              	@ 0 "" 2
 826              	.LVL107:
 827              		.thumb
 828              	.LBE174:
 829              	.LBB175:
 830              		.loc 1 102 0
 831 0054 2023     		movs	r3, #32
 832              	.LVL108:
 833              	@ 102 "/home/felix/Documents/ChibiOS/test/testqueues.c" 1
 834 0056 83F31188 		msr     BASEPRI, r3
 835              	@ 0 "" 2
 836              	.LVL109:
 837              		.thumb
 838              	.LBE175:
 839 005a 6269     		ldr	r2, [r4, #20]
 840 005c A369     		ldr	r3, [r4, #24]
 841              	.LVL110:
 842 005e 9A42     		cmp	r2, r3
 843 0060 18BF     		it	ne
 844 0062 2946     		movne	r1, r5
 845 0064 00F01281 		beq	.L50
 846              	.L36:
 847 0068 0220     		movs	r0, #2
 848 006a FFF7FEFF 		bl	_test_assert
ARM GAS  /tmp/ccv8GbkB.s 			page 16


 849              	.LVL111:
 850 006e 0446     		mov	r4, r0
 851 0070 20B1     		cbz	r0, .L37
 852              	.LVL112:
 853              	.L49:
 854              	.LBB176:
 855 0072 0023     		movs	r3, #0
 856              	.LVL113:
 857              	@ 102 "/home/felix/Documents/ChibiOS/test/testqueues.c" 1
 858 0074 83F31188 		msr     BASEPRI, r3
 859              	@ 0 "" 2
 860              	.LVL114:
 861              		.thumb
 862              	.L33:
 863              	.LBE176:
 864              	.LBE171:
 865              	.LBE170:
 866              		.loc 1 147 0
 867 0078 03B0     		add	sp, sp, #12
 868 007a F0BD     		pop	{r4, r5, r6, r7, pc}
 869              	.LVL115:
 870              	.L37:
 871              	.LBB200:
 872              	.LBB198:
 873              	.LBB177:
 874              		.loc 1 102 0
 875 007c 0346     		mov	r3, r0
 876              	.LVL116:
 877              	@ 102 "/home/felix/Documents/ChibiOS/test/testqueues.c" 1
 878 007e 83F31188 		msr     BASEPRI, r3
 879              	@ 0 "" 2
 880              	.LVL117:
 881              		.thumb
 882              	.LBE177:
 883              	.LBB178:
 884              		.loc 1 103 0
 885 0082 2023     		movs	r3, #32
 886              	.LVL118:
 887              	@ 103 "/home/felix/Documents/ChibiOS/test/testqueues.c" 1
 888 0084 83F31188 		msr     BASEPRI, r3
 889              	@ 0 "" 2
 890              	.LVL119:
 891              		.thumb
 892              	.LBE178:
 893 0088 8348     		ldr	r0, .L52
 894 008a 2146     		mov	r1, r4
 895 008c FFF7FEFF 		bl	chIQPutI
 896              	.LVL120:
 897 0090 0430     		adds	r0, r0, #4
 898 0092 14BF     		ite	ne
 899 0094 0021     		movne	r1, #0
 900 0096 0121     		moveq	r1, #1
 901 0098 0320     		movs	r0, #3
 902 009a FFF7FEFF 		bl	_test_assert
 903              	.LVL121:
 904 009e 0028     		cmp	r0, #0
 905 00a0 40F0F080 		bne	.L51
ARM GAS  /tmp/ccv8GbkB.s 			page 17


 906              	.LBB179:
 907 00a4 0346     		mov	r3, r0
 908              	.LVL122:
 909              	@ 103 "/home/felix/Documents/ChibiOS/test/testqueues.c" 1
 910 00a6 83F31188 		msr     BASEPRI, r3
 911              	@ 0 "" 2
 912              	.LVL123:
 913              		.thumb
 914 00aa 0424     		movs	r4, #4
 915              	.LVL124:
 916              	.L39:
 917              	.LBE179:
 918              		.loc 1 107 0
 919 00ac 7A4D     		ldr	r5, .L52
 920 00ae 4FF0FF31 		mov	r1, #-1
 921 00b2 2846     		mov	r0, r5
 922 00b4 FFF7FEFF 		bl	chIQGetTimeout
 923              	.LVL125:
 924 00b8 C0B2     		uxtb	r0, r0
 925 00ba FFF7FEFF 		bl	test_emit_token
 926              	.LVL126:
 927              		.loc 1 106 0
 928 00be 013C     		subs	r4, r4, #1
 929 00c0 F4D1     		bne	.L39
 930              	.LBB180:
 931              		.loc 1 108 0
 932 00c2 2023     		movs	r3, #32
 933              	.LVL127:
 934              	@ 108 "/home/felix/Documents/ChibiOS/test/testqueues.c" 1
 935 00c4 83F31188 		msr     BASEPRI, r3
 936              	@ 0 "" 2
 937              	.LVL128:
 938              		.thumb
 939              	.LBE180:
 940 00c8 A968     		ldr	r1, [r5, #8]
 941 00ca D1F10101 		rsbs	r1, r1, #1
 942 00ce 38BF     		it	cc
 943 00d0 0021     		movcc	r1, #0
 944 00d2 0420     		movs	r0, #4
 945 00d4 FFF7FEFF 		bl	_test_assert
 946              	.LVL129:
 947              	.LBB181:
 948 00d8 2346     		mov	r3, r4
 949              	@ 108 "/home/felix/Documents/ChibiOS/test/testqueues.c" 1
 950 00da 83F31188 		msr     BASEPRI, r3
 951              	@ 0 "" 2
 952              	.LVL130:
 953              		.thumb
 954              	.LBE181:
 955 00de 0028     		cmp	r0, #0
 956 00e0 CAD1     		bne	.L33
 957              		.loc 1 109 0
 958 00e2 0520     		movs	r0, #5
 959 00e4 6D49     		ldr	r1, .L52+4
 960 00e6 FFF7FEFF 		bl	_test_assert_sequence
 961              	.LVL131:
 962 00ea 0028     		cmp	r0, #0
ARM GAS  /tmp/ccv8GbkB.s 			page 18


 963 00ec C4D1     		bne	.L33
 964              	.LBB182:
 965              		.loc 1 112 0
 966 00ee 2023     		movs	r3, #32
 967              	.LVL132:
 968              	@ 112 "/home/felix/Documents/ChibiOS/test/testqueues.c" 1
 969 00f0 83F31188 		msr     BASEPRI, r3
 970              	@ 0 "" 2
 971              	.LVL133:
 972              		.thumb
 973              	.LBE182:
 974              		.loc 1 114 0
 975 00f4 4121     		movs	r1, #65
 976 00f6 2846     		mov	r0, r5
 977 00f8 FFF7FEFF 		bl	chIQPutI
 978              	.LVL134:
 979 00fc 2846     		mov	r0, r5
 980 00fe 4221     		movs	r1, #66
 981 0100 FFF7FEFF 		bl	chIQPutI
 982              	.LVL135:
 983 0104 2846     		mov	r0, r5
 984 0106 4321     		movs	r1, #67
 985 0108 FFF7FEFF 		bl	chIQPutI
 986              	.LVL136:
 987 010c 2846     		mov	r0, r5
 988 010e 4421     		movs	r1, #68
 989 0110 FFF7FEFF 		bl	chIQPutI
 990              	.LVL137:
 991              	.LBB183:
 992              		.loc 1 115 0
 993 0114 2346     		mov	r3, r4
 994              	.LVL138:
 995              	@ 115 "/home/felix/Documents/ChibiOS/test/testqueues.c" 1
 996 0116 83F31188 		msr     BASEPRI, r3
 997              	@ 0 "" 2
 998              	.LVL139:
 999              		.thumb
 1000              	.LBE183:
 1001              		.loc 1 118 0
 1002 011a 614F     		ldr	r7, .L52+8
 1003 011c 7E68     		ldr	r6, [r7, #4]
 1004 011e 2846     		mov	r0, r5
 1005 0120 3146     		mov	r1, r6
 1006 0122 0822     		movs	r2, #8
 1007 0124 FFF7FEFF 		bl	chIQReadTimeout
 1008              	.LVL140:
 1009              		.loc 1 119 0
 1010 0128 B0F1040C 		subs	ip, r0, #4
 1011 012c DCF10001 		rsbs	r1, ip, #0
 1012 0130 51EB0C01 		adcs	r1, r1, ip
 1013 0134 0620     		movs	r0, #6
 1014              	.LVL141:
 1015 0136 FFF7FEFF 		bl	_test_assert
 1016              	.LVL142:
 1017 013a 0028     		cmp	r0, #0
 1018 013c 9CD1     		bne	.L33
 1019              	.LBB184:
ARM GAS  /tmp/ccv8GbkB.s 			page 19


 1020              		.loc 1 120 0
 1021 013e 2023     		movs	r3, #32
 1022              	.LVL143:
 1023              	@ 120 "/home/felix/Documents/ChibiOS/test/testqueues.c" 1
 1024 0140 83F31188 		msr     BASEPRI, r3
 1025              	@ 0 "" 2
 1026              	.LVL144:
 1027              		.thumb
 1028              	.LBE184:
 1029 0144 A968     		ldr	r1, [r5, #8]
 1030 0146 D1F10101 		rsbs	r1, r1, #1
 1031 014a 38BF     		it	cc
 1032 014c 0021     		movcc	r1, #0
 1033 014e 0720     		movs	r0, #7
 1034 0150 FFF7FEFF 		bl	_test_assert
 1035              	.LVL145:
 1036              	.LBB185:
 1037 0154 2346     		mov	r3, r4
 1038              	@ 120 "/home/felix/Documents/ChibiOS/test/testqueues.c" 1
 1039 0156 83F31188 		msr     BASEPRI, r3
 1040              	@ 0 "" 2
 1041              	.LVL146:
 1042              		.thumb
 1043              	.LBE185:
 1044 015a 0028     		cmp	r0, #0
 1045 015c 8CD1     		bne	.L33
 1046              	.LBB186:
 1047              		.loc 1 123 0
 1048 015e 2023     		movs	r3, #32
 1049              	.LVL147:
 1050              	@ 123 "/home/felix/Documents/ChibiOS/test/testqueues.c" 1
 1051 0160 83F31188 		msr     BASEPRI, r3
 1052              	@ 0 "" 2
 1053              	.LVL148:
 1054              		.thumb
 1055              	.LBE186:
 1056              		.loc 1 125 0
 1057 0164 4121     		movs	r1, #65
 1058 0166 2846     		mov	r0, r5
 1059 0168 FFF7FEFF 		bl	chIQPutI
 1060              	.LVL149:
 1061 016c 2846     		mov	r0, r5
 1062 016e 4221     		movs	r1, #66
 1063 0170 FFF7FEFF 		bl	chIQPutI
 1064              	.LVL150:
 1065 0174 2846     		mov	r0, r5
 1066 0176 4321     		movs	r1, #67
 1067 0178 FFF7FEFF 		bl	chIQPutI
 1068              	.LVL151:
 1069 017c 2846     		mov	r0, r5
 1070 017e 4421     		movs	r1, #68
 1071 0180 FFF7FEFF 		bl	chIQPutI
 1072              	.LVL152:
 1073              	.LBB187:
 1074              		.loc 1 126 0
 1075 0184 2346     		mov	r3, r4
 1076              	.LVL153:
ARM GAS  /tmp/ccv8GbkB.s 			page 20


 1077              	@ 126 "/home/felix/Documents/ChibiOS/test/testqueues.c" 1
 1078 0186 83F31188 		msr     BASEPRI, r3
 1079              	@ 0 "" 2
 1080              	.LVL154:
 1081              		.thumb
 1082              	.LBE187:
 1083              		.loc 1 129 0
 1084 018a 0222     		movs	r2, #2
 1085 018c 3146     		mov	r1, r6
 1086 018e 2846     		mov	r0, r5
 1087 0190 FFF7FEFF 		bl	chIQReadTimeout
 1088              	.LVL155:
 1089              		.loc 1 130 0
 1090 0194 B0F1020E 		subs	lr, r0, #2
 1091 0198 DEF10001 		rsbs	r1, lr, #0
 1092 019c 51EB0E01 		adcs	r1, r1, lr
 1093 01a0 0820     		movs	r0, #8
 1094              	.LVL156:
 1095 01a2 FFF7FEFF 		bl	_test_assert
 1096              	.LVL157:
 1097 01a6 0028     		cmp	r0, #0
 1098 01a8 7FF466AF 		bne	.L33
 1099              		.loc 1 131 0
 1100 01ac 3146     		mov	r1, r6
 1101 01ae 2846     		mov	r0, r5
 1102 01b0 0222     		movs	r2, #2
 1103 01b2 2346     		mov	r3, r4
 1104 01b4 FFF7FEFF 		bl	chIQReadTimeout
 1105              	.LVL158:
 1106              		.loc 1 132 0
 1107 01b8 0238     		subs	r0, r0, #2
 1108              	.LVL159:
 1109 01ba 4142     		rsbs	r1, r0, #0
 1110 01bc 4141     		adcs	r1, r1, r0
 1111 01be 0920     		movs	r0, #9
 1112              	.LVL160:
 1113 01c0 FFF7FEFF 		bl	_test_assert
 1114              	.LVL161:
 1115 01c4 0028     		cmp	r0, #0
 1116 01c6 7FF457AF 		bne	.L33
 1117              	.LBB188:
 1118              		.loc 1 133 0
 1119 01ca 2023     		movs	r3, #32
 1120              	.LVL162:
 1121              	@ 133 "/home/felix/Documents/ChibiOS/test/testqueues.c" 1
 1122 01cc 83F31188 		msr     BASEPRI, r3
 1123              	@ 0 "" 2
 1124              	.LVL163:
 1125              		.thumb
 1126              	.LBE188:
 1127 01d0 A968     		ldr	r1, [r5, #8]
 1128 01d2 D1F10101 		rsbs	r1, r1, #1
 1129 01d6 38BF     		it	cc
 1130 01d8 0021     		movcc	r1, #0
 1131 01da 0A20     		movs	r0, #10
 1132 01dc FFF7FEFF 		bl	_test_assert
 1133              	.LVL164:
ARM GAS  /tmp/ccv8GbkB.s 			page 21


 1134              	.LBB189:
 1135 01e0 2346     		mov	r3, r4
 1136              	@ 133 "/home/felix/Documents/ChibiOS/test/testqueues.c" 1
 1137 01e2 83F31188 		msr     BASEPRI, r3
 1138              	@ 0 "" 2
 1139              	.LVL165:
 1140              		.thumb
 1141              	.LBE189:
 1142 01e6 0028     		cmp	r0, #0
 1143 01e8 7FF446AF 		bne	.L33
 1144              	.LBB190:
 1145              		.loc 1 136 0
 1146 01ec 2023     		movs	r3, #32
 1147              	.LVL166:
 1148              	@ 136 "/home/felix/Documents/ChibiOS/test/testqueues.c" 1
 1149 01ee 83F31188 		msr     BASEPRI, r3
 1150              	@ 0 "" 2
 1151              	.LVL167:
 1152              		.thumb
 1153              	.LBE190:
 1154              		.loc 1 137 0
 1155 01f2 2146     		mov	r1, r4
 1156 01f4 2846     		mov	r0, r5
 1157 01f6 FFF7FEFF 		bl	chIQPutI
 1158              	.LVL168:
 1159              		.loc 1 138 0
 1160 01fa 2846     		mov	r0, r5
 1161 01fc FFF7FEFF 		bl	chIQResetI
 1162              	.LVL169:
 1163              	.LBB191:
 1164              		.loc 1 139 0
 1165 0200 2346     		mov	r3, r4
 1166              	.LVL170:
 1167              	@ 139 "/home/felix/Documents/ChibiOS/test/testqueues.c" 1
 1168 0202 83F31188 		msr     BASEPRI, r3
 1169              	@ 0 "" 2
 1170              	.LVL171:
 1171              		.thumb
 1172              	.LBE191:
 1173              	.LBB192:
 1174              		.loc 1 140 0
 1175 0206 2023     		movs	r3, #32
 1176              	.LVL172:
 1177              	@ 140 "/home/felix/Documents/ChibiOS/test/testqueues.c" 1
 1178 0208 83F31188 		msr     BASEPRI, r3
 1179              	@ 0 "" 2
 1180              	.LVL173:
 1181              		.thumb
 1182              	.LBE192:
 1183 020c A968     		ldr	r1, [r5, #8]
 1184 020e D1F10101 		rsbs	r1, r1, #1
 1185 0212 38BF     		it	cc
 1186 0214 0021     		movcc	r1, #0
 1187 0216 0B20     		movs	r0, #11
 1188 0218 FFF7FEFF 		bl	_test_assert
 1189              	.LVL174:
 1190              	.LBB193:
ARM GAS  /tmp/ccv8GbkB.s 			page 22


 1191 021c 2346     		mov	r3, r4
 1192              	@ 140 "/home/felix/Documents/ChibiOS/test/testqueues.c" 1
 1193 021e 83F31188 		msr     BASEPRI, r3
 1194              	@ 0 "" 2
 1195              	.LVL175:
 1196              		.thumb
 1197              	.LBE193:
 1198 0222 0028     		cmp	r0, #0
 1199 0224 7FF428AF 		bne	.L33
 1200              		.loc 1 141 0
 1201 0228 1E4A     		ldr	r2, .L52+12
 1202 022a 3868     		ldr	r0, [r7, #0]
 1203 022c 9269     		ldr	r2, [r2, #24]
 1204 022e 1E4B     		ldr	r3, .L52+16
 1205              	.LVL176:
 1206 0230 9268     		ldr	r2, [r2, #8]
 1207 0232 0094     		str	r4, [sp, #0]
 1208              	.LVL177:
 1209 0234 0132     		adds	r2, r2, #1
 1210 0236 4FF49871 		mov	r1, #304
 1211 023a FFF7FEFF 		bl	chThdCreateStatic
 1212              	.LVL178:
 1213 023e 1B4A     		ldr	r2, .L52+20
 1214              	.LBB194:
 1215              		.loc 1 142 0
 1216 0240 2023     		movs	r3, #32
 1217              	.LVL179:
 1218              	.LBE194:
 1219              		.loc 1 141 0
 1220 0242 1060     		str	r0, [r2, #0]
 1221              	.LBB195:
 1222              		.loc 1 142 0
 1223              	@ 142 "/home/felix/Documents/ChibiOS/test/testqueues.c" 1
 1224 0244 83F31188 		msr     BASEPRI, r3
 1225              	@ 0 "" 2
 1226              	.LVL180:
 1227              		.thumb
 1228              	.LBE195:
 1229 0248 A968     		ldr	r1, [r5, #8]
 1230 024a D1F10101 		rsbs	r1, r1, #1
 1231 024e 38BF     		it	cc
 1232 0250 0021     		movcc	r1, #0
 1233 0252 0C20     		movs	r0, #12
 1234 0254 FFF7FEFF 		bl	_test_assert
 1235              	.LVL181:
 1236              	.LBB196:
 1237 0258 0023     		movs	r3, #0
 1238              	@ 142 "/home/felix/Documents/ChibiOS/test/testqueues.c" 1
 1239 025a 83F31188 		msr     BASEPRI, r3
 1240              	@ 0 "" 2
 1241              	.LVL182:
 1242              		.thumb
 1243              	.LBE196:
 1244 025e 0028     		cmp	r0, #0
 1245 0260 7FF40AAF 		bne	.L33
 1246              		.loc 1 143 0
 1247 0264 FFF7FEFF 		bl	test_wait_threads
ARM GAS  /tmp/ccv8GbkB.s 			page 23


 1248              	.LVL183:
 1249              		.loc 1 146 0
 1250 0268 0A21     		movs	r1, #10
 1251 026a 0B48     		ldr	r0, .L52
 1252 026c FFF7FEFF 		bl	chIQGetTimeout
 1253              	.LVL184:
 1254 0270 B0F1FF32 		subs	r2, r0, #-1
 1255 0274 5142     		rsbs	r1, r2, #0
 1256 0276 5141     		adcs	r1, r1, r2
 1257 0278 0D20     		movs	r0, #13
 1258              	.LBE198:
 1259              	.LBE200:
 1260              		.loc 1 147 0
 1261 027a 03B0     		add	sp, sp, #12
 1262 027c BDE8F040 		pop	{r4, r5, r6, r7, lr}
 1263              	.LBB201:
 1264              	.LBB199:
 1265              		.loc 1 146 0
 1266 0280 FFF7FEBF 		b	_test_assert
 1267              	.LVL185:
 1268              	.L51:
 1269              	.LBB197:
 1270              		.loc 1 103 0
 1271 0284 2346     		mov	r3, r4
 1272              	@ 103 "/home/felix/Documents/ChibiOS/test/testqueues.c" 1
 1273 0286 83F31188 		msr     BASEPRI, r3
 1274              	@ 0 "" 2
 1275              	.LVL186:
 1276              		.thumb
 1277 028a F5E6     		b	.L33
 1278              	.LVL187:
 1279              	.L50:
 1280              	.LBE197:
 1281              		.loc 1 102 0
 1282 028c A168     		ldr	r1, [r4, #8]
 1283 028e 0031     		adds	r1, r1, #0
 1284 0290 18BF     		it	ne
 1285 0292 0121     		movne	r1, #1
 1286 0294 E8E6     		b	.L36
 1287              	.L53:
 1288 0296 00BF     		.align	2
 1289              	.L52:
 1290 0298 00000000 		.word	.LANCHOR1
 1291 029c 00000000 		.word	.LC0
 1292 02a0 00000000 		.word	wa
 1293 02a4 00000000 		.word	rlist
 1294 02a8 00000000 		.word	thread1
 1295 02ac 00000000 		.word	threads
 1296              	.LBE199:
 1297              	.LBE201:
 1298              		.cfi_endproc
 1299              	.LFE10:
 1300              		.size	queues1_execute, .-queues1_execute
 1301              		.global	patternqueues
 1302              		.global	testqueues2
 1303              		.global	testqueues1
 1304              		.section	.rodata.testqueues1,"a",%progbits
ARM GAS  /tmp/ccv8GbkB.s 			page 24


 1305              		.align	2
 1306              		.type	testqueues1, %object
 1307              		.size	testqueues1, 16
 1308              	testqueues1:
 1309 0000 20000000 		.word	.LC2
 1310 0004 00000000 		.word	queues1_setup
 1311 0008 00000000 		.word	0
 1312 000c 00000000 		.word	queues1_execute
 1313              		.section	.rodata.testqueues2,"a",%progbits
 1314              		.align	2
 1315              		.type	testqueues2, %object
 1316              		.size	testqueues2, 16
 1317              	testqueues2:
 1318 0000 08000000 		.word	.LC1
 1319 0004 00000000 		.word	queues2_setup
 1320 0008 00000000 		.word	0
 1321 000c 00000000 		.word	queues2_execute
 1322              		.section	.rodata.str1.4,"aMS",%progbits,1
 1323              		.align	2
 1324              	.LC0:
 1325 0000 41424344 		.ascii	"ABCD\000"
 1325      00
 1326 0005 000000   		.space	3
 1327              	.LC1:
 1328 0008 51756575 		.ascii	"Queues, output queues\000"
 1328      65732C20 
 1328      6F757470 
 1328      75742071 
 1328      75657565 
 1329 001e 0000     		.space	2
 1330              	.LC2:
 1331 0020 51756575 		.ascii	"Queues, input queues\000"
 1331      65732C20 
 1331      696E7075 
 1331      74207175 
 1331      65756573 
 1332 0035 000000   		.section	.rodata.patternqueues,"a",%progbits
 1333              		.align	2
 1334              		.type	patternqueues, %object
 1335              		.size	patternqueues, 12
 1336              	patternqueues:
 1337 0000 00000000 		.word	testqueues1
 1338 0004 00000000 		.word	testqueues2
 1339 0008 00000000 		.word	0
 1340              		.section	.data.oq,"aw",%progbits
 1341              		.align	2
 1342              		.set	.LANCHOR0,. + 0
 1343              		.type	oq, %object
 1344              		.size	oq, 36
 1345              	oq:
 1346 0000 00000000 		.word	oq
 1347 0004 00000000 		.word	oq
 1348 0008 04000000 		.word	4
 1349 000c 30010000 		.word	test+304
 1350 0010 34010000 		.word	test+308
 1351 0014 30010000 		.word	test+304
 1352 0018 30010000 		.word	test+304
ARM GAS  /tmp/ccv8GbkB.s 			page 25


 1353 001c 00000000 		.word	notify
 1354 0020 00000000 		.word	0
 1355              		.section	.data.iq,"aw",%progbits
 1356              		.align	2
 1357              		.set	.LANCHOR1,. + 0
 1358              		.type	iq, %object
 1359              		.size	iq, 36
 1360              	iq:
 1361 0000 00000000 		.word	iq
 1362 0004 00000000 		.word	iq
 1363 0008 00000000 		.word	0
 1364 000c 00000000 		.word	test
 1365 0010 04000000 		.word	test+4
 1366 0014 00000000 		.word	test
 1367 0018 00000000 		.word	test
 1368 001c 00000000 		.word	notify
 1369 0020 00000000 		.word	0
 1370              		.text
 1371              	.Letext0:
 1372              		.file 2 "/opt/tools_arm/lib/gcc/arm-none-eabi/4.7.3/include/stddef.h"
 1373              		.file 3 "/opt/tools_arm/lib/gcc/arm-none-eabi/4.7.3/../../../../arm-none-eabi/include/stdint.h"
 1374              		.file 4 "/home/felix/Documents/ChibiOS/os/ports/GCC/ARMCMx/chtypes.h"
 1375              		.file 5 "/home/felix/Documents/ChibiOS/os/kernel/include/chlists.h"
 1376              		.file 6 "/home/felix/Documents/ChibiOS/os/kernel/include/chthreads.h"
 1377              		.file 7 "/home/felix/Documents/ChibiOS/os/ports/GCC/ARMCMx/chcore_v7m.h"
 1378              		.file 8 "/home/felix/Documents/ChibiOS/os/kernel/include/chschd.h"
 1379              		.file 9 "/home/felix/Documents/ChibiOS/os/kernel/include/chmtx.h"
 1380              		.file 10 "/home/felix/Documents/ChibiOS/os/kernel/include/chqueues.h"
 1381              		.file 11 "/home/felix/Documents/ChibiOS/test/test.h"