ARM GAS  /tmp/ccr5FXCl.s 			page 1


   1              		.syntax unified
   2              		.cpu cortex-m4
   3              		.fpu softvfp
   4              		.eabi_attribute 20, 1
   5              		.eabi_attribute 21, 1
   6              		.eabi_attribute 23, 3
   7              		.eabi_attribute 24, 1
   8              		.eabi_attribute 25, 1
   9              		.eabi_attribute 26, 1
  10              		.eabi_attribute 30, 2
  11              		.eabi_attribute 34, 1
  12              		.eabi_attribute 18, 4
  13              		.thumb
  14              		.file	"testevt.c"
  15              		.text
  16              	.Ltext0:
  17              		.cfi_sections	.debug_frame
  18              		.section	.text.evt3_setup,"ax",%progbits
  19              		.align	2
  20              		.p2align 4,,15
  21              		.thumb
  22              		.thumb_func
  23              		.type	evt3_setup, %function
  24              	evt3_setup:
  25              	.LFB16:
  26              		.file 1 "/home/felix/Documents/ChibiOS/test/testevt.c"
  27              		.loc 1 247 0
  28              		.cfi_startproc
  29              		@ args = 0, pretend = 0, frame = 0
  30              		@ frame_needed = 0, uses_anonymous_args = 0
  31              		@ link register save eliminated.
  32              		.loc 1 249 0
  33 0000 4FF0FF30 		mov	r0, #-1
  34              		.loc 1 250 0
  35              		.loc 1 249 0
  36 0004 FFF7FEBF 		b	chEvtGetAndClearEvents
  37              	.LVL0:
  38              		.cfi_endproc
  39              	.LFE16:
  40              		.size	evt3_setup, .-evt3_setup
  41 0008 AFF30080 		.section	.text.evt2_setup,"ax",%progbits
  41      AFF30080 
  42              		.align	2
  43              		.p2align 4,,15
  44              		.thumb
  45              		.thumb_func
  46              		.type	evt2_setup, %function
  47              	evt2_setup:
  48              	.LFB12:
  49              		.loc 1 128 0
  50              		.cfi_startproc
  51              		@ args = 0, pretend = 0, frame = 0
  52              		@ frame_needed = 0, uses_anonymous_args = 0
  53              		@ link register save eliminated.
  54              		.loc 1 130 0
  55 0000 4FF0FF30 		mov	r0, #-1
  56              		.loc 1 131 0
ARM GAS  /tmp/ccr5FXCl.s 			page 2


  57              		.loc 1 130 0
  58 0004 FFF7FEBF 		b	chEvtGetAndClearEvents
  59              	.LVL1:
  60              		.cfi_endproc
  61              	.LFE12:
  62              		.size	evt2_setup, .-evt2_setup
  63 0008 AFF30080 		.section	.text.evt1_setup,"ax",%progbits
  63      AFF30080 
  64              		.align	2
  65              		.p2align 4,,15
  66              		.thumb
  67              		.thumb_func
  68              		.type	evt1_setup, %function
  69              	evt1_setup:
  70              	.LFB7:
  71              		.loc 1 75 0
  72              		.cfi_startproc
  73              		@ args = 0, pretend = 0, frame = 0
  74              		@ frame_needed = 0, uses_anonymous_args = 0
  75              		@ link register save eliminated.
  76              		.loc 1 77 0
  77 0000 4FF0FF30 		mov	r0, #-1
  78              		.loc 1 78 0
  79              		.loc 1 77 0
  80 0004 FFF7FEBF 		b	chEvtGetAndClearEvents
  81              	.LVL2:
  82              		.cfi_endproc
  83              	.LFE7:
  84              		.size	evt1_setup, .-evt1_setup
  85 0008 AFF30080 		.section	.text.evt2_execute,"ax",%progbits
  85      AFF30080 
  86              		.align	2
  87              		.p2align 4,,15
  88              		.thumb
  89              		.thumb_func
  90              		.type	evt2_execute, %function
  91              	evt2_execute:
  92              	.LFB15:
  93              		.loc 1 149 0
  94              		.cfi_startproc
  95              		@ args = 0, pretend = 0, frame = 40
  96              		@ frame_needed = 0, uses_anonymous_args = 0
  97 0000 2DE9F042 		push	{r4, r5, r6, r7, r9, lr}
  98              	.LCFI0:
  99              		.cfi_def_cfa_offset 24
 100              		.cfi_offset 4, -24
 101              		.cfi_offset 5, -20
 102              		.cfi_offset 6, -16
 103              		.cfi_offset 7, -12
 104              		.cfi_offset 9, -8
 105              		.cfi_offset 14, -4
 106              		.loc 1 157 0
 107 0004 0520     		movs	r0, #5
 108              		.loc 1 149 0
 109 0006 8CB0     		sub	sp, sp, #48
 110              	.LCFI1:
 111              		.cfi_def_cfa_offset 72
ARM GAS  /tmp/ccr5FXCl.s 			page 3


 112              		.loc 1 157 0
 113 0008 FFF7FEFF 		bl	chEvtAddEvents
 114              	.LVL3:
 115              		.loc 1 158 0
 116 000c 4FF0FF30 		mov	r0, #-1
 117 0010 FFF7FEFF 		bl	chEvtWaitOne
 118              	.LVL4:
 119              		.loc 1 159 0
 120 0014 421E     		subs	r2, r0, #1
 121 0016 5142     		rsbs	r1, r2, #0
 122 0018 5141     		adcs	r1, r1, r2
 123 001a 0120     		movs	r0, #1
 124              	.LVL5:
 125 001c FFF7FEFF 		bl	_test_assert
 126              	.LVL6:
 127 0020 10B1     		cbz	r0, .L8
 128              	.L4:
 129              		.loc 1 222 0
 130 0022 0CB0     		add	sp, sp, #48
 131 0024 BDE8F082 		pop	{r4, r5, r6, r7, r9, pc}
 132              	.L8:
 133              		.loc 1 160 0
 134 0028 4FF0FF30 		mov	r0, #-1
 135 002c FFF7FEFF 		bl	chEvtWaitOne
 136              	.LVL7:
 137              		.loc 1 161 0
 138 0030 031F     		subs	r3, r0, #4
 139 0032 5942     		rsbs	r1, r3, #0
 140 0034 5941     		adcs	r1, r1, r3
 141 0036 0220     		movs	r0, #2
 142              	.LVL8:
 143 0038 FFF7FEFF 		bl	_test_assert
 144              	.LVL9:
 145 003c 0028     		cmp	r0, #0
 146 003e F0D1     		bne	.L4
 147              		.loc 1 162 0
 148 0040 4FF0FF30 		mov	r0, #-1
 149 0044 FFF7FEFF 		bl	chEvtGetAndClearEvents
 150              	.LVL10:
 151              		.loc 1 163 0
 152 0048 D0F10101 		rsbs	r1, r0, #1
 153 004c 38BF     		it	cc
 154 004e 0021     		movcc	r1, #0
 155 0050 0320     		movs	r0, #3
 156              	.LVL11:
 157 0052 FFF7FEFF 		bl	_test_assert
 158              	.LVL12:
 159 0056 0028     		cmp	r0, #0
 160 0058 E3D1     		bne	.L4
 161              		.loc 1 170 0
 162 005a 754D     		ldr	r5, .L9
 163              		.loc 1 169 0
 164 005c 754F     		ldr	r7, .L9+4
 165              		.loc 1 170 0
 166 005e 764E     		ldr	r6, .L9+8
 167              		.loc 1 168 0
 168 0060 FFF7FEFF 		bl	test_wait_tick
ARM GAS  /tmp/ccr5FXCl.s 			page 4


 169              	.LVL13:
 170              		.loc 1 170 0
 171 0064 AB69     		ldr	r3, [r5, #24]
 172 0066 7549     		ldr	r1, .L9+12
 173 0068 9A68     		ldr	r2, [r3, #8]
 174 006a 0968     		ldr	r1, [r1, #0]
 175 006c 0093     		str	r3, [sp, #0]
 176 006e 013A     		subs	r2, r2, #1
 177 0070 0391     		str	r1, [sp, #12]
 178 0072 0846     		mov	r0, r1
 179 0074 724B     		ldr	r3, .L9+16
 180              		.loc 1 169 0
 181 0076 FC68     		ldr	r4, [r7, #12]
 182              	.LVL14:
 183              		.loc 1 170 0
 184 0078 4FF49871 		mov	r1, #304
 185 007c FFF7FEFF 		bl	chThdCreateStatic
 186              	.LVL15:
 187 0080 3060     		str	r0, [r6, #0]
 188              		.loc 1 172 0
 189 0082 4FF0FF30 		mov	r0, #-1
 190 0086 FFF7FEFF 		bl	chEvtWaitOne
 191              	.LVL16:
 192              		.loc 1 173 0
 193 008a 04F13201 		add	r1, r4, #50
 194              	.LVL17:
 195              		.loc 1 172 0
 196 008e 8146     		mov	r9, r0
 197              	.LVL18:
 198              		.loc 1 173 0
 199 0090 04F13702 		add	r2, r4, #55
 200 0094 0420     		movs	r0, #4
 201              	.LVL19:
 202 0096 FFF7FEFF 		bl	_test_assert_time_window
 203              	.LVL20:
 204 009a 0028     		cmp	r0, #0
 205 009c C1D1     		bne	.L4
 206              		.loc 1 174 0
 207 009e B9F1010C 		subs	ip, r9, #1
 208 00a2 DCF10001 		rsbs	r1, ip, #0
 209 00a6 51EB0C01 		adcs	r1, r1, ip
 210 00aa 0520     		movs	r0, #5
 211 00ac FFF7FEFF 		bl	_test_assert
 212              	.LVL21:
 213 00b0 0028     		cmp	r0, #0
 214 00b2 B6D1     		bne	.L4
 215              		.loc 1 175 0
 216 00b4 4FF0FF30 		mov	r0, #-1
 217 00b8 FFF7FEFF 		bl	chEvtGetAndClearEvents
 218              	.LVL22:
 219              		.loc 1 176 0
 220 00bc D0F10101 		rsbs	r1, r0, #1
 221 00c0 38BF     		it	cc
 222 00c2 0021     		movcc	r1, #0
 223 00c4 0620     		movs	r0, #6
 224              	.LVL23:
 225 00c6 FFF7FEFF 		bl	_test_assert
ARM GAS  /tmp/ccr5FXCl.s 			page 5


 226              	.LVL24:
 227 00ca 0028     		cmp	r0, #0
 228 00cc A9D1     		bne	.L4
 229              		.loc 1 177 0
 230 00ce FFF7FEFF 		bl	test_wait_threads
 231              	.LVL25:
 232              		.loc 1 182 0
 233 00d2 0520     		movs	r0, #5
 234 00d4 FFF7FEFF 		bl	chEvtAddEvents
 235              	.LVL26:
 236              		.loc 1 183 0
 237 00d8 4FF0FF30 		mov	r0, #-1
 238 00dc FFF7FEFF 		bl	chEvtWaitAny
 239              	.LVL27:
 240              		.loc 1 184 0
 241 00e0 B0F1050E 		subs	lr, r0, #5
 242 00e4 DEF10001 		rsbs	r1, lr, #0
 243 00e8 51EB0E01 		adcs	r1, r1, lr
 244 00ec 0720     		movs	r0, #7
 245              	.LVL28:
 246 00ee FFF7FEFF 		bl	_test_assert
 247              	.LVL29:
 248 00f2 0028     		cmp	r0, #0
 249 00f4 95D1     		bne	.L4
 250              		.loc 1 185 0
 251 00f6 4FF0FF30 		mov	r0, #-1
 252 00fa FFF7FEFF 		bl	chEvtGetAndClearEvents
 253              	.LVL30:
 254              		.loc 1 186 0
 255 00fe D0F10101 		rsbs	r1, r0, #1
 256 0102 38BF     		it	cc
 257 0104 0021     		movcc	r1, #0
 258 0106 0820     		movs	r0, #8
 259              	.LVL31:
 260 0108 FFF7FEFF 		bl	_test_assert
 261              	.LVL32:
 262 010c 0028     		cmp	r0, #0
 263 010e 88D1     		bne	.L4
 264              		.loc 1 191 0
 265 0110 FFF7FEFF 		bl	test_wait_tick
 266              	.LVL33:
 267              		.loc 1 193 0
 268 0114 A969     		ldr	r1, [r5, #24]
 269 0116 4A4B     		ldr	r3, .L9+16
 270 0118 8A68     		ldr	r2, [r1, #8]
 271 011a 0398     		ldr	r0, [sp, #12]
 272 011c 0091     		str	r1, [sp, #0]
 273 011e 013A     		subs	r2, r2, #1
 274 0120 4FF49871 		mov	r1, #304
 275              		.loc 1 192 0
 276 0124 FC68     		ldr	r4, [r7, #12]
 277              	.LVL34:
 278              		.loc 1 193 0
 279 0126 FFF7FEFF 		bl	chThdCreateStatic
 280              	.LVL35:
 281 012a 3060     		str	r0, [r6, #0]
 282              		.loc 1 195 0
ARM GAS  /tmp/ccr5FXCl.s 			page 6


 283 012c 4FF0FF30 		mov	r0, #-1
 284 0130 FFF7FEFF 		bl	chEvtWaitAny
 285              	.LVL36:
 286              		.loc 1 196 0
 287 0134 04F13201 		add	r1, r4, #50
 288              	.LVL37:
 289              		.loc 1 195 0
 290 0138 8146     		mov	r9, r0
 291              	.LVL38:
 292              		.loc 1 196 0
 293 013a 04F13702 		add	r2, r4, #55
 294 013e 0920     		movs	r0, #9
 295              	.LVL39:
 296 0140 FFF7FEFF 		bl	_test_assert_time_window
 297              	.LVL40:
 298 0144 0028     		cmp	r0, #0
 299 0146 7FF46CAF 		bne	.L4
 300              		.loc 1 197 0
 301 014a B9F10100 		subs	r0, r9, #1
 302 014e 4142     		rsbs	r1, r0, #0
 303 0150 4141     		adcs	r1, r1, r0
 304 0152 0A20     		movs	r0, #10
 305 0154 FFF7FEFF 		bl	_test_assert
 306              	.LVL41:
 307 0158 0028     		cmp	r0, #0
 308 015a 7FF462AF 		bne	.L4
 309              		.loc 1 198 0
 310 015e 4FF0FF30 		mov	r0, #-1
 311 0162 FFF7FEFF 		bl	chEvtGetAndClearEvents
 312              	.LVL42:
 313              		.loc 1 199 0
 314 0166 D0F10101 		rsbs	r1, r0, #1
 315 016a 38BF     		it	cc
 316 016c 0021     		movcc	r1, #0
 317 016e 0B20     		movs	r0, #11
 318              	.LVL43:
 319 0170 FFF7FEFF 		bl	_test_assert
 320              	.LVL44:
 321 0174 0028     		cmp	r0, #0
 322 0176 7FF454AF 		bne	.L4
 323              		.loc 1 205 0
 324 017a DFF8D490 		ldr	r9, .L9+32
 325              		.loc 1 206 0
 326 017e 314C     		ldr	r4, .L9+20
 327              	.LVL45:
 328              		.loc 1 200 0
 329 0180 FFF7FEFF 		bl	test_wait_threads
 330              	.LVL46:
 331              		.loc 1 207 0
 332 0184 4846     		mov	r0, r9
 333 0186 04A9     		add	r1, sp, #16
 334 0188 0122     		movs	r2, #1
 335              		.loc 1 205 0
 336 018a C9F80090 		str	r9, [r9, #0]
 337              		.loc 1 206 0
 338 018e 2460     		str	r4, [r4, #0]
 339              		.loc 1 207 0
ARM GAS  /tmp/ccr5FXCl.s 			page 7


 340 0190 FFF7FEFF 		bl	chEvtRegisterMask
 341              	.LVL47:
 342              		.loc 1 208 0
 343 0194 08A9     		add	r1, sp, #32
 344 0196 0422     		movs	r2, #4
 345 0198 2046     		mov	r0, r4
 346 019a FFF7FEFF 		bl	chEvtRegisterMask
 347              	.LVL48:
 348              		.loc 1 209 0
 349 019e FFF7FEFF 		bl	test_wait_tick
 350              	.LVL49:
 351              		.loc 1 211 0
 352 01a2 AB69     		ldr	r3, [r5, #24]
 353 01a4 2849     		ldr	r1, .L9+24
 354 01a6 9A68     		ldr	r2, [r3, #8]
 355 01a8 0398     		ldr	r0, [sp, #12]
 356 01aa 0091     		str	r1, [sp, #0]
 357 01ac 013A     		subs	r2, r2, #1
 358 01ae 4FF49871 		mov	r1, #304
 359 01b2 264B     		ldr	r3, .L9+28
 360              		.loc 1 210 0
 361 01b4 FD68     		ldr	r5, [r7, #12]
 362              	.LVL50:
 363              		.loc 1 211 0
 364 01b6 FFF7FEFF 		bl	chThdCreateStatic
 365              	.LVL51:
 366 01ba 3060     		str	r0, [r6, #0]
 367              		.loc 1 213 0
 368 01bc 0520     		movs	r0, #5
 369 01be FFF7FEFF 		bl	chEvtWaitAll
 370              	.LVL52:
 371              		.loc 1 214 0
 372 01c2 05F13201 		add	r1, r5, #50
 373              	.LVL53:
 374 01c6 05F13702 		add	r2, r5, #55
 375 01ca 0C20     		movs	r0, #12
 376 01cc FFF7FEFF 		bl	_test_assert_time_window
 377              	.LVL54:
 378 01d0 0028     		cmp	r0, #0
 379 01d2 7FF426AF 		bne	.L4
 380              		.loc 1 215 0
 381 01d6 4FF0FF30 		mov	r0, #-1
 382 01da FFF7FEFF 		bl	chEvtGetAndClearEvents
 383              	.LVL55:
 384              		.loc 1 216 0
 385 01de D0F10101 		rsbs	r1, r0, #1
 386 01e2 38BF     		it	cc
 387 01e4 0021     		movcc	r1, #0
 388 01e6 0D20     		movs	r0, #13
 389              	.LVL56:
 390 01e8 FFF7FEFF 		bl	_test_assert
 391              	.LVL57:
 392 01ec 0028     		cmp	r0, #0
 393 01ee 7FF418AF 		bne	.L4
 394              		.loc 1 217 0
 395 01f2 FFF7FEFF 		bl	test_wait_threads
 396              	.LVL58:
ARM GAS  /tmp/ccr5FXCl.s 			page 8


 397              		.loc 1 218 0
 398 01f6 4846     		mov	r0, r9
 399 01f8 04A9     		add	r1, sp, #16
 400 01fa FFF7FEFF 		bl	chEvtUnregister
 401              	.LVL59:
 402              		.loc 1 219 0
 403 01fe 2046     		mov	r0, r4
 404 0200 08A9     		add	r1, sp, #32
 405 0202 FFF7FEFF 		bl	chEvtUnregister
 406              	.LVL60:
 407              		.loc 1 220 0
 408 0206 D9F80010 		ldr	r1, [r9, #0]
 409 020a B1EB0902 		subs	r2, r1, r9
 410 020e 5142     		rsbs	r1, r2, #0
 411 0210 5141     		adcs	r1, r1, r2
 412 0212 0E20     		movs	r0, #14
 413 0214 FFF7FEFF 		bl	_test_assert
 414              	.LVL61:
 415 0218 0028     		cmp	r0, #0
 416 021a 7FF402AF 		bne	.L4
 417              		.loc 1 221 0
 418 021e 2168     		ldr	r1, [r4, #0]
 419 0220 0B1B     		subs	r3, r1, r4
 420 0222 5942     		rsbs	r1, r3, #0
 421 0224 5941     		adcs	r1, r1, r3
 422 0226 0F20     		movs	r0, #15
 423 0228 FFF7FEFF 		bl	_test_assert
 424              	.LVL62:
 425 022c F9E6     		b	.L4
 426              	.L10:
 427 022e 00BF     		.align	2
 428              	.L9:
 429 0230 00000000 		.word	rlist
 430 0234 00000000 		.word	vtlist
 431 0238 00000000 		.word	threads
 432 023c 00000000 		.word	wa
 433 0240 00000000 		.word	thread1
 434 0244 00000000 		.word	.LANCHOR1
 435 0248 00000000 		.word	.LC0
 436 024c 00000000 		.word	thread2
 437 0250 00000000 		.word	.LANCHOR0
 438              		.cfi_endproc
 439              	.LFE15:
 440              		.size	evt2_execute, .-evt2_execute
 441 0254 AFF30080 		.section	.text.thread2,"ax",%progbits
 441      AFF30080 
 441      AFF30080 
 442              		.align	2
 443              		.p2align 4,,15
 444              		.thumb
 445              		.thumb_func
 446              		.type	thread2, %function
 447              	thread2:
 448              	.LFB14:
 449              		.loc 1 140 0
 450              		.cfi_startproc
 451              		@ args = 0, pretend = 0, frame = 0
ARM GAS  /tmp/ccr5FXCl.s 			page 9


 452              		@ frame_needed = 0, uses_anonymous_args = 0
 453              	.LVL63:
 454              		.loc 1 143 0
 455 0000 40F20000 		movw	r0, #:lower16:.LANCHOR0
 456              	.LVL64:
 457              		.loc 1 140 0
 458 0004 08B5     		push	{r3, lr}
 459              	.LCFI2:
 460              		.cfi_def_cfa_offset 8
 461              		.cfi_offset 3, -8
 462              		.cfi_offset 14, -4
 463              		.loc 1 143 0
 464 0006 0021     		movs	r1, #0
 465 0008 C0F20000 		movt	r0, #:upper16:.LANCHOR0
 466 000c FFF7FEFF 		bl	chEvtBroadcastFlags
 467              	.LVL65:
 468              		.loc 1 144 0
 469 0010 3220     		movs	r0, #50
 470 0012 FFF7FEFF 		bl	chThdSleep
 471              	.LVL66:
 472              		.loc 1 145 0
 473 0016 40F20000 		movw	r0, #:lower16:.LANCHOR1
 474 001a C0F20000 		movt	r0, #:upper16:.LANCHOR1
 475 001e 0021     		movs	r1, #0
 476 0020 FFF7FEFF 		bl	chEvtBroadcastFlags
 477              	.LVL67:
 478              		.loc 1 147 0
 479 0024 0020     		movs	r0, #0
 480 0026 08BD     		pop	{r3, pc}
 481              		.cfi_endproc
 482              	.LFE14:
 483              		.size	thread2, .-thread2
 484 0028 AFF30080 		.section	.text.thread1,"ax",%progbits
 484      AFF30080 
 485              		.align	2
 486              		.p2align 4,,15
 487              		.thumb
 488              		.thumb_func
 489              		.type	thread1, %function
 490              	thread1:
 491              	.LFB13:
 492              		.loc 1 133 0
 493              		.cfi_startproc
 494              		@ args = 0, pretend = 0, frame = 0
 495              		@ frame_needed = 0, uses_anonymous_args = 0
 496              	.LVL68:
 497 0000 10B5     		push	{r4, lr}
 498              	.LCFI3:
 499              		.cfi_def_cfa_offset 8
 500              		.cfi_offset 4, -8
 501              		.cfi_offset 14, -4
 502              		.loc 1 133 0
 503 0002 0446     		mov	r4, r0
 504              		.loc 1 135 0
 505 0004 3220     		movs	r0, #50
 506              	.LVL69:
 507 0006 FFF7FEFF 		bl	chThdSleep
ARM GAS  /tmp/ccr5FXCl.s 			page 10


 508              	.LVL70:
 509              		.loc 1 136 0
 510 000a 2046     		mov	r0, r4
 511 000c 0121     		movs	r1, #1
 512 000e FFF7FEFF 		bl	chEvtSignal
 513              	.LVL71:
 514              		.loc 1 138 0
 515 0012 0020     		movs	r0, #0
 516 0014 10BD     		pop	{r4, pc}
 517              		.cfi_endproc
 518              	.LFE13:
 519              		.size	thread1, .-thread1
 520 0016 00BFAFF3 		.section	.text.evt1_execute,"ax",%progbits
 520      0080AFF3 
 520      0080
 521              		.align	2
 522              		.p2align 4,,15
 523              		.thumb
 524              		.thumb_func
 525              		.type	evt1_execute, %function
 526              	evt1_execute:
 527              	.LFB11:
 528              		.loc 1 85 0
 529              		.cfi_startproc
 530              		@ args = 0, pretend = 0, frame = 32
 531              		@ frame_needed = 0, uses_anonymous_args = 0
 532 0000 10B5     		push	{r4, lr}
 533              	.LCFI4:
 534              		.cfi_def_cfa_offset 8
 535              		.cfi_offset 4, -8
 536              		.cfi_offset 14, -4
 537              		.loc 1 91 0
 538 0002 1E4C     		ldr	r4, .L17
 539              		.loc 1 85 0
 540 0004 88B0     		sub	sp, sp, #32
 541              	.LCFI5:
 542              		.cfi_def_cfa_offset 40
 543              		.loc 1 92 0
 544 0006 2046     		mov	r0, r4
 545 0008 6946     		mov	r1, sp
 546 000a 0122     		movs	r2, #1
 547              		.loc 1 91 0
 548 000c 2460     		str	r4, [r4, #0]
 549              		.loc 1 92 0
 550 000e FFF7FEFF 		bl	chEvtRegisterMask
 551              	.LVL72:
 552              		.loc 1 93 0
 553 0012 2046     		mov	r0, r4
 554 0014 04A9     		add	r1, sp, #16
 555 0016 0222     		movs	r2, #2
 556 0018 FFF7FEFF 		bl	chEvtRegisterMask
 557              	.LVL73:
 558              		.loc 1 94 0
 559 001c 2168     		ldr	r1, [r4, #0]
 560 001e 091B     		subs	r1, r1, r4
 561 0020 18BF     		it	ne
 562 0022 0121     		movne	r1, #1
ARM GAS  /tmp/ccr5FXCl.s 			page 11


 563 0024 0120     		movs	r0, #1
 564 0026 FFF7FEFF 		bl	_test_assert
 565              	.LVL74:
 566 002a 08B1     		cbz	r0, .L16
 567              	.L13:
 568              		.loc 1 105 0
 569 002c 08B0     		add	sp, sp, #32
 570 002e 10BD     		pop	{r4, pc}
 571              	.L16:
 572              		.loc 1 95 0
 573 0030 6946     		mov	r1, sp
 574 0032 2046     		mov	r0, r4
 575 0034 FFF7FEFF 		bl	chEvtUnregister
 576              	.LVL75:
 577              		.loc 1 96 0
 578 0038 2168     		ldr	r1, [r4, #0]
 579 003a 091B     		subs	r1, r1, r4
 580 003c 18BF     		it	ne
 581 003e 0121     		movne	r1, #1
 582 0040 0220     		movs	r0, #2
 583 0042 FFF7FEFF 		bl	_test_assert
 584              	.LVL76:
 585 0046 0028     		cmp	r0, #0
 586 0048 F0D1     		bne	.L13
 587              		.loc 1 97 0
 588 004a 04A9     		add	r1, sp, #16
 589 004c 2046     		mov	r0, r4
 590 004e FFF7FEFF 		bl	chEvtUnregister
 591              	.LVL77:
 592              		.loc 1 98 0
 593 0052 2168     		ldr	r1, [r4, #0]
 594 0054 B1EB040E 		subs	lr, r1, r4
 595 0058 DEF10001 		rsbs	r1, lr, #0
 596 005c 51EB0E01 		adcs	r1, r1, lr
 597 0060 0320     		movs	r0, #3
 598 0062 FFF7FEFF 		bl	_test_assert
 599              	.LVL78:
 600 0066 0028     		cmp	r0, #0
 601 0068 E0D1     		bne	.L13
 602              		.loc 1 103 0
 603 006a 0548     		ldr	r0, .L17+4
 604 006c 0721     		movs	r1, #7
 605 006e FFF7FEFF 		bl	chEvtDispatch
 606              	.LVL79:
 607              		.loc 1 104 0
 608 0072 0449     		ldr	r1, .L17+8
 609 0074 0420     		movs	r0, #4
 610 0076 FFF7FEFF 		bl	_test_assert_sequence
 611              	.LVL80:
 612 007a D7E7     		b	.L13
 613              	.L18:
 614              		.align	2
 615              	.L17:
 616 007c 00000000 		.word	.LANCHOR0
 617 0080 00000000 		.word	.LANCHOR2
 618 0084 04000000 		.word	.LC1
 619              		.cfi_endproc
ARM GAS  /tmp/ccr5FXCl.s 			page 12


 620              	.LFE11:
 621              		.size	evt1_execute, .-evt1_execute
 622 0088 AFF30080 		.section	.text.h3,"ax",%progbits
 622      AFF30080 
 623              		.align	2
 624              		.p2align 4,,15
 625              		.thumb
 626              		.thumb_func
 627              		.type	h3, %function
 628              	h3:
 629              	.LFB10:
 630              		.loc 1 82 0
 631              		.cfi_startproc
 632              		@ args = 0, pretend = 0, frame = 0
 633              		@ frame_needed = 0, uses_anonymous_args = 0
 634              		@ link register save eliminated.
 635              	.LVL81:
 636              		.loc 1 82 0
 637 0000 4320     		movs	r0, #67
 638              	.LVL82:
 639 0002 FFF7FEBF 		b	test_emit_token
 640              	.LVL83:
 641              		.cfi_endproc
 642              	.LFE10:
 643              		.size	h3, .-h3
 644 0006 00BFAFF3 		.section	.text.h2,"ax",%progbits
 644      0080AFF3 
 644      0080
 645              		.align	2
 646              		.p2align 4,,15
 647              		.thumb
 648              		.thumb_func
 649              		.type	h2, %function
 650              	h2:
 651              	.LFB9:
 652              		.loc 1 81 0
 653              		.cfi_startproc
 654              		@ args = 0, pretend = 0, frame = 0
 655              		@ frame_needed = 0, uses_anonymous_args = 0
 656              		@ link register save eliminated.
 657              	.LVL84:
 658              		.loc 1 81 0
 659 0000 4220     		movs	r0, #66
 660              	.LVL85:
 661 0002 FFF7FEBF 		b	test_emit_token
 662              	.LVL86:
 663              		.cfi_endproc
 664              	.LFE9:
 665              		.size	h2, .-h2
 666 0006 00BFAFF3 		.section	.text.h1,"ax",%progbits
 666      0080AFF3 
 666      0080
 667              		.align	2
 668              		.p2align 4,,15
 669              		.thumb
 670              		.thumb_func
 671              		.type	h1, %function
ARM GAS  /tmp/ccr5FXCl.s 			page 13


 672              	h1:
 673              	.LFB8:
 674              		.loc 1 80 0
 675              		.cfi_startproc
 676              		@ args = 0, pretend = 0, frame = 0
 677              		@ frame_needed = 0, uses_anonymous_args = 0
 678              		@ link register save eliminated.
 679              	.LVL87:
 680              		.loc 1 80 0
 681 0000 4120     		movs	r0, #65
 682              	.LVL88:
 683 0002 FFF7FEBF 		b	test_emit_token
 684              	.LVL89:
 685              		.cfi_endproc
 686              	.LFE8:
 687              		.size	h1, .-h1
 688 0006 00BFAFF3 		.section	.text.evt3_execute,"ax",%progbits
 688      0080AFF3 
 688      0080
 689              		.align	2
 690              		.p2align 4,,15
 691              		.thumb
 692              		.thumb_func
 693              		.type	evt3_execute, %function
 694              	evt3_execute:
 695              	.LFB17:
 696              		.loc 1 252 0
 697              		.cfi_startproc
 698              		@ args = 0, pretend = 0, frame = 0
 699              		@ frame_needed = 0, uses_anonymous_args = 0
 700 0000 08B5     		push	{r3, lr}
 701              	.LCFI6:
 702              		.cfi_def_cfa_offset 8
 703              		.cfi_offset 3, -8
 704              		.cfi_offset 14, -4
 705              		.loc 1 258 0
 706 0002 0021     		movs	r1, #0
 707 0004 4FF0FF30 		mov	r0, #-1
 708 0008 FFF7FEFF 		bl	chEvtWaitOneTimeout
 709              	.LVL90:
 710              		.loc 1 259 0
 711 000c D0F10101 		rsbs	r1, r0, #1
 712 0010 38BF     		it	cc
 713 0012 0021     		movcc	r1, #0
 714 0014 0120     		movs	r0, #1
 715              	.LVL91:
 716 0016 FFF7FEFF 		bl	_test_assert
 717              	.LVL92:
 718 001a 00B1     		cbz	r0, .L26
 719              	.L22:
 720 001c 08BD     		pop	{r3, pc}
 721              	.L26:
 722              		.loc 1 260 0
 723 001e 0146     		mov	r1, r0
 724 0020 4FF0FF30 		mov	r0, #-1
 725 0024 FFF7FEFF 		bl	chEvtWaitAnyTimeout
 726              	.LVL93:
ARM GAS  /tmp/ccr5FXCl.s 			page 14


 727              		.loc 1 261 0
 728 0028 D0F10101 		rsbs	r1, r0, #1
 729 002c 38BF     		it	cc
 730 002e 0021     		movcc	r1, #0
 731 0030 0220     		movs	r0, #2
 732              	.LVL94:
 733 0032 FFF7FEFF 		bl	_test_assert
 734              	.LVL95:
 735 0036 0028     		cmp	r0, #0
 736 0038 F0D1     		bne	.L22
 737              		.loc 1 262 0
 738 003a 0146     		mov	r1, r0
 739 003c 4FF0FF30 		mov	r0, #-1
 740 0040 FFF7FEFF 		bl	chEvtWaitAllTimeout
 741              	.LVL96:
 742              		.loc 1 263 0
 743 0044 D0F10101 		rsbs	r1, r0, #1
 744 0048 38BF     		it	cc
 745 004a 0021     		movcc	r1, #0
 746 004c 0320     		movs	r0, #3
 747              	.LVL97:
 748 004e FFF7FEFF 		bl	_test_assert
 749              	.LVL98:
 750 0052 0028     		cmp	r0, #0
 751 0054 E2D1     		bne	.L22
 752              	.LBB4:
 753              	.LBB5:
 754              		.loc 1 264 0
 755 0056 0A21     		movs	r1, #10
 756 0058 4FF0FF30 		mov	r0, #-1
 757 005c FFF7FEFF 		bl	chEvtWaitOneTimeout
 758              	.LVL99:
 759              		.loc 1 265 0
 760 0060 D0F10101 		rsbs	r1, r0, #1
 761 0064 38BF     		it	cc
 762 0066 0021     		movcc	r1, #0
 763 0068 0420     		movs	r0, #4
 764              	.LVL100:
 765 006a FFF7FEFF 		bl	_test_assert
 766              	.LVL101:
 767 006e 0028     		cmp	r0, #0
 768 0070 D4D1     		bne	.L22
 769              		.loc 1 266 0
 770 0072 0A21     		movs	r1, #10
 771 0074 4FF0FF30 		mov	r0, #-1
 772 0078 FFF7FEFF 		bl	chEvtWaitAnyTimeout
 773              	.LVL102:
 774              		.loc 1 267 0
 775 007c D0F10101 		rsbs	r1, r0, #1
 776 0080 38BF     		it	cc
 777 0082 0021     		movcc	r1, #0
 778 0084 0520     		movs	r0, #5
 779              	.LVL103:
 780 0086 FFF7FEFF 		bl	_test_assert
 781              	.LVL104:
 782 008a 0028     		cmp	r0, #0
 783 008c C6D1     		bne	.L22
ARM GAS  /tmp/ccr5FXCl.s 			page 15


 784              		.loc 1 268 0
 785 008e 0A21     		movs	r1, #10
 786 0090 4FF0FF30 		mov	r0, #-1
 787 0094 FFF7FEFF 		bl	chEvtWaitAllTimeout
 788              	.LVL105:
 789              		.loc 1 269 0
 790 0098 D0F10101 		rsbs	r1, r0, #1
 791 009c 38BF     		it	cc
 792 009e 0021     		movcc	r1, #0
 793 00a0 0620     		movs	r0, #6
 794              	.LVL106:
 795              	.LBE5:
 796              	.LBE4:
 797              		.loc 1 270 0
 798 00a2 BDE80840 		pop	{r3, lr}
 799              	.LBB7:
 800              	.LBB6:
 801              		.loc 1 269 0
 802 00a6 FFF7FEBF 		b	_test_assert
 803              	.LVL107:
 804              	.LBE6:
 805              	.LBE7:
 806              		.cfi_endproc
 807              	.LFE17:
 808              		.size	evt3_execute, .-evt3_execute
 809              		.global	patternevt
 810              		.global	testevt3
 811              		.global	testevt2
 812              		.global	testevt1
 813 00aa 00BFAFF3 		.section	.rodata.patternevt,"a",%progbits
 813      0080
 814              		.align	2
 815              		.type	patternevt, %object
 816              		.size	patternevt, 16
 817              	patternevt:
 818 0000 00000000 		.word	testevt1
 819 0004 00000000 		.word	testevt2
 820 0008 00000000 		.word	testevt3
 821 000c 00000000 		.word	0
 822              		.section	.rodata.testevt2,"a",%progbits
 823              		.align	2
 824              		.type	testevt2, %object
 825              		.size	testevt2, 16
 826              	testevt2:
 827 0000 1C000000 		.word	.LC3
 828 0004 00000000 		.word	evt2_setup
 829 0008 00000000 		.word	0
 830 000c 00000000 		.word	evt2_execute
 831              		.section	.rodata.str1.4,"aMS",%progbits,1
 832              		.align	2
 833              	.LC0:
 834 0000 4100     		.ascii	"A\000"
 835 0002 0000     		.space	2
 836              	.LC1:
 837 0004 41424300 		.ascii	"ABC\000"
 838              	.LC2:
 839 0008 4576656E 		.ascii	"Events, timeouts\000"
ARM GAS  /tmp/ccr5FXCl.s 			page 16


 839      74732C20 
 839      74696D65 
 839      6F757473 
 839      00
 840 0019 000000   		.space	3
 841              	.LC3:
 842 001c 4576656E 		.ascii	"Events, wait and broadcast\000"
 842      74732C20 
 842      77616974 
 842      20616E64 
 842      2062726F 
 843 0037 00       		.space	1
 844              	.LC4:
 845 0038 4576656E 		.ascii	"Events, registration and dispatch\000"
 845      74732C20 
 845      72656769 
 845      73747261 
 845      74696F6E 
 846 005a 0000     		.section	.rodata.testevt1,"a",%progbits
 847              		.align	2
 848              		.type	testevt1, %object
 849              		.size	testevt1, 16
 850              	testevt1:
 851 0000 38000000 		.word	.LC4
 852 0004 00000000 		.word	evt1_setup
 853 0008 00000000 		.word	0
 854 000c 00000000 		.word	evt1_execute
 855              		.section	.rodata.evhndl,"a",%progbits
 856              		.align	2
 857              		.set	.LANCHOR2,. + 0
 858              		.type	evhndl, %object
 859              		.size	evhndl, 12
 860              	evhndl:
 861 0000 00000000 		.word	h1
 862 0004 00000000 		.word	h2
 863 0008 00000000 		.word	h3
 864              		.section	.rodata.testevt3,"a",%progbits
 865              		.align	2
 866              		.type	testevt3, %object
 867              		.size	testevt3, 16
 868              	testevt3:
 869 0000 08000000 		.word	.LC2
 870 0004 00000000 		.word	evt3_setup
 871 0008 00000000 		.word	0
 872 000c 00000000 		.word	evt3_execute
 873              		.section	.data.es1,"aw",%progbits
 874              		.align	2
 875              		.set	.LANCHOR0,. + 0
 876              		.type	es1, %object
 877              		.size	es1, 4
 878              	es1:
 879 0000 00000000 		.word	es1
 880              		.section	.data.es2,"aw",%progbits
 881              		.align	2
 882              		.set	.LANCHOR1,. + 0
 883              		.type	es2, %object
 884              		.size	es2, 4
ARM GAS  /tmp/ccr5FXCl.s 			page 17


 885              	es2:
 886 0000 00000000 		.word	es2
 887              		.text
 888              	.Letext0:
 889              		.file 2 "/opt/tools_arm/lib/gcc/arm-none-eabi/4.7.3/include/stddef.h"
 890              		.file 3 "/opt/tools_arm/lib/gcc/arm-none-eabi/4.7.3/../../../../arm-none-eabi/include/stdint.h"
 891              		.file 4 "/home/felix/Documents/ChibiOS/os/ports/GCC/ARMCMx/chtypes.h"
 892              		.file 5 "/home/felix/Documents/ChibiOS/os/kernel/include/chlists.h"
 893              		.file 6 "/home/felix/Documents/ChibiOS/os/kernel/include/chthreads.h"
 894              		.file 7 "/home/felix/Documents/ChibiOS/os/ports/GCC/ARMCMx/chcore_v7m.h"
 895              		.file 8 "/home/felix/Documents/ChibiOS/os/kernel/include/chvt.h"
 896              		.file 9 "/home/felix/Documents/ChibiOS/os/kernel/include/chschd.h"
 897              		.file 10 "/home/felix/Documents/ChibiOS/os/kernel/include/chmtx.h"
 898              		.file 11 "/home/felix/Documents/ChibiOS/os/kernel/include/chevents.h"
 899              		.file 12 "/home/felix/Documents/ChibiOS/test/test.h"
 900              		.section	.debug_info,"",%progbits
 901              	.Ldebug_info0:
 902 0000 74110000 		.4byte	0x1174
 903 0004 0200     		.2byte	0x2
 904 0006 00000000 		.4byte	.Ldebug_abbrev0
 905 000a 04       		.byte	0x4
 906 000b 01       		.uleb128 0x1
 907 000c DF040000 		.4byte	.LASF125
 908 0010 01       		.byte	0x1
 909 0011 77020000 		.4byte	.LASF126
 910 0015 30000000 		.4byte	.Ldebug_ranges0+0x30
 911 0019 00000000 		.4byte	0
 912 001d 00000000 		.4byte	0
 913 0021 00000000 		.4byte	.Ldebug_line0
 914 0025 02       		.uleb128 0x2
 915 0026 04       		.byte	0x4
 916 0027 05       		.byte	0x5
 917 0028 696E7400 		.ascii	"int\000"
 918 002c 03       		.uleb128 0x3
 919 002d 19000000 		.4byte	.LASF2
 920 0031 02       		.byte	0x2
 921 0032 D5       		.byte	0xd5
 922 0033 37000000 		.4byte	0x37
 923 0037 04       		.uleb128 0x4
 924 0038 04       		.byte	0x4
 925 0039 07       		.byte	0x7
 926 003a 9D010000 		.4byte	.LASF0
 927 003e 04       		.uleb128 0x4
 928 003f 01       		.byte	0x1
 929 0040 06       		.byte	0x6
 930 0041 9F000000 		.4byte	.LASF1
 931 0045 03       		.uleb128 0x3
 932 0046 D7040000 		.4byte	.LASF3
 933 004a 03       		.byte	0x3
 934 004b 2A       		.byte	0x2a
 935 004c 50000000 		.4byte	0x50
 936 0050 04       		.uleb128 0x4
 937 0051 01       		.byte	0x1
 938 0052 08       		.byte	0x8
 939 0053 8E030000 		.4byte	.LASF4
 940 0057 04       		.uleb128 0x4
 941 0058 02       		.byte	0x2
ARM GAS  /tmp/ccr5FXCl.s 			page 18


 942 0059 05       		.byte	0x5
 943 005a D5030000 		.4byte	.LASF5
 944 005e 04       		.uleb128 0x4
 945 005f 02       		.byte	0x2
 946 0060 07       		.byte	0x7
 947 0061 FC010000 		.4byte	.LASF6
 948 0065 03       		.uleb128 0x3
 949 0066 86030000 		.4byte	.LASF7
 950 006a 03       		.byte	0x3
 951 006b 4F       		.byte	0x4f
 952 006c 70000000 		.4byte	0x70
 953 0070 04       		.uleb128 0x4
 954 0071 04       		.byte	0x4
 955 0072 05       		.byte	0x5
 956 0073 F0000000 		.4byte	.LASF8
 957 0077 03       		.uleb128 0x3
 958 0078 41040000 		.4byte	.LASF9
 959 007c 03       		.byte	0x3
 960 007d 50       		.byte	0x50
 961 007e 82000000 		.4byte	0x82
 962 0082 04       		.uleb128 0x4
 963 0083 04       		.byte	0x4
 964 0084 07       		.byte	0x7
 965 0085 B2010000 		.4byte	.LASF10
 966 0089 04       		.uleb128 0x4
 967 008a 08       		.byte	0x8
 968 008b 05       		.byte	0x5
 969 008c 91000000 		.4byte	.LASF11
 970 0090 04       		.uleb128 0x4
 971 0091 08       		.byte	0x8
 972 0092 07       		.byte	0x7
 973 0093 3A000000 		.4byte	.LASF12
 974 0097 03       		.uleb128 0x3
 975 0098 C7000000 		.4byte	.LASF13
 976 009c 04       		.byte	0x4
 977 009d 2B       		.byte	0x2b
 978 009e A2000000 		.4byte	0xa2
 979 00a2 04       		.uleb128 0x4
 980 00a3 01       		.byte	0x1
 981 00a4 02       		.byte	0x2
 982 00a5 80030000 		.4byte	.LASF14
 983 00a9 03       		.uleb128 0x3
 984 00aa 3F020000 		.4byte	.LASF15
 985 00ae 04       		.byte	0x4
 986 00af 2C       		.byte	0x2c
 987 00b0 45000000 		.4byte	0x45
 988 00b4 03       		.uleb128 0x3
 989 00b5 05010000 		.4byte	.LASF16
 990 00b9 04       		.byte	0x4
 991 00ba 2D       		.byte	0x2d
 992 00bb 45000000 		.4byte	0x45
 993 00bf 03       		.uleb128 0x3
 994 00c0 61030000 		.4byte	.LASF17
 995 00c4 04       		.byte	0x4
 996 00c5 2E       		.byte	0x2e
 997 00c6 45000000 		.4byte	0x45
 998 00ca 03       		.uleb128 0x3
ARM GAS  /tmp/ccr5FXCl.s 			page 19


 999 00cb E6000000 		.4byte	.LASF18
 1000 00cf 04       		.byte	0x4
 1001 00d0 2F       		.byte	0x2f
 1002 00d1 45000000 		.4byte	0x45
 1003 00d5 03       		.uleb128 0x3
 1004 00d6 78030000 		.4byte	.LASF19
 1005 00da 04       		.byte	0x4
 1006 00db 30       		.byte	0x30
 1007 00dc 77000000 		.4byte	0x77
 1008 00e0 03       		.uleb128 0x3
 1009 00e1 21020000 		.4byte	.LASF20
 1010 00e5 04       		.byte	0x4
 1011 00e6 31       		.byte	0x31
 1012 00e7 65000000 		.4byte	0x65
 1013 00eb 03       		.uleb128 0x3
 1014 00ec 7B010000 		.4byte	.LASF21
 1015 00f0 04       		.byte	0x4
 1016 00f1 32       		.byte	0x32
 1017 00f2 65000000 		.4byte	0x65
 1018 00f6 03       		.uleb128 0x3
 1019 00f7 53020000 		.4byte	.LASF22
 1020 00fb 04       		.byte	0x4
 1021 00fc 33       		.byte	0x33
 1022 00fd 77000000 		.4byte	0x77
 1023 0101 03       		.uleb128 0x3
 1024 0102 A9040000 		.4byte	.LASF23
 1025 0106 04       		.byte	0x4
 1026 0107 34       		.byte	0x34
 1027 0108 77000000 		.4byte	0x77
 1028 010c 03       		.uleb128 0x3
 1029 010d 6B040000 		.4byte	.LASF24
 1030 0111 04       		.byte	0x4
 1031 0112 35       		.byte	0x35
 1032 0113 77000000 		.4byte	0x77
 1033 0117 03       		.uleb128 0x3
 1034 0118 16040000 		.4byte	.LASF25
 1035 011c 05       		.byte	0x5
 1036 011d 2A       		.byte	0x2a
 1037 011e 22010000 		.4byte	0x122
 1038 0122 05       		.uleb128 0x5
 1039 0123 16040000 		.4byte	.LASF25
 1040 0127 48       		.byte	0x48
 1041 0128 06       		.byte	0x6
 1042 0129 5E       		.byte	0x5e
 1043 012a 47020000 		.4byte	0x247
 1044 012e 06       		.uleb128 0x6
 1045 012f 07040000 		.4byte	.LASF26
 1046 0133 06       		.byte	0x6
 1047 0134 5F       		.byte	0x5f
 1048 0135 6C020000 		.4byte	0x26c
 1049 0139 02       		.byte	0x2
 1050 013a 23       		.byte	0x23
 1051 013b 00       		.uleb128 0
 1052 013c 06       		.uleb128 0x6
 1053 013d 69030000 		.4byte	.LASF27
 1054 0141 06       		.byte	0x6
 1055 0142 61       		.byte	0x61
ARM GAS  /tmp/ccr5FXCl.s 			page 20


 1056 0143 6C020000 		.4byte	0x26c
 1057 0147 02       		.byte	0x2
 1058 0148 23       		.byte	0x23
 1059 0149 04       		.uleb128 0x4
 1060 014a 06       		.uleb128 0x6
 1061 014b 7D000000 		.4byte	.LASF28
 1062 014f 06       		.byte	0x6
 1063 0150 63       		.byte	0x63
 1064 0151 D5000000 		.4byte	0xd5
 1065 0155 02       		.byte	0x2
 1066 0156 23       		.byte	0x23
 1067 0157 08       		.uleb128 0x8
 1068 0158 06       		.uleb128 0x6
 1069 0159 7C050000 		.4byte	.LASF29
 1070 015d 06       		.byte	0x6
 1071 015e 64       		.byte	0x64
 1072 015f 3A030000 		.4byte	0x33a
 1073 0163 02       		.byte	0x2
 1074 0164 23       		.byte	0x23
 1075 0165 0C       		.uleb128 0xc
 1076 0166 06       		.uleb128 0x6
 1077 0167 46010000 		.4byte	.LASF30
 1078 016b 06       		.byte	0x6
 1079 016c 66       		.byte	0x66
 1080 016d 6C020000 		.4byte	0x26c
 1081 0171 02       		.byte	0x2
 1082 0172 23       		.byte	0x23
 1083 0173 10       		.uleb128 0x10
 1084 0174 06       		.uleb128 0x6
 1085 0175 F3020000 		.4byte	.LASF31
 1086 0179 06       		.byte	0x6
 1087 017a 67       		.byte	0x67
 1088 017b 6C020000 		.4byte	0x26c
 1089 017f 02       		.byte	0x2
 1090 0180 23       		.byte	0x23
 1091 0181 14       		.uleb128 0x14
 1092 0182 06       		.uleb128 0x6
 1093 0183 2A050000 		.4byte	.LASF32
 1094 0187 06       		.byte	0x6
 1095 0188 6E       		.byte	0x6e
 1096 0189 B4050000 		.4byte	0x5b4
 1097 018d 02       		.byte	0x2
 1098 018e 23       		.byte	0x23
 1099 018f 18       		.uleb128 0x18
 1100 0190 06       		.uleb128 0x6
 1101 0191 DF030000 		.4byte	.LASF33
 1102 0195 06       		.byte	0x6
 1103 0196 79       		.byte	0x79
 1104 0197 B4000000 		.4byte	0xb4
 1105 019b 02       		.byte	0x2
 1106 019c 23       		.byte	0x23
 1107 019d 1C       		.uleb128 0x1c
 1108 019e 06       		.uleb128 0x6
 1109 019f 0E040000 		.4byte	.LASF34
 1110 01a3 06       		.byte	0x6
 1111 01a4 7D       		.byte	0x7d
 1112 01a5 A9000000 		.4byte	0xa9
ARM GAS  /tmp/ccr5FXCl.s 			page 21


 1113 01a9 02       		.byte	0x2
 1114 01aa 23       		.byte	0x23
 1115 01ab 1D       		.uleb128 0x1d
 1116 01ac 06       		.uleb128 0x6
 1117 01ad C0040000 		.4byte	.LASF35
 1118 01b1 06       		.byte	0x6
 1119 01b2 82       		.byte	0x82
 1120 01b3 BF000000 		.4byte	0xbf
 1121 01b7 02       		.byte	0x2
 1122 01b8 23       		.byte	0x23
 1123 01b9 1E       		.uleb128 0x1e
 1124 01ba 06       		.uleb128 0x6
 1125 01bb E7030000 		.4byte	.LASF36
 1126 01bf 06       		.byte	0x6
 1127 01c0 88       		.byte	0x88
 1128 01c1 CA000000 		.4byte	0xca
 1129 01c5 02       		.byte	0x2
 1130 01c6 23       		.byte	0x23
 1131 01c7 1F       		.uleb128 0x1f
 1132 01c8 06       		.uleb128 0x6
 1133 01c9 89040000 		.4byte	.LASF37
 1134 01cd 06       		.byte	0x6
 1135 01ce 8F       		.byte	0x8f
 1136 01cf 26040000 		.4byte	0x426
 1137 01d3 02       		.byte	0x2
 1138 01d4 23       		.byte	0x23
 1139 01d5 20       		.uleb128 0x20
 1140 01d6 07       		.uleb128 0x7
 1141 01d7 705F7500 		.ascii	"p_u\000"
 1142 01db 06       		.byte	0x6
 1143 01dc B4       		.byte	0xb4
 1144 01dd 7F050000 		.4byte	0x57f
 1145 01e1 02       		.byte	0x2
 1146 01e2 23       		.byte	0x23
 1147 01e3 24       		.uleb128 0x24
 1148 01e4 06       		.uleb128 0x6
 1149 01e5 82050000 		.4byte	.LASF38
 1150 01e9 06       		.byte	0x6
 1151 01ea B9       		.byte	0xb9
 1152 01eb 94020000 		.4byte	0x294
 1153 01ef 02       		.byte	0x2
 1154 01f0 23       		.byte	0x23
 1155 01f1 28       		.uleb128 0x28
 1156 01f2 06       		.uleb128 0x6
 1157 01f3 97040000 		.4byte	.LASF39
 1158 01f7 06       		.byte	0x6
 1159 01f8 BF       		.byte	0xbf
 1160 01f9 72020000 		.4byte	0x272
 1161 01fd 02       		.byte	0x2
 1162 01fe 23       		.byte	0x23
 1163 01ff 2C       		.uleb128 0x2c
 1164 0200 06       		.uleb128 0x6
 1165 0201 13000000 		.4byte	.LASF40
 1166 0205 06       		.byte	0x6
 1167 0206 C3       		.byte	0xc3
 1168 0207 E0000000 		.4byte	0xe0
 1169 020b 02       		.byte	0x2
ARM GAS  /tmp/ccr5FXCl.s 			page 22


 1170 020c 23       		.byte	0x23
 1171 020d 34       		.uleb128 0x34
 1172 020e 06       		.uleb128 0x6
 1173 020f 26040000 		.4byte	.LASF41
 1174 0213 06       		.byte	0x6
 1175 0214 C9       		.byte	0xc9
 1176 0215 F6000000 		.4byte	0xf6
 1177 0219 02       		.byte	0x2
 1178 021a 23       		.byte	0x23
 1179 021b 38       		.uleb128 0x38
 1180 021c 06       		.uleb128 0x6
 1181 021d CB030000 		.4byte	.LASF42
 1182 0221 06       		.byte	0x6
 1183 0222 D0       		.byte	0xd0
 1184 0223 C6050000 		.4byte	0x5c6
 1185 0227 02       		.byte	0x2
 1186 0228 23       		.byte	0x23
 1187 0229 3C       		.uleb128 0x3c
 1188 022a 06       		.uleb128 0x6
 1189 022b 75040000 		.4byte	.LASF43
 1190 022f 06       		.byte	0x6
 1191 0230 D4       		.byte	0xd4
 1192 0231 D5000000 		.4byte	0xd5
 1193 0235 02       		.byte	0x2
 1194 0236 23       		.byte	0x23
 1195 0237 40       		.uleb128 0x40
 1196 0238 06       		.uleb128 0x6
 1197 0239 BF000000 		.4byte	.LASF44
 1198 023d 06       		.byte	0x6
 1199 023e DA       		.byte	0xda
 1200 023f AA020000 		.4byte	0x2aa
 1201 0243 02       		.byte	0x2
 1202 0244 23       		.byte	0x23
 1203 0245 44       		.uleb128 0x44
 1204 0246 00       		.byte	0
 1205 0247 08       		.uleb128 0x8
 1206 0248 08       		.byte	0x8
 1207 0249 05       		.byte	0x5
 1208 024a 61       		.byte	0x61
 1209 024b 6C020000 		.4byte	0x26c
 1210 024f 06       		.uleb128 0x6
 1211 0250 07040000 		.4byte	.LASF26
 1212 0254 05       		.byte	0x5
 1213 0255 62       		.byte	0x62
 1214 0256 6C020000 		.4byte	0x26c
 1215 025a 02       		.byte	0x2
 1216 025b 23       		.byte	0x23
 1217 025c 00       		.uleb128 0
 1218 025d 06       		.uleb128 0x6
 1219 025e 69030000 		.4byte	.LASF27
 1220 0262 05       		.byte	0x5
 1221 0263 64       		.byte	0x64
 1222 0264 6C020000 		.4byte	0x26c
 1223 0268 02       		.byte	0x2
 1224 0269 23       		.byte	0x23
 1225 026a 04       		.uleb128 0x4
 1226 026b 00       		.byte	0
ARM GAS  /tmp/ccr5FXCl.s 			page 23


 1227 026c 09       		.uleb128 0x9
 1228 026d 04       		.byte	0x4
 1229 026e 17010000 		.4byte	0x117
 1230 0272 03       		.uleb128 0x3
 1231 0273 11030000 		.4byte	.LASF45
 1232 0277 05       		.byte	0x5
 1233 0278 66       		.byte	0x66
 1234 0279 47020000 		.4byte	0x247
 1235 027d 08       		.uleb128 0x8
 1236 027e 04       		.byte	0x4
 1237 027f 05       		.byte	0x5
 1238 0280 6B       		.byte	0x6b
 1239 0281 94020000 		.4byte	0x294
 1240 0285 06       		.uleb128 0x6
 1241 0286 07040000 		.4byte	.LASF26
 1242 028a 05       		.byte	0x5
 1243 028b 6D       		.byte	0x6d
 1244 028c 6C020000 		.4byte	0x26c
 1245 0290 02       		.byte	0x2
 1246 0291 23       		.byte	0x23
 1247 0292 00       		.uleb128 0
 1248 0293 00       		.byte	0
 1249 0294 03       		.uleb128 0x3
 1250 0295 47020000 		.4byte	.LASF46
 1251 0299 05       		.byte	0x5
 1252 029a 70       		.byte	0x70
 1253 029b 7D020000 		.4byte	0x27d
 1254 029f 03       		.uleb128 0x3
 1255 02a0 56010000 		.4byte	.LASF47
 1256 02a4 07       		.byte	0x7
 1257 02a5 E5       		.byte	0xe5
 1258 02a6 AA020000 		.4byte	0x2aa
 1259 02aa 0A       		.uleb128 0xa
 1260 02ab 04       		.byte	0x4
 1261 02ac 0B       		.uleb128 0xb
 1262 02ad 90040000 		.4byte	.LASF48
 1263 02b1 24       		.byte	0x24
 1264 02b2 07       		.byte	0x7
 1265 02b3 0C01     		.2byte	0x10c
 1266 02b5 3A030000 		.4byte	0x33a
 1267 02b9 0C       		.uleb128 0xc
 1268 02ba 723400   		.ascii	"r4\000"
 1269 02bd 07       		.byte	0x7
 1270 02be 1F01     		.2byte	0x11f
 1271 02c0 9F020000 		.4byte	0x29f
 1272 02c4 02       		.byte	0x2
 1273 02c5 23       		.byte	0x23
 1274 02c6 00       		.uleb128 0
 1275 02c7 0C       		.uleb128 0xc
 1276 02c8 723500   		.ascii	"r5\000"
 1277 02cb 07       		.byte	0x7
 1278 02cc 2001     		.2byte	0x120
 1279 02ce 9F020000 		.4byte	0x29f
 1280 02d2 02       		.byte	0x2
 1281 02d3 23       		.byte	0x23
 1282 02d4 04       		.uleb128 0x4
 1283 02d5 0C       		.uleb128 0xc
ARM GAS  /tmp/ccr5FXCl.s 			page 24


 1284 02d6 723600   		.ascii	"r6\000"
 1285 02d9 07       		.byte	0x7
 1286 02da 2101     		.2byte	0x121
 1287 02dc 9F020000 		.4byte	0x29f
 1288 02e0 02       		.byte	0x2
 1289 02e1 23       		.byte	0x23
 1290 02e2 08       		.uleb128 0x8
 1291 02e3 0C       		.uleb128 0xc
 1292 02e4 723700   		.ascii	"r7\000"
 1293 02e7 07       		.byte	0x7
 1294 02e8 2201     		.2byte	0x122
 1295 02ea 9F020000 		.4byte	0x29f
 1296 02ee 02       		.byte	0x2
 1297 02ef 23       		.byte	0x23
 1298 02f0 0C       		.uleb128 0xc
 1299 02f1 0C       		.uleb128 0xc
 1300 02f2 723800   		.ascii	"r8\000"
 1301 02f5 07       		.byte	0x7
 1302 02f6 2301     		.2byte	0x123
 1303 02f8 9F020000 		.4byte	0x29f
 1304 02fc 02       		.byte	0x2
 1305 02fd 23       		.byte	0x23
 1306 02fe 10       		.uleb128 0x10
 1307 02ff 0C       		.uleb128 0xc
 1308 0300 723900   		.ascii	"r9\000"
 1309 0303 07       		.byte	0x7
 1310 0304 2401     		.2byte	0x124
 1311 0306 9F020000 		.4byte	0x29f
 1312 030a 02       		.byte	0x2
 1313 030b 23       		.byte	0x23
 1314 030c 14       		.uleb128 0x14
 1315 030d 0C       		.uleb128 0xc
 1316 030e 72313000 		.ascii	"r10\000"
 1317 0312 07       		.byte	0x7
 1318 0313 2501     		.2byte	0x125
 1319 0315 9F020000 		.4byte	0x29f
 1320 0319 02       		.byte	0x2
 1321 031a 23       		.byte	0x23
 1322 031b 18       		.uleb128 0x18
 1323 031c 0C       		.uleb128 0xc
 1324 031d 72313100 		.ascii	"r11\000"
 1325 0321 07       		.byte	0x7
 1326 0322 2601     		.2byte	0x126
 1327 0324 9F020000 		.4byte	0x29f
 1328 0328 02       		.byte	0x2
 1329 0329 23       		.byte	0x23
 1330 032a 1C       		.uleb128 0x1c
 1331 032b 0C       		.uleb128 0xc
 1332 032c 6C7200   		.ascii	"lr\000"
 1333 032f 07       		.byte	0x7
 1334 0330 2701     		.2byte	0x127
 1335 0332 9F020000 		.4byte	0x29f
 1336 0336 02       		.byte	0x2
 1337 0337 23       		.byte	0x23
 1338 0338 20       		.uleb128 0x20
 1339 0339 00       		.byte	0
 1340 033a 0B       		.uleb128 0xb
ARM GAS  /tmp/ccr5FXCl.s 			page 25


 1341 033b F4010000 		.4byte	.LASF49
 1342 033f 04       		.byte	0x4
 1343 0340 07       		.byte	0x7
 1344 0341 3101     		.2byte	0x131
 1345 0343 57030000 		.4byte	0x357
 1346 0347 0C       		.uleb128 0xc
 1347 0348 72313300 		.ascii	"r13\000"
 1348 034c 07       		.byte	0x7
 1349 034d 3201     		.2byte	0x132
 1350 034f 57030000 		.4byte	0x357
 1351 0353 02       		.byte	0x2
 1352 0354 23       		.byte	0x23
 1353 0355 00       		.uleb128 0
 1354 0356 00       		.byte	0
 1355 0357 09       		.uleb128 0x9
 1356 0358 04       		.byte	0x4
 1357 0359 AC020000 		.4byte	0x2ac
 1358 035d 04       		.uleb128 0x4
 1359 035e 04       		.byte	0x4
 1360 035f 07       		.byte	0x7
 1361 0360 B7020000 		.4byte	.LASF50
 1362 0364 03       		.uleb128 0x3
 1363 0365 80040000 		.4byte	.LASF51
 1364 0369 08       		.byte	0x8
 1365 036a 55       		.byte	0x55
 1366 036b 6F030000 		.4byte	0x36f
 1367 036f 09       		.uleb128 0x9
 1368 0370 04       		.byte	0x4
 1369 0371 75030000 		.4byte	0x375
 1370 0375 0D       		.uleb128 0xd
 1371 0376 01       		.byte	0x1
 1372 0377 81030000 		.4byte	0x381
 1373 037b 0E       		.uleb128 0xe
 1374 037c AA020000 		.4byte	0x2aa
 1375 0380 00       		.byte	0
 1376 0381 03       		.uleb128 0x3
 1377 0382 52040000 		.4byte	.LASF52
 1378 0386 08       		.byte	0x8
 1379 0387 5A       		.byte	0x5a
 1380 0388 8C030000 		.4byte	0x38c
 1381 038c 05       		.uleb128 0x5
 1382 038d 52040000 		.4byte	.LASF52
 1383 0391 14       		.byte	0x14
 1384 0392 08       		.byte	0x8
 1385 0393 61       		.byte	0x61
 1386 0394 DF030000 		.4byte	0x3df
 1387 0398 06       		.uleb128 0x6
 1388 0399 AA010000 		.4byte	.LASF53
 1389 039d 08       		.byte	0x8
 1390 039e 62       		.byte	0x62
 1391 039f DF030000 		.4byte	0x3df
 1392 03a3 02       		.byte	0x2
 1393 03a4 23       		.byte	0x23
 1394 03a5 00       		.uleb128 0
 1395 03a6 06       		.uleb128 0x6
 1396 03a7 5F010000 		.4byte	.LASF54
 1397 03ab 08       		.byte	0x8
ARM GAS  /tmp/ccr5FXCl.s 			page 26


 1398 03ac 64       		.byte	0x64
 1399 03ad DF030000 		.4byte	0x3df
 1400 03b1 02       		.byte	0x2
 1401 03b2 23       		.byte	0x23
 1402 03b3 04       		.uleb128 0x4
 1403 03b4 06       		.uleb128 0x6
 1404 03b5 A4020000 		.4byte	.LASF55
 1405 03b9 08       		.byte	0x8
 1406 03ba 66       		.byte	0x66
 1407 03bb 0C010000 		.4byte	0x10c
 1408 03bf 02       		.byte	0x2
 1409 03c0 23       		.byte	0x23
 1410 03c1 08       		.uleb128 0x8
 1411 03c2 06       		.uleb128 0x6
 1412 03c3 C0020000 		.4byte	.LASF56
 1413 03c7 08       		.byte	0x8
 1414 03c8 67       		.byte	0x67
 1415 03c9 64030000 		.4byte	0x364
 1416 03cd 02       		.byte	0x2
 1417 03ce 23       		.byte	0x23
 1418 03cf 0C       		.uleb128 0xc
 1419 03d0 06       		.uleb128 0x6
 1420 03d1 A2040000 		.4byte	.LASF57
 1421 03d5 08       		.byte	0x8
 1422 03d6 69       		.byte	0x69
 1423 03d7 AA020000 		.4byte	0x2aa
 1424 03db 02       		.byte	0x2
 1425 03dc 23       		.byte	0x23
 1426 03dd 10       		.uleb128 0x10
 1427 03de 00       		.byte	0
 1428 03df 09       		.uleb128 0x9
 1429 03e0 04       		.byte	0x4
 1430 03e1 81030000 		.4byte	0x381
 1431 03e5 08       		.uleb128 0x8
 1432 03e6 10       		.byte	0x10
 1433 03e7 08       		.byte	0x8
 1434 03e8 73       		.byte	0x73
 1435 03e9 26040000 		.4byte	0x426
 1436 03ed 06       		.uleb128 0x6
 1437 03ee AA010000 		.4byte	.LASF53
 1438 03f2 08       		.byte	0x8
 1439 03f3 74       		.byte	0x74
 1440 03f4 DF030000 		.4byte	0x3df
 1441 03f8 02       		.byte	0x2
 1442 03f9 23       		.byte	0x23
 1443 03fa 00       		.uleb128 0
 1444 03fb 06       		.uleb128 0x6
 1445 03fc 5F010000 		.4byte	.LASF54
 1446 0400 08       		.byte	0x8
 1447 0401 76       		.byte	0x76
 1448 0402 DF030000 		.4byte	0x3df
 1449 0406 02       		.byte	0x2
 1450 0407 23       		.byte	0x23
 1451 0408 04       		.uleb128 0x4
 1452 0409 06       		.uleb128 0x6
 1453 040a A4020000 		.4byte	.LASF55
 1454 040e 08       		.byte	0x8
ARM GAS  /tmp/ccr5FXCl.s 			page 27


 1455 040f 78       		.byte	0x78
 1456 0410 0C010000 		.4byte	0x10c
 1457 0414 02       		.byte	0x2
 1458 0415 23       		.byte	0x23
 1459 0416 08       		.uleb128 0x8
 1460 0417 06       		.uleb128 0x6
 1461 0418 3E050000 		.4byte	.LASF58
 1462 041c 08       		.byte	0x8
 1463 041d 79       		.byte	0x79
 1464 041e 26040000 		.4byte	0x426
 1465 0422 02       		.byte	0x2
 1466 0423 23       		.byte	0x23
 1467 0424 0C       		.uleb128 0xc
 1468 0425 00       		.byte	0
 1469 0426 0F       		.uleb128 0xf
 1470 0427 0C010000 		.4byte	0x10c
 1471 042b 03       		.uleb128 0x3
 1472 042c 51050000 		.4byte	.LASF59
 1473 0430 08       		.byte	0x8
 1474 0431 7A       		.byte	0x7a
 1475 0432 E5030000 		.4byte	0x3e5
 1476 0436 08       		.uleb128 0x8
 1477 0437 1C       		.byte	0x1c
 1478 0438 09       		.byte	0x9
 1479 0439 5E       		.byte	0x5e
 1480 043a 93040000 		.4byte	0x493
 1481 043e 06       		.uleb128 0x6
 1482 043f 4A040000 		.4byte	.LASF60
 1483 0443 09       		.byte	0x9
 1484 0444 5F       		.byte	0x5f
 1485 0445 72020000 		.4byte	0x272
 1486 0449 02       		.byte	0x2
 1487 044a 23       		.byte	0x23
 1488 044b 00       		.uleb128 0
 1489 044c 06       		.uleb128 0x6
 1490 044d F9030000 		.4byte	.LASF61
 1491 0451 09       		.byte	0x9
 1492 0452 60       		.byte	0x60
 1493 0453 D5000000 		.4byte	0xd5
 1494 0457 02       		.byte	0x2
 1495 0458 23       		.byte	0x23
 1496 0459 08       		.uleb128 0x8
 1497 045a 06       		.uleb128 0x6
 1498 045b 0B030000 		.4byte	.LASF62
 1499 045f 09       		.byte	0x9
 1500 0460 62       		.byte	0x62
 1501 0461 3A030000 		.4byte	0x33a
 1502 0465 02       		.byte	0x2
 1503 0466 23       		.byte	0x23
 1504 0467 0C       		.uleb128 0xc
 1505 0468 06       		.uleb128 0x6
 1506 0469 4E010000 		.4byte	.LASF63
 1507 046d 09       		.byte	0x9
 1508 046e 65       		.byte	0x65
 1509 046f 6C020000 		.4byte	0x26c
 1510 0473 02       		.byte	0x2
 1511 0474 23       		.byte	0x23
ARM GAS  /tmp/ccr5FXCl.s 			page 28


 1512 0475 10       		.uleb128 0x10
 1513 0476 06       		.uleb128 0x6
 1514 0477 51030000 		.4byte	.LASF64
 1515 047b 09       		.byte	0x9
 1516 047c 66       		.byte	0x66
 1517 047d 6C020000 		.4byte	0x26c
 1518 0481 02       		.byte	0x2
 1519 0482 23       		.byte	0x23
 1520 0483 14       		.uleb128 0x14
 1521 0484 06       		.uleb128 0x6
 1522 0485 47030000 		.4byte	.LASF65
 1523 0489 09       		.byte	0x9
 1524 048a 69       		.byte	0x69
 1525 048b 6C020000 		.4byte	0x26c
 1526 048f 02       		.byte	0x2
 1527 0490 23       		.byte	0x23
 1528 0491 18       		.uleb128 0x18
 1529 0492 00       		.byte	0
 1530 0493 03       		.uleb128 0x3
 1531 0494 C7040000 		.4byte	.LASF66
 1532 0498 09       		.byte	0x9
 1533 0499 6B       		.byte	0x6b
 1534 049a 36040000 		.4byte	0x436
 1535 049e 05       		.uleb128 0x5
 1536 049f 5F020000 		.4byte	.LASF67
 1537 04a3 10       		.byte	0x10
 1538 04a4 0A       		.byte	0xa
 1539 04a5 2C       		.byte	0x2c
 1540 04a6 D5040000 		.4byte	0x4d5
 1541 04aa 06       		.uleb128 0x6
 1542 04ab CE000000 		.4byte	.LASF68
 1543 04af 0A       		.byte	0xa
 1544 04b0 2D       		.byte	0x2d
 1545 04b1 72020000 		.4byte	0x272
 1546 04b5 02       		.byte	0x2
 1547 04b6 23       		.byte	0x23
 1548 04b7 00       		.uleb128 0
 1549 04b8 06       		.uleb128 0x6
 1550 04b9 58050000 		.4byte	.LASF69
 1551 04bd 0A       		.byte	0xa
 1552 04be 2F       		.byte	0x2f
 1553 04bf 6C020000 		.4byte	0x26c
 1554 04c3 02       		.byte	0x2
 1555 04c4 23       		.byte	0x23
 1556 04c5 08       		.uleb128 0x8
 1557 04c6 06       		.uleb128 0x6
 1558 04c7 64040000 		.4byte	.LASF70
 1559 04cb 0A       		.byte	0xa
 1560 04cc 31       		.byte	0x31
 1561 04cd D5040000 		.4byte	0x4d5
 1562 04d1 02       		.byte	0x2
 1563 04d2 23       		.byte	0x23
 1564 04d3 0C       		.uleb128 0xc
 1565 04d4 00       		.byte	0
 1566 04d5 09       		.uleb128 0x9
 1567 04d6 04       		.byte	0x4
 1568 04d7 9E040000 		.4byte	0x49e
ARM GAS  /tmp/ccr5FXCl.s 			page 29


 1569 04db 03       		.uleb128 0x3
 1570 04dc 5F020000 		.4byte	.LASF67
 1571 04e0 0A       		.byte	0xa
 1572 04e1 33       		.byte	0x33
 1573 04e2 9E040000 		.4byte	0x49e
 1574 04e6 03       		.uleb128 0x3
 1575 04e7 01050000 		.4byte	.LASF71
 1576 04eb 0B       		.byte	0xb
 1577 04ec 2C       		.byte	0x2c
 1578 04ed F1040000 		.4byte	0x4f1
 1579 04f1 05       		.uleb128 0x5
 1580 04f2 01050000 		.4byte	.LASF71
 1581 04f6 10       		.byte	0x10
 1582 04f7 0B       		.byte	0xb
 1583 04f8 31       		.byte	0x31
 1584 04f9 36050000 		.4byte	0x536
 1585 04fd 06       		.uleb128 0x6
 1586 04fe 27020000 		.4byte	.LASF72
 1587 0502 0B       		.byte	0xb
 1588 0503 32       		.byte	0x32
 1589 0504 36050000 		.4byte	0x536
 1590 0508 02       		.byte	0x2
 1591 0509 23       		.byte	0x23
 1592 050a 00       		.uleb128 0
 1593 050b 06       		.uleb128 0x6
 1594 050c A9030000 		.4byte	.LASF73
 1595 0510 0B       		.byte	0xb
 1596 0511 35       		.byte	0x35
 1597 0512 6C020000 		.4byte	0x26c
 1598 0516 02       		.byte	0x2
 1599 0517 23       		.byte	0x23
 1600 0518 04       		.uleb128 0x4
 1601 0519 06       		.uleb128 0x6
 1602 051a 59030000 		.4byte	.LASF74
 1603 051e 0B       		.byte	0xb
 1604 051f 37       		.byte	0x37
 1605 0520 F6000000 		.4byte	0xf6
 1606 0524 02       		.byte	0x2
 1607 0525 23       		.byte	0x23
 1608 0526 08       		.uleb128 0x8
 1609 0527 06       		.uleb128 0x6
 1610 0528 C2030000 		.4byte	.LASF75
 1611 052c 0B       		.byte	0xb
 1612 052d 3A       		.byte	0x3a
 1613 052e 01010000 		.4byte	0x101
 1614 0532 02       		.byte	0x2
 1615 0533 23       		.byte	0x23
 1616 0534 0C       		.uleb128 0xc
 1617 0535 00       		.byte	0
 1618 0536 09       		.uleb128 0x9
 1619 0537 04       		.byte	0x4
 1620 0538 E6040000 		.4byte	0x4e6
 1621 053c 05       		.uleb128 0x5
 1622 053d 85010000 		.4byte	.LASF76
 1623 0541 04       		.byte	0x4
 1624 0542 0B       		.byte	0xb
 1625 0543 41       		.byte	0x41
ARM GAS  /tmp/ccr5FXCl.s 			page 30


 1626 0544 57050000 		.4byte	0x557
 1627 0548 06       		.uleb128 0x6
 1628 0549 49050000 		.4byte	.LASF77
 1629 054d 0B       		.byte	0xb
 1630 054e 42       		.byte	0x42
 1631 054f 36050000 		.4byte	0x536
 1632 0553 02       		.byte	0x2
 1633 0554 23       		.byte	0x23
 1634 0555 00       		.uleb128 0
 1635 0556 00       		.byte	0
 1636 0557 03       		.uleb128 0x3
 1637 0558 85010000 		.4byte	.LASF76
 1638 055c 0B       		.byte	0xb
 1639 055d 45       		.byte	0x45
 1640 055e 3C050000 		.4byte	0x53c
 1641 0562 03       		.uleb128 0x3
 1642 0563 91010000 		.4byte	.LASF78
 1643 0567 0B       		.byte	0xb
 1644 0568 4A       		.byte	0x4a
 1645 0569 6D050000 		.4byte	0x56d
 1646 056d 09       		.uleb128 0x9
 1647 056e 04       		.byte	0x4
 1648 056f 73050000 		.4byte	0x573
 1649 0573 0D       		.uleb128 0xd
 1650 0574 01       		.byte	0x1
 1651 0575 7F050000 		.4byte	0x57f
 1652 0579 0E       		.uleb128 0xe
 1653 057a EB000000 		.4byte	0xeb
 1654 057e 00       		.byte	0
 1655 057f 10       		.uleb128 0x10
 1656 0580 04       		.byte	0x4
 1657 0581 06       		.byte	0x6
 1658 0582 96       		.byte	0x96
 1659 0583 B4050000 		.4byte	0x5b4
 1660 0587 11       		.uleb128 0x11
 1661 0588 20000000 		.4byte	.LASF79
 1662 058c 06       		.byte	0x6
 1663 058d 9D       		.byte	0x9d
 1664 058e E0000000 		.4byte	0xe0
 1665 0592 11       		.uleb128 0x11
 1666 0593 60000000 		.4byte	.LASF80
 1667 0597 06       		.byte	0x6
 1668 0598 A4       		.byte	0xa4
 1669 0599 E0000000 		.4byte	0xe0
 1670 059d 11       		.uleb128 0x11
 1671 059e 23050000 		.4byte	.LASF81
 1672 05a2 06       		.byte	0x6
 1673 05a3 AB       		.byte	0xab
 1674 05a4 AA020000 		.4byte	0x2aa
 1675 05a8 11       		.uleb128 0x11
 1676 05a9 00040000 		.4byte	.LASF82
 1677 05ad 06       		.byte	0x6
 1678 05ae B2       		.byte	0xb2
 1679 05af F6000000 		.4byte	0xf6
 1680 05b3 00       		.byte	0
 1681 05b4 09       		.uleb128 0x9
 1682 05b5 04       		.byte	0x4
ARM GAS  /tmp/ccr5FXCl.s 			page 31


 1683 05b6 BA050000 		.4byte	0x5ba
 1684 05ba 12       		.uleb128 0x12
 1685 05bb BF050000 		.4byte	0x5bf
 1686 05bf 04       		.uleb128 0x4
 1687 05c0 01       		.byte	0x1
 1688 05c1 08       		.byte	0x8
 1689 05c2 5F040000 		.4byte	.LASF83
 1690 05c6 09       		.uleb128 0x9
 1691 05c7 04       		.byte	0x4
 1692 05c8 DB040000 		.4byte	0x4db
 1693 05cc 03       		.uleb128 0x3
 1694 05cd 00000000 		.4byte	.LASF84
 1695 05d1 06       		.byte	0x6
 1696 05d2 E5       		.byte	0xe5
 1697 05d3 D7050000 		.4byte	0x5d7
 1698 05d7 09       		.uleb128 0x9
 1699 05d8 04       		.byte	0x4
 1700 05d9 DD050000 		.4byte	0x5dd
 1701 05dd 13       		.uleb128 0x13
 1702 05de 01       		.byte	0x1
 1703 05df E0000000 		.4byte	0xe0
 1704 05e3 ED050000 		.4byte	0x5ed
 1705 05e7 0E       		.uleb128 0xe
 1706 05e8 AA020000 		.4byte	0x2aa
 1707 05ec 00       		.byte	0
 1708 05ed 05       		.uleb128 0x5
 1709 05ee 1D040000 		.4byte	.LASF85
 1710 05f2 10       		.byte	0x10
 1711 05f3 0C       		.byte	0xc
 1712 05f4 3B       		.byte	0x3b
 1713 05f5 32060000 		.4byte	0x632
 1714 05f9 06       		.uleb128 0x6
 1715 05fa EF010000 		.4byte	.LASF86
 1716 05fe 0C       		.byte	0xc
 1717 05ff 3C       		.byte	0x3c
 1718 0600 B4050000 		.4byte	0x5b4
 1719 0604 02       		.byte	0x2
 1720 0605 23       		.byte	0x23
 1721 0606 00       		.uleb128 0
 1722 0607 06       		.uleb128 0x6
 1723 0608 1E030000 		.4byte	.LASF87
 1724 060c 0C       		.byte	0xc
 1725 060d 3D       		.byte	0x3d
 1726 060e 34060000 		.4byte	0x634
 1727 0612 02       		.byte	0x2
 1728 0613 23       		.byte	0x23
 1729 0614 04       		.uleb128 0x4
 1730 0615 06       		.uleb128 0x6
 1731 0616 DB010000 		.4byte	.LASF88
 1732 061a 0C       		.byte	0xc
 1733 061b 3E       		.byte	0x3e
 1734 061c 34060000 		.4byte	0x634
 1735 0620 02       		.byte	0x2
 1736 0621 23       		.byte	0x23
 1737 0622 08       		.uleb128 0x8
 1738 0623 06       		.uleb128 0x6
 1739 0624 70030000 		.4byte	.LASF89
ARM GAS  /tmp/ccr5FXCl.s 			page 32


 1740 0628 0C       		.byte	0xc
 1741 0629 3F       		.byte	0x3f
 1742 062a 34060000 		.4byte	0x634
 1743 062e 02       		.byte	0x2
 1744 062f 23       		.byte	0x23
 1745 0630 0C       		.uleb128 0xc
 1746 0631 00       		.byte	0
 1747 0632 14       		.uleb128 0x14
 1748 0633 01       		.byte	0x1
 1749 0634 09       		.uleb128 0x9
 1750 0635 04       		.byte	0x4
 1751 0636 32060000 		.4byte	0x632
 1752 063a 15       		.uleb128 0x15
 1753 063b B5030000 		.4byte	.LASF127
 1754 063f 01       		.byte	0x1
 1755 0640 FC       		.byte	0xfc
 1756 0641 01       		.byte	0x1
 1757 0642 01       		.byte	0x1
 1758 0643 51060000 		.4byte	0x651
 1759 0647 16       		.uleb128 0x16
 1760 0648 6D00     		.ascii	"m\000"
 1761 064a 01       		.byte	0x1
 1762 064b FD       		.byte	0xfd
 1763 064c F6000000 		.4byte	0xf6
 1764 0650 00       		.byte	0
 1765 0651 17       		.uleb128 0x17
 1766 0652 D6020000 		.4byte	.LASF90
 1767 0656 01       		.byte	0x1
 1768 0657 F7       		.byte	0xf7
 1769 0658 01       		.byte	0x1
 1770 0659 00000000 		.4byte	.LFB16
 1771 065d 08000000 		.4byte	.LFE16
 1772 0661 02       		.byte	0x2
 1773 0662 7D       		.byte	0x7d
 1774 0663 00       		.sleb128 0
 1775 0664 01       		.byte	0x1
 1776 0665 7B060000 		.4byte	0x67b
 1777 0669 18       		.uleb128 0x18
 1778 066a 08000000 		.4byte	.LVL0
 1779 066e 01       		.byte	0x1
 1780 066f 490F0000 		.4byte	0xf49
 1781 0673 19       		.uleb128 0x19
 1782 0674 01       		.byte	0x1
 1783 0675 50       		.byte	0x50
 1784 0676 02       		.byte	0x2
 1785 0677 09       		.byte	0x9
 1786 0678 FF       		.byte	0xff
 1787 0679 00       		.byte	0
 1788 067a 00       		.byte	0
 1789 067b 17       		.uleb128 0x17
 1790 067c 08000000 		.4byte	.LASF91
 1791 0680 01       		.byte	0x1
 1792 0681 80       		.byte	0x80
 1793 0682 01       		.byte	0x1
 1794 0683 00000000 		.4byte	.LFB12
 1795 0687 08000000 		.4byte	.LFE12
 1796 068b 02       		.byte	0x2
ARM GAS  /tmp/ccr5FXCl.s 			page 33


 1797 068c 7D       		.byte	0x7d
 1798 068d 00       		.sleb128 0
 1799 068e 01       		.byte	0x1
 1800 068f A5060000 		.4byte	0x6a5
 1801 0693 18       		.uleb128 0x18
 1802 0694 08000000 		.4byte	.LVL1
 1803 0698 01       		.byte	0x1
 1804 0699 490F0000 		.4byte	0xf49
 1805 069d 19       		.uleb128 0x19
 1806 069e 01       		.byte	0x1
 1807 069f 50       		.byte	0x50
 1808 06a0 02       		.byte	0x2
 1809 06a1 09       		.byte	0x9
 1810 06a2 FF       		.byte	0xff
 1811 06a3 00       		.byte	0
 1812 06a4 00       		.byte	0
 1813 06a5 17       		.uleb128 0x17
 1814 06a6 AC020000 		.4byte	.LASF92
 1815 06aa 01       		.byte	0x1
 1816 06ab 4B       		.byte	0x4b
 1817 06ac 01       		.byte	0x1
 1818 06ad 00000000 		.4byte	.LFB7
 1819 06b1 08000000 		.4byte	.LFE7
 1820 06b5 02       		.byte	0x2
 1821 06b6 7D       		.byte	0x7d
 1822 06b7 00       		.sleb128 0
 1823 06b8 01       		.byte	0x1
 1824 06b9 CF060000 		.4byte	0x6cf
 1825 06bd 18       		.uleb128 0x18
 1826 06be 08000000 		.4byte	.LVL2
 1827 06c2 01       		.byte	0x1
 1828 06c3 490F0000 		.4byte	0xf49
 1829 06c7 19       		.uleb128 0x19
 1830 06c8 01       		.byte	0x1
 1831 06c9 50       		.byte	0x50
 1832 06ca 02       		.byte	0x2
 1833 06cb 09       		.byte	0x9
 1834 06cc FF       		.byte	0xff
 1835 06cd 00       		.byte	0
 1836 06ce 00       		.byte	0
 1837 06cf 1A       		.uleb128 0x1a
 1838 06d0 84000000 		.4byte	.LASF93
 1839 06d4 01       		.byte	0x1
 1840 06d5 95       		.byte	0x95
 1841 06d6 01       		.byte	0x1
 1842 06d7 00000000 		.4byte	.LFB15
 1843 06db 54020000 		.4byte	.LFE15
 1844 06df 00000000 		.4byte	.LLST0
 1845 06e3 01       		.byte	0x1
 1846 06e4 890A0000 		.4byte	0xa89
 1847 06e8 1B       		.uleb128 0x1b
 1848 06e9 6D00     		.ascii	"m\000"
 1849 06eb 01       		.byte	0x1
 1850 06ec 96       		.byte	0x96
 1851 06ed F6000000 		.4byte	0xf6
 1852 06f1 2D000000 		.4byte	.LLST1
 1853 06f5 1C       		.uleb128 0x1c
ARM GAS  /tmp/ccr5FXCl.s 			page 34


 1854 06f6 656C3100 		.ascii	"el1\000"
 1855 06fa 01       		.byte	0x1
 1856 06fb 97       		.byte	0x97
 1857 06fc E6040000 		.4byte	0x4e6
 1858 0700 02       		.byte	0x2
 1859 0701 91       		.byte	0x91
 1860 0702 48       		.sleb128 -56
 1861 0703 1C       		.uleb128 0x1c
 1862 0704 656C3200 		.ascii	"el2\000"
 1863 0708 01       		.byte	0x1
 1864 0709 97       		.byte	0x97
 1865 070a E6040000 		.4byte	0x4e6
 1866 070e 02       		.byte	0x2
 1867 070f 91       		.byte	0x91
 1868 0710 58       		.sleb128 -40
 1869 0711 1D       		.uleb128 0x1d
 1870 0712 F9000000 		.4byte	.LASF94
 1871 0716 01       		.byte	0x1
 1872 0717 98       		.byte	0x98
 1873 0718 0C010000 		.4byte	0x10c
 1874 071c E0000000 		.4byte	.LLST2
 1875 0720 1E       		.uleb128 0x1e
 1876 0721 0C000000 		.4byte	.LVL3
 1877 0725 610F0000 		.4byte	0xf61
 1878 0729 33070000 		.4byte	0x733
 1879 072d 19       		.uleb128 0x19
 1880 072e 01       		.byte	0x1
 1881 072f 50       		.byte	0x50
 1882 0730 01       		.byte	0x1
 1883 0731 35       		.byte	0x35
 1884 0732 00       		.byte	0
 1885 0733 1E       		.uleb128 0x1e
 1886 0734 14000000 		.4byte	.LVL4
 1887 0738 790F0000 		.4byte	0xf79
 1888 073c 47070000 		.4byte	0x747
 1889 0740 19       		.uleb128 0x19
 1890 0741 01       		.byte	0x1
 1891 0742 50       		.byte	0x50
 1892 0743 02       		.byte	0x2
 1893 0744 09       		.byte	0x9
 1894 0745 FF       		.byte	0xff
 1895 0746 00       		.byte	0
 1896 0747 1E       		.uleb128 0x1e
 1897 0748 20000000 		.4byte	.LVL6
 1898 074c 910F0000 		.4byte	0xf91
 1899 0750 5A070000 		.4byte	0x75a
 1900 0754 19       		.uleb128 0x19
 1901 0755 01       		.byte	0x1
 1902 0756 50       		.byte	0x50
 1903 0757 01       		.byte	0x1
 1904 0758 31       		.byte	0x31
 1905 0759 00       		.byte	0
 1906 075a 1E       		.uleb128 0x1e
 1907 075b 30000000 		.4byte	.LVL7
 1908 075f 790F0000 		.4byte	0xf79
 1909 0763 6E070000 		.4byte	0x76e
 1910 0767 19       		.uleb128 0x19
ARM GAS  /tmp/ccr5FXCl.s 			page 35


 1911 0768 01       		.byte	0x1
 1912 0769 50       		.byte	0x50
 1913 076a 02       		.byte	0x2
 1914 076b 09       		.byte	0x9
 1915 076c FF       		.byte	0xff
 1916 076d 00       		.byte	0
 1917 076e 1E       		.uleb128 0x1e
 1918 076f 3C000000 		.4byte	.LVL9
 1919 0773 910F0000 		.4byte	0xf91
 1920 0777 81070000 		.4byte	0x781
 1921 077b 19       		.uleb128 0x19
 1922 077c 01       		.byte	0x1
 1923 077d 50       		.byte	0x50
 1924 077e 01       		.byte	0x1
 1925 077f 32       		.byte	0x32
 1926 0780 00       		.byte	0
 1927 0781 1E       		.uleb128 0x1e
 1928 0782 48000000 		.4byte	.LVL10
 1929 0786 490F0000 		.4byte	0xf49
 1930 078a 95070000 		.4byte	0x795
 1931 078e 19       		.uleb128 0x19
 1932 078f 01       		.byte	0x1
 1933 0790 50       		.byte	0x50
 1934 0791 02       		.byte	0x2
 1935 0792 09       		.byte	0x9
 1936 0793 FF       		.byte	0xff
 1937 0794 00       		.byte	0
 1938 0795 1E       		.uleb128 0x1e
 1939 0796 56000000 		.4byte	.LVL12
 1940 079a 910F0000 		.4byte	0xf91
 1941 079e A8070000 		.4byte	0x7a8
 1942 07a2 19       		.uleb128 0x19
 1943 07a3 01       		.byte	0x1
 1944 07a4 50       		.byte	0x50
 1945 07a5 01       		.byte	0x1
 1946 07a6 33       		.byte	0x33
 1947 07a7 00       		.byte	0
 1948 07a8 1F       		.uleb128 0x1f
 1949 07a9 64000000 		.4byte	.LVL13
 1950 07ad AE0F0000 		.4byte	0xfae
 1951 07b1 1E       		.uleb128 0x1e
 1952 07b2 80000000 		.4byte	.LVL15
 1953 07b6 BC0F0000 		.4byte	0xfbc
 1954 07ba CF070000 		.4byte	0x7cf
 1955 07be 19       		.uleb128 0x19
 1956 07bf 01       		.byte	0x1
 1957 07c0 53       		.byte	0x53
 1958 07c1 05       		.byte	0x5
 1959 07c2 03       		.byte	0x3
 1960 07c3 00000000 		.4byte	thread1
 1961 07c7 19       		.uleb128 0x19
 1962 07c8 01       		.byte	0x1
 1963 07c9 51       		.byte	0x51
 1964 07ca 03       		.byte	0x3
 1965 07cb 0A       		.byte	0xa
 1966 07cc 3001     		.2byte	0x130
 1967 07ce 00       		.byte	0
ARM GAS  /tmp/ccr5FXCl.s 			page 36


 1968 07cf 1E       		.uleb128 0x1e
 1969 07d0 8A000000 		.4byte	.LVL16
 1970 07d4 790F0000 		.4byte	0xf79
 1971 07d8 E3070000 		.4byte	0x7e3
 1972 07dc 19       		.uleb128 0x19
 1973 07dd 01       		.byte	0x1
 1974 07de 50       		.byte	0x50
 1975 07df 02       		.byte	0x2
 1976 07e0 09       		.byte	0x9
 1977 07e1 FF       		.byte	0xff
 1978 07e2 00       		.byte	0
 1979 07e3 1E       		.uleb128 0x1e
 1980 07e4 9A000000 		.4byte	.LVL20
 1981 07e8 E90F0000 		.4byte	0xfe9
 1982 07ec 02080000 		.4byte	0x802
 1983 07f0 19       		.uleb128 0x19
 1984 07f1 01       		.byte	0x1
 1985 07f2 52       		.byte	0x52
 1986 07f3 02       		.byte	0x2
 1987 07f4 74       		.byte	0x74
 1988 07f5 37       		.sleb128 55
 1989 07f6 19       		.uleb128 0x19
 1990 07f7 01       		.byte	0x1
 1991 07f8 51       		.byte	0x51
 1992 07f9 02       		.byte	0x2
 1993 07fa 74       		.byte	0x74
 1994 07fb 32       		.sleb128 50
 1995 07fc 19       		.uleb128 0x19
 1996 07fd 01       		.byte	0x1
 1997 07fe 50       		.byte	0x50
 1998 07ff 01       		.byte	0x1
 1999 0800 34       		.byte	0x34
 2000 0801 00       		.byte	0
 2001 0802 1E       		.uleb128 0x1e
 2002 0803 B0000000 		.4byte	.LVL21
 2003 0807 910F0000 		.4byte	0xf91
 2004 080b 1D080000 		.4byte	0x81d
 2005 080f 19       		.uleb128 0x19
 2006 0810 01       		.byte	0x1
 2007 0811 51       		.byte	0x51
 2008 0812 04       		.byte	0x4
 2009 0813 79       		.byte	0x79
 2010 0814 00       		.sleb128 0
 2011 0815 31       		.byte	0x31
 2012 0816 29       		.byte	0x29
 2013 0817 19       		.uleb128 0x19
 2014 0818 01       		.byte	0x1
 2015 0819 50       		.byte	0x50
 2016 081a 01       		.byte	0x1
 2017 081b 35       		.byte	0x35
 2018 081c 00       		.byte	0
 2019 081d 1E       		.uleb128 0x1e
 2020 081e BC000000 		.4byte	.LVL22
 2021 0822 490F0000 		.4byte	0xf49
 2022 0826 31080000 		.4byte	0x831
 2023 082a 19       		.uleb128 0x19
 2024 082b 01       		.byte	0x1
ARM GAS  /tmp/ccr5FXCl.s 			page 37


 2025 082c 50       		.byte	0x50
 2026 082d 02       		.byte	0x2
 2027 082e 09       		.byte	0x9
 2028 082f FF       		.byte	0xff
 2029 0830 00       		.byte	0
 2030 0831 1E       		.uleb128 0x1e
 2031 0832 CA000000 		.4byte	.LVL24
 2032 0836 910F0000 		.4byte	0xf91
 2033 083a 44080000 		.4byte	0x844
 2034 083e 19       		.uleb128 0x19
 2035 083f 01       		.byte	0x1
 2036 0840 50       		.byte	0x50
 2037 0841 01       		.byte	0x1
 2038 0842 36       		.byte	0x36
 2039 0843 00       		.byte	0
 2040 0844 1F       		.uleb128 0x1f
 2041 0845 D2000000 		.4byte	.LVL25
 2042 0849 0B100000 		.4byte	0x100b
 2043 084d 1E       		.uleb128 0x1e
 2044 084e D8000000 		.4byte	.LVL26
 2045 0852 610F0000 		.4byte	0xf61
 2046 0856 60080000 		.4byte	0x860
 2047 085a 19       		.uleb128 0x19
 2048 085b 01       		.byte	0x1
 2049 085c 50       		.byte	0x50
 2050 085d 01       		.byte	0x1
 2051 085e 35       		.byte	0x35
 2052 085f 00       		.byte	0
 2053 0860 1E       		.uleb128 0x1e
 2054 0861 E0000000 		.4byte	.LVL27
 2055 0865 15100000 		.4byte	0x1015
 2056 0869 74080000 		.4byte	0x874
 2057 086d 19       		.uleb128 0x19
 2058 086e 01       		.byte	0x1
 2059 086f 50       		.byte	0x50
 2060 0870 02       		.byte	0x2
 2061 0871 09       		.byte	0x9
 2062 0872 FF       		.byte	0xff
 2063 0873 00       		.byte	0
 2064 0874 1E       		.uleb128 0x1e
 2065 0875 F2000000 		.4byte	.LVL29
 2066 0879 910F0000 		.4byte	0xf91
 2067 087d 87080000 		.4byte	0x887
 2068 0881 19       		.uleb128 0x19
 2069 0882 01       		.byte	0x1
 2070 0883 50       		.byte	0x50
 2071 0884 01       		.byte	0x1
 2072 0885 37       		.byte	0x37
 2073 0886 00       		.byte	0
 2074 0887 1E       		.uleb128 0x1e
 2075 0888 FE000000 		.4byte	.LVL30
 2076 088c 490F0000 		.4byte	0xf49
 2077 0890 9B080000 		.4byte	0x89b
 2078 0894 19       		.uleb128 0x19
 2079 0895 01       		.byte	0x1
 2080 0896 50       		.byte	0x50
 2081 0897 02       		.byte	0x2
ARM GAS  /tmp/ccr5FXCl.s 			page 38


 2082 0898 09       		.byte	0x9
 2083 0899 FF       		.byte	0xff
 2084 089a 00       		.byte	0
 2085 089b 1E       		.uleb128 0x1e
 2086 089c 0C010000 		.4byte	.LVL32
 2087 08a0 910F0000 		.4byte	0xf91
 2088 08a4 AE080000 		.4byte	0x8ae
 2089 08a8 19       		.uleb128 0x19
 2090 08a9 01       		.byte	0x1
 2091 08aa 50       		.byte	0x50
 2092 08ab 01       		.byte	0x1
 2093 08ac 38       		.byte	0x38
 2094 08ad 00       		.byte	0
 2095 08ae 1F       		.uleb128 0x1f
 2096 08af 14010000 		.4byte	.LVL33
 2097 08b3 AE0F0000 		.4byte	0xfae
 2098 08b7 1E       		.uleb128 0x1e
 2099 08b8 2A010000 		.4byte	.LVL35
 2100 08bc BC0F0000 		.4byte	0xfbc
 2101 08c0 DC080000 		.4byte	0x8dc
 2102 08c4 19       		.uleb128 0x19
 2103 08c5 01       		.byte	0x1
 2104 08c6 53       		.byte	0x53
 2105 08c7 05       		.byte	0x5
 2106 08c8 03       		.byte	0x3
 2107 08c9 00000000 		.4byte	thread1
 2108 08cd 19       		.uleb128 0x19
 2109 08ce 01       		.byte	0x1
 2110 08cf 51       		.byte	0x51
 2111 08d0 03       		.byte	0x3
 2112 08d1 0A       		.byte	0xa
 2113 08d2 3001     		.2byte	0x130
 2114 08d4 19       		.uleb128 0x19
 2115 08d5 01       		.byte	0x1
 2116 08d6 50       		.byte	0x50
 2117 08d7 03       		.byte	0x3
 2118 08d8 91       		.byte	0x91
 2119 08d9 44       		.sleb128 -60
 2120 08da 06       		.byte	0x6
 2121 08db 00       		.byte	0
 2122 08dc 1E       		.uleb128 0x1e
 2123 08dd 34010000 		.4byte	.LVL36
 2124 08e1 15100000 		.4byte	0x1015
 2125 08e5 F0080000 		.4byte	0x8f0
 2126 08e9 19       		.uleb128 0x19
 2127 08ea 01       		.byte	0x1
 2128 08eb 50       		.byte	0x50
 2129 08ec 02       		.byte	0x2
 2130 08ed 09       		.byte	0x9
 2131 08ee FF       		.byte	0xff
 2132 08ef 00       		.byte	0
 2133 08f0 1E       		.uleb128 0x1e
 2134 08f1 44010000 		.4byte	.LVL40
 2135 08f5 E90F0000 		.4byte	0xfe9
 2136 08f9 0F090000 		.4byte	0x90f
 2137 08fd 19       		.uleb128 0x19
 2138 08fe 01       		.byte	0x1
ARM GAS  /tmp/ccr5FXCl.s 			page 39


 2139 08ff 52       		.byte	0x52
 2140 0900 02       		.byte	0x2
 2141 0901 74       		.byte	0x74
 2142 0902 37       		.sleb128 55
 2143 0903 19       		.uleb128 0x19
 2144 0904 01       		.byte	0x1
 2145 0905 51       		.byte	0x51
 2146 0906 02       		.byte	0x2
 2147 0907 74       		.byte	0x74
 2148 0908 32       		.sleb128 50
 2149 0909 19       		.uleb128 0x19
 2150 090a 01       		.byte	0x1
 2151 090b 50       		.byte	0x50
 2152 090c 01       		.byte	0x1
 2153 090d 39       		.byte	0x39
 2154 090e 00       		.byte	0
 2155 090f 1E       		.uleb128 0x1e
 2156 0910 58010000 		.4byte	.LVL41
 2157 0914 910F0000 		.4byte	0xf91
 2158 0918 2A090000 		.4byte	0x92a
 2159 091c 19       		.uleb128 0x19
 2160 091d 01       		.byte	0x1
 2161 091e 51       		.byte	0x51
 2162 091f 04       		.byte	0x4
 2163 0920 79       		.byte	0x79
 2164 0921 00       		.sleb128 0
 2165 0922 31       		.byte	0x31
 2166 0923 29       		.byte	0x29
 2167 0924 19       		.uleb128 0x19
 2168 0925 01       		.byte	0x1
 2169 0926 50       		.byte	0x50
 2170 0927 01       		.byte	0x1
 2171 0928 3A       		.byte	0x3a
 2172 0929 00       		.byte	0
 2173 092a 1E       		.uleb128 0x1e
 2174 092b 66010000 		.4byte	.LVL42
 2175 092f 490F0000 		.4byte	0xf49
 2176 0933 3E090000 		.4byte	0x93e
 2177 0937 19       		.uleb128 0x19
 2178 0938 01       		.byte	0x1
 2179 0939 50       		.byte	0x50
 2180 093a 02       		.byte	0x2
 2181 093b 09       		.byte	0x9
 2182 093c FF       		.byte	0xff
 2183 093d 00       		.byte	0
 2184 093e 1E       		.uleb128 0x1e
 2185 093f 74010000 		.4byte	.LVL44
 2186 0943 910F0000 		.4byte	0xf91
 2187 0947 51090000 		.4byte	0x951
 2188 094b 19       		.uleb128 0x19
 2189 094c 01       		.byte	0x1
 2190 094d 50       		.byte	0x50
 2191 094e 01       		.byte	0x1
 2192 094f 3B       		.byte	0x3b
 2193 0950 00       		.byte	0
 2194 0951 1F       		.uleb128 0x1f
 2195 0952 84010000 		.4byte	.LVL46
ARM GAS  /tmp/ccr5FXCl.s 			page 40


 2196 0956 0B100000 		.4byte	0x100b
 2197 095a 1E       		.uleb128 0x1e
 2198 095b 94010000 		.4byte	.LVL47
 2199 095f 2D100000 		.4byte	0x102d
 2200 0963 79090000 		.4byte	0x979
 2201 0967 19       		.uleb128 0x19
 2202 0968 01       		.byte	0x1
 2203 0969 52       		.byte	0x52
 2204 096a 01       		.byte	0x1
 2205 096b 31       		.byte	0x31
 2206 096c 19       		.uleb128 0x19
 2207 096d 01       		.byte	0x1
 2208 096e 51       		.byte	0x51
 2209 096f 02       		.byte	0x2
 2210 0970 91       		.byte	0x91
 2211 0971 48       		.sleb128 -56
 2212 0972 19       		.uleb128 0x19
 2213 0973 01       		.byte	0x1
 2214 0974 50       		.byte	0x50
 2215 0975 02       		.byte	0x2
 2216 0976 79       		.byte	0x79
 2217 0977 00       		.sleb128 0
 2218 0978 00       		.byte	0
 2219 0979 1E       		.uleb128 0x1e
 2220 097a 9E010000 		.4byte	.LVL48
 2221 097e 2D100000 		.4byte	0x102d
 2222 0982 98090000 		.4byte	0x998
 2223 0986 19       		.uleb128 0x19
 2224 0987 01       		.byte	0x1
 2225 0988 52       		.byte	0x52
 2226 0989 01       		.byte	0x1
 2227 098a 34       		.byte	0x34
 2228 098b 19       		.uleb128 0x19
 2229 098c 01       		.byte	0x1
 2230 098d 51       		.byte	0x51
 2231 098e 02       		.byte	0x2
 2232 098f 91       		.byte	0x91
 2233 0990 58       		.sleb128 -40
 2234 0991 19       		.uleb128 0x19
 2235 0992 01       		.byte	0x1
 2236 0993 50       		.byte	0x50
 2237 0994 02       		.byte	0x2
 2238 0995 74       		.byte	0x74
 2239 0996 00       		.sleb128 0
 2240 0997 00       		.byte	0
 2241 0998 1F       		.uleb128 0x1f
 2242 0999 A2010000 		.4byte	.LVL49
 2243 099d AE0F0000 		.4byte	0xfae
 2244 09a1 1E       		.uleb128 0x1e
 2245 09a2 BA010000 		.4byte	.LVL51
 2246 09a6 BC0F0000 		.4byte	0xfbc
 2247 09aa D0090000 		.4byte	0x9d0
 2248 09ae 19       		.uleb128 0x19
 2249 09af 01       		.byte	0x1
 2250 09b0 53       		.byte	0x53
 2251 09b1 05       		.byte	0x5
 2252 09b2 03       		.byte	0x3
ARM GAS  /tmp/ccr5FXCl.s 			page 41


 2253 09b3 00000000 		.4byte	thread2
 2254 09b7 19       		.uleb128 0x19
 2255 09b8 01       		.byte	0x1
 2256 09b9 51       		.byte	0x51
 2257 09ba 03       		.byte	0x3
 2258 09bb 0A       		.byte	0xa
 2259 09bc 3001     		.2byte	0x130
 2260 09be 19       		.uleb128 0x19
 2261 09bf 01       		.byte	0x1
 2262 09c0 50       		.byte	0x50
 2263 09c1 03       		.byte	0x3
 2264 09c2 91       		.byte	0x91
 2265 09c3 44       		.sleb128 -60
 2266 09c4 06       		.byte	0x6
 2267 09c5 19       		.uleb128 0x19
 2268 09c6 02       		.byte	0x2
 2269 09c7 7D       		.byte	0x7d
 2270 09c8 00       		.sleb128 0
 2271 09c9 05       		.byte	0x5
 2272 09ca 03       		.byte	0x3
 2273 09cb 00000000 		.4byte	.LC0
 2274 09cf 00       		.byte	0
 2275 09d0 1E       		.uleb128 0x1e
 2276 09d1 C2010000 		.4byte	.LVL52
 2277 09d5 51100000 		.4byte	0x1051
 2278 09d9 E3090000 		.4byte	0x9e3
 2279 09dd 19       		.uleb128 0x19
 2280 09de 01       		.byte	0x1
 2281 09df 50       		.byte	0x50
 2282 09e0 01       		.byte	0x1
 2283 09e1 35       		.byte	0x35
 2284 09e2 00       		.byte	0
 2285 09e3 1E       		.uleb128 0x1e
 2286 09e4 D0010000 		.4byte	.LVL54
 2287 09e8 E90F0000 		.4byte	0xfe9
 2288 09ec 020A0000 		.4byte	0xa02
 2289 09f0 19       		.uleb128 0x19
 2290 09f1 01       		.byte	0x1
 2291 09f2 52       		.byte	0x52
 2292 09f3 02       		.byte	0x2
 2293 09f4 75       		.byte	0x75
 2294 09f5 37       		.sleb128 55
 2295 09f6 19       		.uleb128 0x19
 2296 09f7 01       		.byte	0x1
 2297 09f8 51       		.byte	0x51
 2298 09f9 02       		.byte	0x2
 2299 09fa 75       		.byte	0x75
 2300 09fb 32       		.sleb128 50
 2301 09fc 19       		.uleb128 0x19
 2302 09fd 01       		.byte	0x1
 2303 09fe 50       		.byte	0x50
 2304 09ff 01       		.byte	0x1
 2305 0a00 3C       		.byte	0x3c
 2306 0a01 00       		.byte	0
 2307 0a02 1E       		.uleb128 0x1e
 2308 0a03 DE010000 		.4byte	.LVL55
 2309 0a07 490F0000 		.4byte	0xf49
ARM GAS  /tmp/ccr5FXCl.s 			page 42


 2310 0a0b 160A0000 		.4byte	0xa16
 2311 0a0f 19       		.uleb128 0x19
 2312 0a10 01       		.byte	0x1
 2313 0a11 50       		.byte	0x50
 2314 0a12 02       		.byte	0x2
 2315 0a13 09       		.byte	0x9
 2316 0a14 FF       		.byte	0xff
 2317 0a15 00       		.byte	0
 2318 0a16 1E       		.uleb128 0x1e
 2319 0a17 EC010000 		.4byte	.LVL57
 2320 0a1b 910F0000 		.4byte	0xf91
 2321 0a1f 290A0000 		.4byte	0xa29
 2322 0a23 19       		.uleb128 0x19
 2323 0a24 01       		.byte	0x1
 2324 0a25 50       		.byte	0x50
 2325 0a26 01       		.byte	0x1
 2326 0a27 3D       		.byte	0x3d
 2327 0a28 00       		.byte	0
 2328 0a29 1F       		.uleb128 0x1f
 2329 0a2a F6010000 		.4byte	.LVL58
 2330 0a2e 0B100000 		.4byte	0x100b
 2331 0a32 1E       		.uleb128 0x1e
 2332 0a33 FE010000 		.4byte	.LVL59
 2333 0a37 69100000 		.4byte	0x1069
 2334 0a3b 4C0A0000 		.4byte	0xa4c
 2335 0a3f 19       		.uleb128 0x19
 2336 0a40 01       		.byte	0x1
 2337 0a41 51       		.byte	0x51
 2338 0a42 02       		.byte	0x2
 2339 0a43 91       		.byte	0x91
 2340 0a44 48       		.sleb128 -56
 2341 0a45 19       		.uleb128 0x19
 2342 0a46 01       		.byte	0x1
 2343 0a47 50       		.byte	0x50
 2344 0a48 02       		.byte	0x2
 2345 0a49 79       		.byte	0x79
 2346 0a4a 00       		.sleb128 0
 2347 0a4b 00       		.byte	0
 2348 0a4c 1E       		.uleb128 0x1e
 2349 0a4d 06020000 		.4byte	.LVL60
 2350 0a51 69100000 		.4byte	0x1069
 2351 0a55 660A0000 		.4byte	0xa66
 2352 0a59 19       		.uleb128 0x19
 2353 0a5a 01       		.byte	0x1
 2354 0a5b 51       		.byte	0x51
 2355 0a5c 02       		.byte	0x2
 2356 0a5d 91       		.byte	0x91
 2357 0a5e 58       		.sleb128 -40
 2358 0a5f 19       		.uleb128 0x19
 2359 0a60 01       		.byte	0x1
 2360 0a61 50       		.byte	0x50
 2361 0a62 02       		.byte	0x2
 2362 0a63 74       		.byte	0x74
 2363 0a64 00       		.sleb128 0
 2364 0a65 00       		.byte	0
 2365 0a66 1E       		.uleb128 0x1e
 2366 0a67 18020000 		.4byte	.LVL61
ARM GAS  /tmp/ccr5FXCl.s 			page 43


 2367 0a6b 910F0000 		.4byte	0xf91
 2368 0a6f 790A0000 		.4byte	0xa79
 2369 0a73 19       		.uleb128 0x19
 2370 0a74 01       		.byte	0x1
 2371 0a75 50       		.byte	0x50
 2372 0a76 01       		.byte	0x1
 2373 0a77 3E       		.byte	0x3e
 2374 0a78 00       		.byte	0
 2375 0a79 20       		.uleb128 0x20
 2376 0a7a 2C020000 		.4byte	.LVL62
 2377 0a7e 910F0000 		.4byte	0xf91
 2378 0a82 19       		.uleb128 0x19
 2379 0a83 01       		.byte	0x1
 2380 0a84 50       		.byte	0x50
 2381 0a85 01       		.byte	0x1
 2382 0a86 3F       		.byte	0x3f
 2383 0a87 00       		.byte	0
 2384 0a88 00       		.byte	0
 2385 0a89 21       		.uleb128 0x21
 2386 0a8a 03030000 		.4byte	.LASF95
 2387 0a8e 01       		.byte	0x1
 2388 0a8f 8C       		.byte	0x8c
 2389 0a90 01       		.byte	0x1
 2390 0a91 E0000000 		.4byte	0xe0
 2391 0a95 00000000 		.4byte	.LFB14
 2392 0a99 28000000 		.4byte	.LFE14
 2393 0a9d 4A010000 		.4byte	.LLST3
 2394 0aa1 01       		.byte	0x1
 2395 0aa2 FC0A0000 		.4byte	0xafc
 2396 0aa6 22       		.uleb128 0x22
 2397 0aa7 7000     		.ascii	"p\000"
 2398 0aa9 01       		.byte	0x1
 2399 0aaa 8C       		.byte	0x8c
 2400 0aab AA020000 		.4byte	0x2aa
 2401 0aaf 6A010000 		.4byte	.LLST4
 2402 0ab3 1E       		.uleb128 0x1e
 2403 0ab4 10000000 		.4byte	.LVL65
 2404 0ab8 82100000 		.4byte	0x1082
 2405 0abc CF0A0000 		.4byte	0xacf
 2406 0ac0 19       		.uleb128 0x19
 2407 0ac1 01       		.byte	0x1
 2408 0ac2 51       		.byte	0x51
 2409 0ac3 01       		.byte	0x1
 2410 0ac4 30       		.byte	0x30
 2411 0ac5 19       		.uleb128 0x19
 2412 0ac6 01       		.byte	0x1
 2413 0ac7 50       		.byte	0x50
 2414 0ac8 05       		.byte	0x5
 2415 0ac9 03       		.byte	0x3
 2416 0aca 00000000 		.4byte	.LANCHOR0
 2417 0ace 00       		.byte	0
 2418 0acf 1E       		.uleb128 0x1e
 2419 0ad0 16000000 		.4byte	.LVL66
 2420 0ad4 9B100000 		.4byte	0x109b
 2421 0ad8 E30A0000 		.4byte	0xae3
 2422 0adc 19       		.uleb128 0x19
 2423 0add 01       		.byte	0x1
ARM GAS  /tmp/ccr5FXCl.s 			page 44


 2424 0ade 50       		.byte	0x50
 2425 0adf 02       		.byte	0x2
 2426 0ae0 08       		.byte	0x8
 2427 0ae1 32       		.byte	0x32
 2428 0ae2 00       		.byte	0
 2429 0ae3 20       		.uleb128 0x20
 2430 0ae4 24000000 		.4byte	.LVL67
 2431 0ae8 82100000 		.4byte	0x1082
 2432 0aec 19       		.uleb128 0x19
 2433 0aed 01       		.byte	0x1
 2434 0aee 51       		.byte	0x51
 2435 0aef 01       		.byte	0x1
 2436 0af0 30       		.byte	0x30
 2437 0af1 19       		.uleb128 0x19
 2438 0af2 01       		.byte	0x1
 2439 0af3 50       		.byte	0x50
 2440 0af4 05       		.byte	0x5
 2441 0af5 03       		.byte	0x3
 2442 0af6 00000000 		.4byte	.LANCHOR1
 2443 0afa 00       		.byte	0
 2444 0afb 00       		.byte	0
 2445 0afc 21       		.uleb128 0x21
 2446 0afd FB020000 		.4byte	.LASF96
 2447 0b01 01       		.byte	0x1
 2448 0b02 85       		.byte	0x85
 2449 0b03 01       		.byte	0x1
 2450 0b04 E0000000 		.4byte	0xe0
 2451 0b08 00000000 		.4byte	.LFB13
 2452 0b0c 16000000 		.4byte	.LFE13
 2453 0b10 8B010000 		.4byte	.LLST5
 2454 0b14 01       		.byte	0x1
 2455 0b15 500B0000 		.4byte	0xb50
 2456 0b19 22       		.uleb128 0x22
 2457 0b1a 7000     		.ascii	"p\000"
 2458 0b1c 01       		.byte	0x1
 2459 0b1d 85       		.byte	0x85
 2460 0b1e AA020000 		.4byte	0x2aa
 2461 0b22 AB010000 		.4byte	.LLST6
 2462 0b26 1E       		.uleb128 0x1e
 2463 0b27 0A000000 		.4byte	.LVL70
 2464 0b2b 9B100000 		.4byte	0x109b
 2465 0b2f 3A0B0000 		.4byte	0xb3a
 2466 0b33 19       		.uleb128 0x19
 2467 0b34 01       		.byte	0x1
 2468 0b35 50       		.byte	0x50
 2469 0b36 02       		.byte	0x2
 2470 0b37 08       		.byte	0x8
 2471 0b38 32       		.byte	0x32
 2472 0b39 00       		.byte	0
 2473 0b3a 20       		.uleb128 0x20
 2474 0b3b 12000000 		.4byte	.LVL71
 2475 0b3f B0100000 		.4byte	0x10b0
 2476 0b43 19       		.uleb128 0x19
 2477 0b44 01       		.byte	0x1
 2478 0b45 51       		.byte	0x51
 2479 0b46 01       		.byte	0x1
 2480 0b47 31       		.byte	0x31
ARM GAS  /tmp/ccr5FXCl.s 			page 45


 2481 0b48 19       		.uleb128 0x19
 2482 0b49 01       		.byte	0x1
 2483 0b4a 50       		.byte	0x50
 2484 0b4b 02       		.byte	0x2
 2485 0b4c 74       		.byte	0x74
 2486 0b4d 00       		.sleb128 0
 2487 0b4e 00       		.byte	0
 2488 0b4f 00       		.byte	0
 2489 0b50 1A       		.uleb128 0x1a
 2490 0b51 6F050000 		.4byte	.LASF97
 2491 0b55 01       		.byte	0x1
 2492 0b56 55       		.byte	0x55
 2493 0b57 01       		.byte	0x1
 2494 0b58 00000000 		.4byte	.LFB11
 2495 0b5c 88000000 		.4byte	.LFE11
 2496 0b60 C9010000 		.4byte	.LLST7
 2497 0b64 01       		.byte	0x1
 2498 0b65 650C0000 		.4byte	0xc65
 2499 0b69 1C       		.uleb128 0x1c
 2500 0b6a 656C3100 		.ascii	"el1\000"
 2501 0b6e 01       		.byte	0x1
 2502 0b6f 56       		.byte	0x56
 2503 0b70 E6040000 		.4byte	0x4e6
 2504 0b74 02       		.byte	0x2
 2505 0b75 91       		.byte	0x91
 2506 0b76 58       		.sleb128 -40
 2507 0b77 1C       		.uleb128 0x1c
 2508 0b78 656C3200 		.ascii	"el2\000"
 2509 0b7c 01       		.byte	0x1
 2510 0b7d 56       		.byte	0x56
 2511 0b7e E6040000 		.4byte	0x4e6
 2512 0b82 02       		.byte	0x2
 2513 0b83 91       		.byte	0x91
 2514 0b84 68       		.sleb128 -24
 2515 0b85 1E       		.uleb128 0x1e
 2516 0b86 12000000 		.4byte	.LVL72
 2517 0b8a 2D100000 		.4byte	0x102d
 2518 0b8e A40B0000 		.4byte	0xba4
 2519 0b92 19       		.uleb128 0x19
 2520 0b93 01       		.byte	0x1
 2521 0b94 52       		.byte	0x52
 2522 0b95 01       		.byte	0x1
 2523 0b96 31       		.byte	0x31
 2524 0b97 19       		.uleb128 0x19
 2525 0b98 01       		.byte	0x1
 2526 0b99 51       		.byte	0x51
 2527 0b9a 02       		.byte	0x2
 2528 0b9b 7D       		.byte	0x7d
 2529 0b9c 00       		.sleb128 0
 2530 0b9d 19       		.uleb128 0x19
 2531 0b9e 01       		.byte	0x1
 2532 0b9f 50       		.byte	0x50
 2533 0ba0 02       		.byte	0x2
 2534 0ba1 74       		.byte	0x74
 2535 0ba2 00       		.sleb128 0
 2536 0ba3 00       		.byte	0
 2537 0ba4 1E       		.uleb128 0x1e
ARM GAS  /tmp/ccr5FXCl.s 			page 46


 2538 0ba5 1C000000 		.4byte	.LVL73
 2539 0ba9 2D100000 		.4byte	0x102d
 2540 0bad C30B0000 		.4byte	0xbc3
 2541 0bb1 19       		.uleb128 0x19
 2542 0bb2 01       		.byte	0x1
 2543 0bb3 52       		.byte	0x52
 2544 0bb4 01       		.byte	0x1
 2545 0bb5 32       		.byte	0x32
 2546 0bb6 19       		.uleb128 0x19
 2547 0bb7 01       		.byte	0x1
 2548 0bb8 51       		.byte	0x51
 2549 0bb9 02       		.byte	0x2
 2550 0bba 91       		.byte	0x91
 2551 0bbb 68       		.sleb128 -24
 2552 0bbc 19       		.uleb128 0x19
 2553 0bbd 01       		.byte	0x1
 2554 0bbe 50       		.byte	0x50
 2555 0bbf 02       		.byte	0x2
 2556 0bc0 74       		.byte	0x74
 2557 0bc1 00       		.sleb128 0
 2558 0bc2 00       		.byte	0
 2559 0bc3 1E       		.uleb128 0x1e
 2560 0bc4 2A000000 		.4byte	.LVL74
 2561 0bc8 910F0000 		.4byte	0xf91
 2562 0bcc D60B0000 		.4byte	0xbd6
 2563 0bd0 19       		.uleb128 0x19
 2564 0bd1 01       		.byte	0x1
 2565 0bd2 50       		.byte	0x50
 2566 0bd3 01       		.byte	0x1
 2567 0bd4 31       		.byte	0x31
 2568 0bd5 00       		.byte	0
 2569 0bd6 1E       		.uleb128 0x1e
 2570 0bd7 38000000 		.4byte	.LVL75
 2571 0bdb 69100000 		.4byte	0x1069
 2572 0bdf F00B0000 		.4byte	0xbf0
 2573 0be3 19       		.uleb128 0x19
 2574 0be4 01       		.byte	0x1
 2575 0be5 51       		.byte	0x51
 2576 0be6 02       		.byte	0x2
 2577 0be7 7D       		.byte	0x7d
 2578 0be8 00       		.sleb128 0
 2579 0be9 19       		.uleb128 0x19
 2580 0bea 01       		.byte	0x1
 2581 0beb 50       		.byte	0x50
 2582 0bec 02       		.byte	0x2
 2583 0bed 74       		.byte	0x74
 2584 0bee 00       		.sleb128 0
 2585 0bef 00       		.byte	0
 2586 0bf0 1E       		.uleb128 0x1e
 2587 0bf1 46000000 		.4byte	.LVL76
 2588 0bf5 910F0000 		.4byte	0xf91
 2589 0bf9 030C0000 		.4byte	0xc03
 2590 0bfd 19       		.uleb128 0x19
 2591 0bfe 01       		.byte	0x1
 2592 0bff 50       		.byte	0x50
 2593 0c00 01       		.byte	0x1
 2594 0c01 32       		.byte	0x32
ARM GAS  /tmp/ccr5FXCl.s 			page 47


 2595 0c02 00       		.byte	0
 2596 0c03 1E       		.uleb128 0x1e
 2597 0c04 52000000 		.4byte	.LVL77
 2598 0c08 69100000 		.4byte	0x1069
 2599 0c0c 1D0C0000 		.4byte	0xc1d
 2600 0c10 19       		.uleb128 0x19
 2601 0c11 01       		.byte	0x1
 2602 0c12 51       		.byte	0x51
 2603 0c13 02       		.byte	0x2
 2604 0c14 91       		.byte	0x91
 2605 0c15 68       		.sleb128 -24
 2606 0c16 19       		.uleb128 0x19
 2607 0c17 01       		.byte	0x1
 2608 0c18 50       		.byte	0x50
 2609 0c19 02       		.byte	0x2
 2610 0c1a 74       		.byte	0x74
 2611 0c1b 00       		.sleb128 0
 2612 0c1c 00       		.byte	0
 2613 0c1d 1E       		.uleb128 0x1e
 2614 0c1e 66000000 		.4byte	.LVL78
 2615 0c22 910F0000 		.4byte	0xf91
 2616 0c26 300C0000 		.4byte	0xc30
 2617 0c2a 19       		.uleb128 0x19
 2618 0c2b 01       		.byte	0x1
 2619 0c2c 50       		.byte	0x50
 2620 0c2d 01       		.byte	0x1
 2621 0c2e 33       		.byte	0x33
 2622 0c2f 00       		.byte	0
 2623 0c30 1E       		.uleb128 0x1e
 2624 0c31 72000000 		.4byte	.LVL79
 2625 0c35 C9100000 		.4byte	0x10c9
 2626 0c39 4C0C0000 		.4byte	0xc4c
 2627 0c3d 19       		.uleb128 0x19
 2628 0c3e 01       		.byte	0x1
 2629 0c3f 51       		.byte	0x51
 2630 0c40 01       		.byte	0x1
 2631 0c41 37       		.byte	0x37
 2632 0c42 19       		.uleb128 0x19
 2633 0c43 01       		.byte	0x1
 2634 0c44 50       		.byte	0x50
 2635 0c45 05       		.byte	0x5
 2636 0c46 03       		.byte	0x3
 2637 0c47 00000000 		.4byte	.LANCHOR2
 2638 0c4b 00       		.byte	0
 2639 0c4c 20       		.uleb128 0x20
 2640 0c4d 7A000000 		.4byte	.LVL80
 2641 0c51 ED100000 		.4byte	0x10ed
 2642 0c55 19       		.uleb128 0x19
 2643 0c56 01       		.byte	0x1
 2644 0c57 51       		.byte	0x51
 2645 0c58 05       		.byte	0x5
 2646 0c59 03       		.byte	0x3
 2647 0c5a 04000000 		.4byte	.LC1
 2648 0c5e 19       		.uleb128 0x19
 2649 0c5f 01       		.byte	0x1
 2650 0c60 50       		.byte	0x50
 2651 0c61 01       		.byte	0x1
ARM GAS  /tmp/ccr5FXCl.s 			page 48


 2652 0c62 34       		.byte	0x34
 2653 0c63 00       		.byte	0
 2654 0c64 00       		.byte	0
 2655 0c65 23       		.uleb128 0x23
 2656 0c66 683300   		.ascii	"h3\000"
 2657 0c69 01       		.byte	0x1
 2658 0c6a 52       		.byte	0x52
 2659 0c6b 01       		.byte	0x1
 2660 0c6c 00000000 		.4byte	.LFB10
 2661 0c70 06000000 		.4byte	.LFE10
 2662 0c74 02       		.byte	0x2
 2663 0c75 7D       		.byte	0x7d
 2664 0c76 00       		.sleb128 0
 2665 0c77 01       		.byte	0x1
 2666 0c78 9C0C0000 		.4byte	0xc9c
 2667 0c7c 22       		.uleb128 0x22
 2668 0c7d 696400   		.ascii	"id\000"
 2669 0c80 01       		.byte	0x1
 2670 0c81 52       		.byte	0x52
 2671 0c82 EB000000 		.4byte	0xeb
 2672 0c86 F5010000 		.4byte	.LLST8
 2673 0c8a 18       		.uleb128 0x18
 2674 0c8b 06000000 		.4byte	.LVL83
 2675 0c8f 01       		.byte	0x1
 2676 0c90 10110000 		.4byte	0x1110
 2677 0c94 19       		.uleb128 0x19
 2678 0c95 01       		.byte	0x1
 2679 0c96 50       		.byte	0x50
 2680 0c97 02       		.byte	0x2
 2681 0c98 08       		.byte	0x8
 2682 0c99 43       		.byte	0x43
 2683 0c9a 00       		.byte	0
 2684 0c9b 00       		.byte	0
 2685 0c9c 23       		.uleb128 0x23
 2686 0c9d 683200   		.ascii	"h2\000"
 2687 0ca0 01       		.byte	0x1
 2688 0ca1 51       		.byte	0x51
 2689 0ca2 01       		.byte	0x1
 2690 0ca3 00000000 		.4byte	.LFB9
 2691 0ca7 06000000 		.4byte	.LFE9
 2692 0cab 02       		.byte	0x2
 2693 0cac 7D       		.byte	0x7d
 2694 0cad 00       		.sleb128 0
 2695 0cae 01       		.byte	0x1
 2696 0caf D30C0000 		.4byte	0xcd3
 2697 0cb3 22       		.uleb128 0x22
 2698 0cb4 696400   		.ascii	"id\000"
 2699 0cb7 01       		.byte	0x1
 2700 0cb8 51       		.byte	0x51
 2701 0cb9 EB000000 		.4byte	0xeb
 2702 0cbd 16020000 		.4byte	.LLST9
 2703 0cc1 18       		.uleb128 0x18
 2704 0cc2 06000000 		.4byte	.LVL86
 2705 0cc6 01       		.byte	0x1
 2706 0cc7 10110000 		.4byte	0x1110
 2707 0ccb 19       		.uleb128 0x19
 2708 0ccc 01       		.byte	0x1
ARM GAS  /tmp/ccr5FXCl.s 			page 49


 2709 0ccd 50       		.byte	0x50
 2710 0cce 02       		.byte	0x2
 2711 0ccf 08       		.byte	0x8
 2712 0cd0 42       		.byte	0x42
 2713 0cd1 00       		.byte	0
 2714 0cd2 00       		.byte	0
 2715 0cd3 23       		.uleb128 0x23
 2716 0cd4 683100   		.ascii	"h1\000"
 2717 0cd7 01       		.byte	0x1
 2718 0cd8 50       		.byte	0x50
 2719 0cd9 01       		.byte	0x1
 2720 0cda 00000000 		.4byte	.LFB8
 2721 0cde 06000000 		.4byte	.LFE8
 2722 0ce2 02       		.byte	0x2
 2723 0ce3 7D       		.byte	0x7d
 2724 0ce4 00       		.sleb128 0
 2725 0ce5 01       		.byte	0x1
 2726 0ce6 0A0D0000 		.4byte	0xd0a
 2727 0cea 22       		.uleb128 0x22
 2728 0ceb 696400   		.ascii	"id\000"
 2729 0cee 01       		.byte	0x1
 2730 0cef 50       		.byte	0x50
 2731 0cf0 EB000000 		.4byte	0xeb
 2732 0cf4 37020000 		.4byte	.LLST10
 2733 0cf8 18       		.uleb128 0x18
 2734 0cf9 06000000 		.4byte	.LVL89
 2735 0cfd 01       		.byte	0x1
 2736 0cfe 10110000 		.4byte	0x1110
 2737 0d02 19       		.uleb128 0x19
 2738 0d03 01       		.byte	0x1
 2739 0d04 50       		.byte	0x50
 2740 0d05 02       		.byte	0x2
 2741 0d06 08       		.byte	0x8
 2742 0d07 41       		.byte	0x41
 2743 0d08 00       		.byte	0
 2744 0d09 00       		.byte	0
 2745 0d0a 24       		.uleb128 0x24
 2746 0d0b 3A060000 		.4byte	0x63a
 2747 0d0f 00000000 		.4byte	.LFB17
 2748 0d13 AA000000 		.4byte	.LFE17
 2749 0d17 58020000 		.4byte	.LLST11
 2750 0d1b 01       		.byte	0x1
 2751 0d1c 440E0000 		.4byte	0xe44
 2752 0d20 25       		.uleb128 0x25
 2753 0d21 47060000 		.4byte	0x647
 2754 0d25 78020000 		.4byte	.LLST12
 2755 0d29 26       		.uleb128 0x26
 2756 0d2a 3A060000 		.4byte	0x63a
 2757 0d2e 56000000 		.4byte	.LBB4
 2758 0d32 00000000 		.4byte	.Ldebug_ranges0+0
 2759 0d36 01       		.byte	0x1
 2760 0d37 FC       		.byte	0xfc
 2761 0d38 CD0D0000 		.4byte	0xdcd
 2762 0d3c 27       		.uleb128 0x27
 2763 0d3d 18000000 		.4byte	.Ldebug_ranges0+0x18
 2764 0d41 25       		.uleb128 0x25
 2765 0d42 47060000 		.4byte	0x647
ARM GAS  /tmp/ccr5FXCl.s 			page 50


 2766 0d46 A1020000 		.4byte	.LLST13
 2767 0d4a 1E       		.uleb128 0x1e
 2768 0d4b 60000000 		.4byte	.LVL99
 2769 0d4f 24110000 		.4byte	0x1124
 2770 0d53 630D0000 		.4byte	0xd63
 2771 0d57 19       		.uleb128 0x19
 2772 0d58 01       		.byte	0x1
 2773 0d59 51       		.byte	0x51
 2774 0d5a 01       		.byte	0x1
 2775 0d5b 3A       		.byte	0x3a
 2776 0d5c 19       		.uleb128 0x19
 2777 0d5d 01       		.byte	0x1
 2778 0d5e 50       		.byte	0x50
 2779 0d5f 02       		.byte	0x2
 2780 0d60 09       		.byte	0x9
 2781 0d61 FF       		.byte	0xff
 2782 0d62 00       		.byte	0
 2783 0d63 1E       		.uleb128 0x1e
 2784 0d64 6E000000 		.4byte	.LVL101
 2785 0d68 910F0000 		.4byte	0xf91
 2786 0d6c 760D0000 		.4byte	0xd76
 2787 0d70 19       		.uleb128 0x19
 2788 0d71 01       		.byte	0x1
 2789 0d72 50       		.byte	0x50
 2790 0d73 01       		.byte	0x1
 2791 0d74 34       		.byte	0x34
 2792 0d75 00       		.byte	0
 2793 0d76 1E       		.uleb128 0x1e
 2794 0d77 7C000000 		.4byte	.LVL102
 2795 0d7b 41110000 		.4byte	0x1141
 2796 0d7f 8F0D0000 		.4byte	0xd8f
 2797 0d83 19       		.uleb128 0x19
 2798 0d84 01       		.byte	0x1
 2799 0d85 51       		.byte	0x51
 2800 0d86 01       		.byte	0x1
 2801 0d87 3A       		.byte	0x3a
 2802 0d88 19       		.uleb128 0x19
 2803 0d89 01       		.byte	0x1
 2804 0d8a 50       		.byte	0x50
 2805 0d8b 02       		.byte	0x2
 2806 0d8c 09       		.byte	0x9
 2807 0d8d FF       		.byte	0xff
 2808 0d8e 00       		.byte	0
 2809 0d8f 1E       		.uleb128 0x1e
 2810 0d90 8A000000 		.4byte	.LVL104
 2811 0d94 910F0000 		.4byte	0xf91
 2812 0d98 A20D0000 		.4byte	0xda2
 2813 0d9c 19       		.uleb128 0x19
 2814 0d9d 01       		.byte	0x1
 2815 0d9e 50       		.byte	0x50
 2816 0d9f 01       		.byte	0x1
 2817 0da0 35       		.byte	0x35
 2818 0da1 00       		.byte	0
 2819 0da2 1E       		.uleb128 0x1e
 2820 0da3 98000000 		.4byte	.LVL105
 2821 0da7 5E110000 		.4byte	0x115e
 2822 0dab BB0D0000 		.4byte	0xdbb
ARM GAS  /tmp/ccr5FXCl.s 			page 51


 2823 0daf 19       		.uleb128 0x19
 2824 0db0 01       		.byte	0x1
 2825 0db1 51       		.byte	0x51
 2826 0db2 01       		.byte	0x1
 2827 0db3 3A       		.byte	0x3a
 2828 0db4 19       		.uleb128 0x19
 2829 0db5 01       		.byte	0x1
 2830 0db6 50       		.byte	0x50
 2831 0db7 02       		.byte	0x2
 2832 0db8 09       		.byte	0x9
 2833 0db9 FF       		.byte	0xff
 2834 0dba 00       		.byte	0
 2835 0dbb 18       		.uleb128 0x18
 2836 0dbc AA000000 		.4byte	.LVL107
 2837 0dc0 01       		.byte	0x1
 2838 0dc1 910F0000 		.4byte	0xf91
 2839 0dc5 19       		.uleb128 0x19
 2840 0dc6 01       		.byte	0x1
 2841 0dc7 50       		.byte	0x50
 2842 0dc8 01       		.byte	0x1
 2843 0dc9 36       		.byte	0x36
 2844 0dca 00       		.byte	0
 2845 0dcb 00       		.byte	0
 2846 0dcc 00       		.byte	0
 2847 0dcd 1E       		.uleb128 0x1e
 2848 0dce 0C000000 		.4byte	.LVL90
 2849 0dd2 24110000 		.4byte	0x1124
 2850 0dd6 E60D0000 		.4byte	0xde6
 2851 0dda 19       		.uleb128 0x19
 2852 0ddb 01       		.byte	0x1
 2853 0ddc 51       		.byte	0x51
 2854 0ddd 01       		.byte	0x1
 2855 0dde 30       		.byte	0x30
 2856 0ddf 19       		.uleb128 0x19
 2857 0de0 01       		.byte	0x1
 2858 0de1 50       		.byte	0x50
 2859 0de2 02       		.byte	0x2
 2860 0de3 09       		.byte	0x9
 2861 0de4 FF       		.byte	0xff
 2862 0de5 00       		.byte	0
 2863 0de6 1E       		.uleb128 0x1e
 2864 0de7 1A000000 		.4byte	.LVL92
 2865 0deb 910F0000 		.4byte	0xf91
 2866 0def F90D0000 		.4byte	0xdf9
 2867 0df3 19       		.uleb128 0x19
 2868 0df4 01       		.byte	0x1
 2869 0df5 50       		.byte	0x50
 2870 0df6 01       		.byte	0x1
 2871 0df7 31       		.byte	0x31
 2872 0df8 00       		.byte	0
 2873 0df9 1E       		.uleb128 0x1e
 2874 0dfa 28000000 		.4byte	.LVL93
 2875 0dfe 41110000 		.4byte	0x1141
 2876 0e02 0D0E0000 		.4byte	0xe0d
 2877 0e06 19       		.uleb128 0x19
 2878 0e07 01       		.byte	0x1
 2879 0e08 50       		.byte	0x50
ARM GAS  /tmp/ccr5FXCl.s 			page 52


 2880 0e09 02       		.byte	0x2
 2881 0e0a 09       		.byte	0x9
 2882 0e0b FF       		.byte	0xff
 2883 0e0c 00       		.byte	0
 2884 0e0d 1E       		.uleb128 0x1e
 2885 0e0e 36000000 		.4byte	.LVL95
 2886 0e12 910F0000 		.4byte	0xf91
 2887 0e16 200E0000 		.4byte	0xe20
 2888 0e1a 19       		.uleb128 0x19
 2889 0e1b 01       		.byte	0x1
 2890 0e1c 50       		.byte	0x50
 2891 0e1d 01       		.byte	0x1
 2892 0e1e 32       		.byte	0x32
 2893 0e1f 00       		.byte	0
 2894 0e20 1E       		.uleb128 0x1e
 2895 0e21 44000000 		.4byte	.LVL96
 2896 0e25 5E110000 		.4byte	0x115e
 2897 0e29 340E0000 		.4byte	0xe34
 2898 0e2d 19       		.uleb128 0x19
 2899 0e2e 01       		.byte	0x1
 2900 0e2f 50       		.byte	0x50
 2901 0e30 02       		.byte	0x2
 2902 0e31 09       		.byte	0x9
 2903 0e32 FF       		.byte	0xff
 2904 0e33 00       		.byte	0
 2905 0e34 20       		.uleb128 0x20
 2906 0e35 52000000 		.4byte	.LVL98
 2907 0e39 910F0000 		.4byte	0xf91
 2908 0e3d 19       		.uleb128 0x19
 2909 0e3e 01       		.byte	0x1
 2910 0e3f 50       		.byte	0x50
 2911 0e40 01       		.byte	0x1
 2912 0e41 33       		.byte	0x33
 2913 0e42 00       		.byte	0
 2914 0e43 00       		.byte	0
 2915 0e44 1C       		.uleb128 0x1c
 2916 0e45 65733100 		.ascii	"es1\000"
 2917 0e49 01       		.byte	0x1
 2918 0e4a 3B       		.byte	0x3b
 2919 0e4b 57050000 		.4byte	0x557
 2920 0e4f 05       		.byte	0x5
 2921 0e50 03       		.byte	0x3
 2922 0e51 00000000 		.4byte	es1
 2923 0e55 1C       		.uleb128 0x1c
 2924 0e56 65733200 		.ascii	"es2\000"
 2925 0e5a 01       		.byte	0x1
 2926 0e5b 3C       		.byte	0x3c
 2927 0e5c 57050000 		.4byte	0x557
 2928 0e60 05       		.byte	0x5
 2929 0e61 03       		.byte	0x3
 2930 0e62 00000000 		.4byte	es2
 2931 0e66 28       		.uleb128 0x28
 2932 0e67 62050000 		.4byte	0x562
 2933 0e6b 760E0000 		.4byte	0xe76
 2934 0e6f 29       		.uleb128 0x29
 2935 0e70 5D030000 		.4byte	0x35d
 2936 0e74 02       		.byte	0x2
ARM GAS  /tmp/ccr5FXCl.s 			page 53


 2937 0e75 00       		.byte	0
 2938 0e76 2A       		.uleb128 0x2a
 2939 0e77 3A040000 		.4byte	.LASF98
 2940 0e7b 01       		.byte	0x1
 2941 0e7c 53       		.byte	0x53
 2942 0e7d 870E0000 		.4byte	0xe87
 2943 0e81 05       		.byte	0x5
 2944 0e82 03       		.byte	0x3
 2945 0e83 00000000 		.4byte	evhndl
 2946 0e87 12       		.uleb128 0x12
 2947 0e88 660E0000 		.4byte	0xe66
 2948 0e8c 2B       		.uleb128 0x2b
 2949 0e8d 27000000 		.4byte	.LASF99
 2950 0e91 08       		.byte	0x8
 2951 0e92 D8       		.byte	0xd8
 2952 0e93 2B040000 		.4byte	0x42b
 2953 0e97 01       		.byte	0x1
 2954 0e98 01       		.byte	0x1
 2955 0e99 2B       		.uleb128 0x2b
 2956 0e9a D1040000 		.4byte	.LASF100
 2957 0e9e 09       		.byte	0x9
 2958 0e9f 6F       		.byte	0x6f
 2959 0ea0 93040000 		.4byte	0x493
 2960 0ea4 01       		.byte	0x1
 2961 0ea5 01       		.byte	0x1
 2962 0ea6 28       		.uleb128 0x28
 2963 0ea7 6C020000 		.4byte	0x26c
 2964 0eab B60E0000 		.4byte	0xeb6
 2965 0eaf 29       		.uleb128 0x29
 2966 0eb0 5D030000 		.4byte	0x35d
 2967 0eb4 04       		.byte	0x4
 2968 0eb5 00       		.byte	0
 2969 0eb6 2B       		.uleb128 0x2b
 2970 0eb7 F1030000 		.4byte	.LASF101
 2971 0ebb 0C       		.byte	0xc
 2972 0ebc A5       		.byte	0xa5
 2973 0ebd A60E0000 		.4byte	0xea6
 2974 0ec1 01       		.byte	0x1
 2975 0ec2 01       		.byte	0x1
 2976 0ec3 28       		.uleb128 0x28
 2977 0ec4 AA020000 		.4byte	0x2aa
 2978 0ec8 CE0E0000 		.4byte	0xece
 2979 0ecc 2C       		.uleb128 0x2c
 2980 0ecd 00       		.byte	0
 2981 0ece 2D       		.uleb128 0x2d
 2982 0ecf 776100   		.ascii	"wa\000"
 2983 0ed2 0C       		.byte	0xc
 2984 0ed3 A7       		.byte	0xa7
 2985 0ed4 DA0E0000 		.4byte	0xeda
 2986 0ed8 01       		.byte	0x1
 2987 0ed9 01       		.byte	0x1
 2988 0eda 12       		.uleb128 0x12
 2989 0edb C30E0000 		.4byte	0xec3
 2990 0edf 2E       		.uleb128 0x2e
 2991 0ee0 31040000 		.4byte	.LASF102
 2992 0ee4 01       		.byte	0x1
 2993 0ee5 6B       		.byte	0x6b
ARM GAS  /tmp/ccr5FXCl.s 			page 54


 2994 0ee6 F10E0000 		.4byte	0xef1
 2995 0eea 01       		.byte	0x1
 2996 0eeb 05       		.byte	0x5
 2997 0eec 03       		.byte	0x3
 2998 0eed 00000000 		.4byte	testevt1
 2999 0ef1 12       		.uleb128 0x12
 3000 0ef2 ED050000 		.4byte	0x5ed
 3001 0ef6 2E       		.uleb128 0x2e
 3002 0ef7 27010000 		.4byte	.LASF103
 3003 0efb 01       		.byte	0x1
 3004 0efc E0       		.byte	0xe0
 3005 0efd F10E0000 		.4byte	0xef1
 3006 0f01 01       		.byte	0x1
 3007 0f02 05       		.byte	0x5
 3008 0f03 03       		.byte	0x3
 3009 0f04 00000000 		.4byte	testevt2
 3010 0f08 2F       		.uleb128 0x2f
 3011 0f09 3D010000 		.4byte	.LASF104
 3012 0f0d 01       		.byte	0x1
 3013 0f0e 1001     		.2byte	0x110
 3014 0f10 F10E0000 		.4byte	0xef1
 3015 0f14 01       		.byte	0x1
 3016 0f15 05       		.byte	0x5
 3017 0f16 03       		.byte	0x3
 3018 0f17 00000000 		.4byte	testevt3
 3019 0f1b 28       		.uleb128 0x28
 3020 0f1c 2B0F0000 		.4byte	0xf2b
 3021 0f20 2B0F0000 		.4byte	0xf2b
 3022 0f24 29       		.uleb128 0x29
 3023 0f25 5D030000 		.4byte	0x35d
 3024 0f29 03       		.byte	0x3
 3025 0f2a 00       		.byte	0
 3026 0f2b 09       		.uleb128 0x9
 3027 0f2c 04       		.byte	0x4
 3028 0f2d F10E0000 		.4byte	0xef1
 3029 0f31 2F       		.uleb128 0x2f
 3030 0f32 E4010000 		.4byte	.LASF105
 3031 0f36 01       		.byte	0x1
 3032 0f37 1B01     		.2byte	0x11b
 3033 0f39 440F0000 		.4byte	0xf44
 3034 0f3d 01       		.byte	0x1
 3035 0f3e 05       		.byte	0x5
 3036 0f3f 03       		.byte	0x3
 3037 0f40 00000000 		.4byte	patternevt
 3038 0f44 12       		.uleb128 0x12
 3039 0f45 1B0F0000 		.4byte	0xf1b
 3040 0f49 30       		.uleb128 0x30
 3041 0f4a 01       		.byte	0x1
 3042 0f4b C4010000 		.4byte	.LASF106
 3043 0f4f 0B       		.byte	0xb
 3044 0f50 B3       		.byte	0xb3
 3045 0f51 01       		.byte	0x1
 3046 0f52 F6000000 		.4byte	0xf6
 3047 0f56 01       		.byte	0x1
 3048 0f57 610F0000 		.4byte	0xf61
 3049 0f5b 0E       		.uleb128 0xe
 3050 0f5c F6000000 		.4byte	0xf6
ARM GAS  /tmp/ccr5FXCl.s 			page 55


 3051 0f60 00       		.byte	0
 3052 0f61 30       		.uleb128 0x30
 3053 0f62 01       		.byte	0x1
 3054 0f63 51000000 		.4byte	.LASF107
 3055 0f67 0B       		.byte	0xb
 3056 0f68 B4       		.byte	0xb4
 3057 0f69 01       		.byte	0x1
 3058 0f6a F6000000 		.4byte	0xf6
 3059 0f6e 01       		.byte	0x1
 3060 0f6f 790F0000 		.4byte	0xf79
 3061 0f73 0E       		.uleb128 0xe
 3062 0f74 F6000000 		.4byte	0xf6
 3063 0f78 00       		.byte	0
 3064 0f79 30       		.uleb128 0x30
 3065 0f7a 01       		.byte	0x1
 3066 0f7b 9C030000 		.4byte	.LASF108
 3067 0f7f 0B       		.byte	0xb
 3068 0f80 BD       		.byte	0xbd
 3069 0f81 01       		.byte	0x1
 3070 0f82 F6000000 		.4byte	0xf6
 3071 0f86 01       		.byte	0x1
 3072 0f87 910F0000 		.4byte	0xf91
 3073 0f8b 0E       		.uleb128 0xe
 3074 0f8c F6000000 		.4byte	0xf6
 3075 0f90 00       		.byte	0
 3076 0f91 30       		.uleb128 0x30
 3077 0f92 01       		.byte	0x1
 3078 0f93 31050000 		.4byte	.LASF109
 3079 0f97 0C       		.byte	0xc
 3080 0f98 58       		.byte	0x58
 3081 0f99 01       		.byte	0x1
 3082 0f9a 97000000 		.4byte	0x97
 3083 0f9e 01       		.byte	0x1
 3084 0f9f AE0F0000 		.4byte	0xfae
 3085 0fa3 0E       		.uleb128 0xe
 3086 0fa4 37000000 		.4byte	0x37
 3087 0fa8 0E       		.uleb128 0xe
 3088 0fa9 97000000 		.4byte	0x97
 3089 0fad 00       		.byte	0
 3090 0fae 31       		.uleb128 0x31
 3091 0faf 01       		.byte	0x1
 3092 0fb0 60050000 		.4byte	.LASF128
 3093 0fb4 0C       		.byte	0xc
 3094 0fb5 5D       		.byte	0x5d
 3095 0fb6 01       		.byte	0x1
 3096 0fb7 0C010000 		.4byte	0x10c
 3097 0fbb 01       		.byte	0x1
 3098 0fbc 32       		.uleb128 0x32
 3099 0fbd 01       		.byte	0x1
 3100 0fbe 65020000 		.4byte	.LASF110
 3101 0fc2 06       		.byte	0x6
 3102 0fc3 7001     		.2byte	0x170
 3103 0fc5 01       		.byte	0x1
 3104 0fc6 6C020000 		.4byte	0x26c
 3105 0fca 01       		.byte	0x1
 3106 0fcb E90F0000 		.4byte	0xfe9
 3107 0fcf 0E       		.uleb128 0xe
ARM GAS  /tmp/ccr5FXCl.s 			page 56


 3108 0fd0 AA020000 		.4byte	0x2aa
 3109 0fd4 0E       		.uleb128 0xe
 3110 0fd5 2C000000 		.4byte	0x2c
 3111 0fd9 0E       		.uleb128 0xe
 3112 0fda D5000000 		.4byte	0xd5
 3113 0fde 0E       		.uleb128 0xe
 3114 0fdf CC050000 		.4byte	0x5cc
 3115 0fe3 0E       		.uleb128 0xe
 3116 0fe4 AA020000 		.4byte	0x2aa
 3117 0fe8 00       		.byte	0
 3118 0fe9 30       		.uleb128 0x30
 3119 0fea 01       		.byte	0x1
 3120 0feb 0E010000 		.4byte	.LASF111
 3121 0fef 0C       		.byte	0xc
 3122 0ff0 5A       		.byte	0x5a
 3123 0ff1 01       		.byte	0x1
 3124 0ff2 97000000 		.4byte	0x97
 3125 0ff6 01       		.byte	0x1
 3126 0ff7 0B100000 		.4byte	0x100b
 3127 0ffb 0E       		.uleb128 0xe
 3128 0ffc 37000000 		.4byte	0x37
 3129 1000 0E       		.uleb128 0xe
 3130 1001 0C010000 		.4byte	0x10c
 3131 1005 0E       		.uleb128 0xe
 3132 1006 0C010000 		.4byte	0x10c
 3133 100a 00       		.byte	0
 3134 100b 33       		.uleb128 0x33
 3135 100c 01       		.byte	0x1
 3136 100d E1020000 		.4byte	.LASF129
 3137 1011 0C       		.byte	0xc
 3138 1012 5C       		.byte	0x5c
 3139 1013 01       		.byte	0x1
 3140 1014 01       		.byte	0x1
 3141 1015 30       		.uleb128 0x30
 3142 1016 01       		.byte	0x1
 3143 1017 30010000 		.4byte	.LASF112
 3144 101b 0B       		.byte	0xb
 3145 101c BE       		.byte	0xbe
 3146 101d 01       		.byte	0x1
 3147 101e F6000000 		.4byte	0xf6
 3148 1022 01       		.byte	0x1
 3149 1023 2D100000 		.4byte	0x102d
 3150 1027 0E       		.uleb128 0xe
 3151 1028 F6000000 		.4byte	0xf6
 3152 102c 00       		.byte	0
 3153 102d 34       		.uleb128 0x34
 3154 102e 01       		.byte	0x1
 3155 102f 0F020000 		.4byte	.LASF114
 3156 1033 0B       		.byte	0xb
 3157 1034 AF       		.byte	0xaf
 3158 1035 01       		.byte	0x1
 3159 1036 01       		.byte	0x1
 3160 1037 4B100000 		.4byte	0x104b
 3161 103b 0E       		.uleb128 0xe
 3162 103c 4B100000 		.4byte	0x104b
 3163 1040 0E       		.uleb128 0xe
 3164 1041 36050000 		.4byte	0x536
ARM GAS  /tmp/ccr5FXCl.s 			page 57


 3165 1045 0E       		.uleb128 0xe
 3166 1046 F6000000 		.4byte	0xf6
 3167 104a 00       		.byte	0
 3168 104b 09       		.uleb128 0x9
 3169 104c 04       		.byte	0x4
 3170 104d 57050000 		.4byte	0x557
 3171 1051 30       		.uleb128 0x30
 3172 1052 01       		.byte	0x1
 3173 1053 3A030000 		.4byte	.LASF113
 3174 1057 0B       		.byte	0xb
 3175 1058 BF       		.byte	0xbf
 3176 1059 01       		.byte	0x1
 3177 105a F6000000 		.4byte	0xf6
 3178 105e 01       		.byte	0x1
 3179 105f 69100000 		.4byte	0x1069
 3180 1063 0E       		.uleb128 0xe
 3181 1064 F6000000 		.4byte	0xf6
 3182 1068 00       		.byte	0
 3183 1069 34       		.uleb128 0x34
 3184 106a 01       		.byte	0x1
 3185 106b 2F020000 		.4byte	.LASF115
 3186 106f 0B       		.byte	0xb
 3187 1070 B2       		.byte	0xb2
 3188 1071 01       		.byte	0x1
 3189 1072 01       		.byte	0x1
 3190 1073 82100000 		.4byte	0x1082
 3191 1077 0E       		.uleb128 0xe
 3192 1078 4B100000 		.4byte	0x104b
 3193 107c 0E       		.uleb128 0xe
 3194 107d 36050000 		.4byte	0x536
 3195 1081 00       		.byte	0
 3196 1082 34       		.uleb128 0x34
 3197 1083 01       		.byte	0x1
 3198 1084 67010000 		.4byte	.LASF116
 3199 1088 0B       		.byte	0xb
 3200 1089 B9       		.byte	0xb9
 3201 108a 01       		.byte	0x1
 3202 108b 01       		.byte	0x1
 3203 108c 9B100000 		.4byte	0x109b
 3204 1090 0E       		.uleb128 0xe
 3205 1091 4B100000 		.4byte	0x104b
 3206 1095 0E       		.uleb128 0xe
 3207 1096 01010000 		.4byte	0x101
 3208 109a 00       		.byte	0
 3209 109b 35       		.uleb128 0x35
 3210 109c 01       		.byte	0x1
 3211 109d B5040000 		.4byte	.LASF117
 3212 10a1 06       		.byte	0x6
 3213 10a2 7501     		.2byte	0x175
 3214 10a4 01       		.byte	0x1
 3215 10a5 01       		.byte	0x1
 3216 10a6 B0100000 		.4byte	0x10b0
 3217 10aa 0E       		.uleb128 0xe
 3218 10ab 0C010000 		.4byte	0x10c
 3219 10af 00       		.byte	0
 3220 10b0 34       		.uleb128 0x34
 3221 10b1 01       		.byte	0x1
ARM GAS  /tmp/ccr5FXCl.s 			page 58


 3222 10b2 2E000000 		.4byte	.LASF118
 3223 10b6 0B       		.byte	0xb
 3224 10b7 B7       		.byte	0xb7
 3225 10b8 01       		.byte	0x1
 3226 10b9 01       		.byte	0x1
 3227 10ba C9100000 		.4byte	0x10c9
 3228 10be 0E       		.uleb128 0xe
 3229 10bf 6C020000 		.4byte	0x26c
 3230 10c3 0E       		.uleb128 0xe
 3231 10c4 F6000000 		.4byte	0xf6
 3232 10c8 00       		.byte	0
 3233 10c9 34       		.uleb128 0x34
 3234 10ca 01       		.byte	0x1
 3235 10cb C8020000 		.4byte	.LASF119
 3236 10cf 0B       		.byte	0xb
 3237 10d0 BB       		.byte	0xbb
 3238 10d1 01       		.byte	0x1
 3239 10d2 01       		.byte	0x1
 3240 10d3 E2100000 		.4byte	0x10e2
 3241 10d7 0E       		.uleb128 0xe
 3242 10d8 E2100000 		.4byte	0x10e2
 3243 10dc 0E       		.uleb128 0xe
 3244 10dd F6000000 		.4byte	0xf6
 3245 10e1 00       		.byte	0
 3246 10e2 09       		.uleb128 0x9
 3247 10e3 04       		.byte	0x4
 3248 10e4 E8100000 		.4byte	0x10e8
 3249 10e8 12       		.uleb128 0x12
 3250 10e9 62050000 		.4byte	0x562
 3251 10ed 30       		.uleb128 0x30
 3252 10ee 01       		.byte	0x1
 3253 10ef 24030000 		.4byte	.LASF120
 3254 10f3 0C       		.byte	0xc
 3255 10f4 59       		.byte	0x59
 3256 10f5 01       		.byte	0x1
 3257 10f6 97000000 		.4byte	0x97
 3258 10fa 01       		.byte	0x1
 3259 10fb 0A110000 		.4byte	0x110a
 3260 10ff 0E       		.uleb128 0xe
 3261 1100 37000000 		.4byte	0x37
 3262 1104 0E       		.uleb128 0xe
 3263 1105 0A110000 		.4byte	0x110a
 3264 1109 00       		.byte	0
 3265 110a 09       		.uleb128 0x9
 3266 110b 04       		.byte	0x4
 3267 110c BF050000 		.4byte	0x5bf
 3268 1110 34       		.uleb128 0x34
 3269 1111 01       		.byte	0x1
 3270 1112 D6000000 		.4byte	.LASF121
 3271 1116 0C       		.byte	0xc
 3272 1117 56       		.byte	0x56
 3273 1118 01       		.byte	0x1
 3274 1119 01       		.byte	0x1
 3275 111a 24110000 		.4byte	0x1124
 3276 111e 0E       		.uleb128 0xe
 3277 111f BF050000 		.4byte	0x5bf
 3278 1123 00       		.byte	0
ARM GAS  /tmp/ccr5FXCl.s 			page 59


 3279 1124 30       		.uleb128 0x30
 3280 1125 01       		.byte	0x1
 3281 1126 0F050000 		.4byte	.LASF122
 3282 112a 0B       		.byte	0xb
 3283 112b C2       		.byte	0xc2
 3284 112c 01       		.byte	0x1
 3285 112d F6000000 		.4byte	0xf6
 3286 1131 01       		.byte	0x1
 3287 1132 41110000 		.4byte	0x1141
 3288 1136 0E       		.uleb128 0xe
 3289 1137 F6000000 		.4byte	0xf6
 3290 113b 0E       		.uleb128 0xe
 3291 113c 0C010000 		.4byte	0x10c
 3292 1140 00       		.byte	0
 3293 1141 30       		.uleb128 0x30
 3294 1142 01       		.byte	0x1
 3295 1143 69000000 		.4byte	.LASF123
 3296 1147 0B       		.byte	0xb
 3297 1148 C3       		.byte	0xc3
 3298 1149 01       		.byte	0x1
 3299 114a F6000000 		.4byte	0xf6
 3300 114e 01       		.byte	0x1
 3301 114f 5E110000 		.4byte	0x115e
 3302 1153 0E       		.uleb128 0xe
 3303 1154 F6000000 		.4byte	0xf6
 3304 1158 0E       		.uleb128 0xe
 3305 1159 0C010000 		.4byte	0x10c
 3306 115d 00       		.byte	0
 3307 115e 36       		.uleb128 0x36
 3308 115f 01       		.byte	0x1
 3309 1160 AB000000 		.4byte	.LASF124
 3310 1164 0B       		.byte	0xb
 3311 1165 C4       		.byte	0xc4
 3312 1166 01       		.byte	0x1
 3313 1167 F6000000 		.4byte	0xf6
 3314 116b 01       		.byte	0x1
 3315 116c 0E       		.uleb128 0xe
 3316 116d F6000000 		.4byte	0xf6
 3317 1171 0E       		.uleb128 0xe
 3318 1172 0C010000 		.4byte	0x10c
 3319 1176 00       		.byte	0
 3320 1177 00       		.byte	0
 3321              		.section	.debug_abbrev,"",%progbits
 3322              	.Ldebug_abbrev0:
 3323 0000 01       		.uleb128 0x1
 3324 0001 11       		.uleb128 0x11
 3325 0002 01       		.byte	0x1
 3326 0003 25       		.uleb128 0x25
 3327 0004 0E       		.uleb128 0xe
 3328 0005 13       		.uleb128 0x13
 3329 0006 0B       		.uleb128 0xb
 3330 0007 03       		.uleb128 0x3
 3331 0008 0E       		.uleb128 0xe
 3332 0009 55       		.uleb128 0x55
 3333 000a 06       		.uleb128 0x6
 3334 000b 11       		.uleb128 0x11
 3335 000c 01       		.uleb128 0x1
ARM GAS  /tmp/ccr5FXCl.s 			page 60


 3336 000d 52       		.uleb128 0x52
 3337 000e 01       		.uleb128 0x1
 3338 000f 10       		.uleb128 0x10
 3339 0010 06       		.uleb128 0x6
 3340 0011 00       		.byte	0
 3341 0012 00       		.byte	0
 3342 0013 02       		.uleb128 0x2
 3343 0014 24       		.uleb128 0x24
 3344 0015 00       		.byte	0
 3345 0016 0B       		.uleb128 0xb
 3346 0017 0B       		.uleb128 0xb
 3347 0018 3E       		.uleb128 0x3e
 3348 0019 0B       		.uleb128 0xb
 3349 001a 03       		.uleb128 0x3
 3350 001b 08       		.uleb128 0x8
 3351 001c 00       		.byte	0
 3352 001d 00       		.byte	0
 3353 001e 03       		.uleb128 0x3
 3354 001f 16       		.uleb128 0x16
 3355 0020 00       		.byte	0
 3356 0021 03       		.uleb128 0x3
 3357 0022 0E       		.uleb128 0xe
 3358 0023 3A       		.uleb128 0x3a
 3359 0024 0B       		.uleb128 0xb
 3360 0025 3B       		.uleb128 0x3b
 3361 0026 0B       		.uleb128 0xb
 3362 0027 49       		.uleb128 0x49
 3363 0028 13       		.uleb128 0x13
 3364 0029 00       		.byte	0
 3365 002a 00       		.byte	0
 3366 002b 04       		.uleb128 0x4
 3367 002c 24       		.uleb128 0x24
 3368 002d 00       		.byte	0
 3369 002e 0B       		.uleb128 0xb
 3370 002f 0B       		.uleb128 0xb
 3371 0030 3E       		.uleb128 0x3e
 3372 0031 0B       		.uleb128 0xb
 3373 0032 03       		.uleb128 0x3
 3374 0033 0E       		.uleb128 0xe
 3375 0034 00       		.byte	0
 3376 0035 00       		.byte	0
 3377 0036 05       		.uleb128 0x5
 3378 0037 13       		.uleb128 0x13
 3379 0038 01       		.byte	0x1
 3380 0039 03       		.uleb128 0x3
 3381 003a 0E       		.uleb128 0xe
 3382 003b 0B       		.uleb128 0xb
 3383 003c 0B       		.uleb128 0xb
 3384 003d 3A       		.uleb128 0x3a
 3385 003e 0B       		.uleb128 0xb
 3386 003f 3B       		.uleb128 0x3b
 3387 0040 0B       		.uleb128 0xb
 3388 0041 01       		.uleb128 0x1
 3389 0042 13       		.uleb128 0x13
 3390 0043 00       		.byte	0
 3391 0044 00       		.byte	0
 3392 0045 06       		.uleb128 0x6
ARM GAS  /tmp/ccr5FXCl.s 			page 61


 3393 0046 0D       		.uleb128 0xd
 3394 0047 00       		.byte	0
 3395 0048 03       		.uleb128 0x3
 3396 0049 0E       		.uleb128 0xe
 3397 004a 3A       		.uleb128 0x3a
 3398 004b 0B       		.uleb128 0xb
 3399 004c 3B       		.uleb128 0x3b
 3400 004d 0B       		.uleb128 0xb
 3401 004e 49       		.uleb128 0x49
 3402 004f 13       		.uleb128 0x13
 3403 0050 38       		.uleb128 0x38
 3404 0051 0A       		.uleb128 0xa
 3405 0052 00       		.byte	0
 3406 0053 00       		.byte	0
 3407 0054 07       		.uleb128 0x7
 3408 0055 0D       		.uleb128 0xd
 3409 0056 00       		.byte	0
 3410 0057 03       		.uleb128 0x3
 3411 0058 08       		.uleb128 0x8
 3412 0059 3A       		.uleb128 0x3a
 3413 005a 0B       		.uleb128 0xb
 3414 005b 3B       		.uleb128 0x3b
 3415 005c 0B       		.uleb128 0xb
 3416 005d 49       		.uleb128 0x49
 3417 005e 13       		.uleb128 0x13
 3418 005f 38       		.uleb128 0x38
 3419 0060 0A       		.uleb128 0xa
 3420 0061 00       		.byte	0
 3421 0062 00       		.byte	0
 3422 0063 08       		.uleb128 0x8
 3423 0064 13       		.uleb128 0x13
 3424 0065 01       		.byte	0x1
 3425 0066 0B       		.uleb128 0xb
 3426 0067 0B       		.uleb128 0xb
 3427 0068 3A       		.uleb128 0x3a
 3428 0069 0B       		.uleb128 0xb
 3429 006a 3B       		.uleb128 0x3b
 3430 006b 0B       		.uleb128 0xb
 3431 006c 01       		.uleb128 0x1
 3432 006d 13       		.uleb128 0x13
 3433 006e 00       		.byte	0
 3434 006f 00       		.byte	0
 3435 0070 09       		.uleb128 0x9
 3436 0071 0F       		.uleb128 0xf
 3437 0072 00       		.byte	0
 3438 0073 0B       		.uleb128 0xb
 3439 0074 0B       		.uleb128 0xb
 3440 0075 49       		.uleb128 0x49
 3441 0076 13       		.uleb128 0x13
 3442 0077 00       		.byte	0
 3443 0078 00       		.byte	0
 3444 0079 0A       		.uleb128 0xa
 3445 007a 0F       		.uleb128 0xf
 3446 007b 00       		.byte	0
 3447 007c 0B       		.uleb128 0xb
 3448 007d 0B       		.uleb128 0xb
 3449 007e 00       		.byte	0
ARM GAS  /tmp/ccr5FXCl.s 			page 62


 3450 007f 00       		.byte	0
 3451 0080 0B       		.uleb128 0xb
 3452 0081 13       		.uleb128 0x13
 3453 0082 01       		.byte	0x1
 3454 0083 03       		.uleb128 0x3
 3455 0084 0E       		.uleb128 0xe
 3456 0085 0B       		.uleb128 0xb
 3457 0086 0B       		.uleb128 0xb
 3458 0087 3A       		.uleb128 0x3a
 3459 0088 0B       		.uleb128 0xb
 3460 0089 3B       		.uleb128 0x3b
 3461 008a 05       		.uleb128 0x5
 3462 008b 01       		.uleb128 0x1
 3463 008c 13       		.uleb128 0x13
 3464 008d 00       		.byte	0
 3465 008e 00       		.byte	0
 3466 008f 0C       		.uleb128 0xc
 3467 0090 0D       		.uleb128 0xd
 3468 0091 00       		.byte	0
 3469 0092 03       		.uleb128 0x3
 3470 0093 08       		.uleb128 0x8
 3471 0094 3A       		.uleb128 0x3a
 3472 0095 0B       		.uleb128 0xb
 3473 0096 3B       		.uleb128 0x3b
 3474 0097 05       		.uleb128 0x5
 3475 0098 49       		.uleb128 0x49
 3476 0099 13       		.uleb128 0x13
 3477 009a 38       		.uleb128 0x38
 3478 009b 0A       		.uleb128 0xa
 3479 009c 00       		.byte	0
 3480 009d 00       		.byte	0
 3481 009e 0D       		.uleb128 0xd
 3482 009f 15       		.uleb128 0x15
 3483 00a0 01       		.byte	0x1
 3484 00a1 27       		.uleb128 0x27
 3485 00a2 0C       		.uleb128 0xc
 3486 00a3 01       		.uleb128 0x1
 3487 00a4 13       		.uleb128 0x13
 3488 00a5 00       		.byte	0
 3489 00a6 00       		.byte	0
 3490 00a7 0E       		.uleb128 0xe
 3491 00a8 05       		.uleb128 0x5
 3492 00a9 00       		.byte	0
 3493 00aa 49       		.uleb128 0x49
 3494 00ab 13       		.uleb128 0x13
 3495 00ac 00       		.byte	0
 3496 00ad 00       		.byte	0
 3497 00ae 0F       		.uleb128 0xf
 3498 00af 35       		.uleb128 0x35
 3499 00b0 00       		.byte	0
 3500 00b1 49       		.uleb128 0x49
 3501 00b2 13       		.uleb128 0x13
 3502 00b3 00       		.byte	0
 3503 00b4 00       		.byte	0
 3504 00b5 10       		.uleb128 0x10
 3505 00b6 17       		.uleb128 0x17
 3506 00b7 01       		.byte	0x1
ARM GAS  /tmp/ccr5FXCl.s 			page 63


 3507 00b8 0B       		.uleb128 0xb
 3508 00b9 0B       		.uleb128 0xb
 3509 00ba 3A       		.uleb128 0x3a
 3510 00bb 0B       		.uleb128 0xb
 3511 00bc 3B       		.uleb128 0x3b
 3512 00bd 0B       		.uleb128 0xb
 3513 00be 01       		.uleb128 0x1
 3514 00bf 13       		.uleb128 0x13
 3515 00c0 00       		.byte	0
 3516 00c1 00       		.byte	0
 3517 00c2 11       		.uleb128 0x11
 3518 00c3 0D       		.uleb128 0xd
 3519 00c4 00       		.byte	0
 3520 00c5 03       		.uleb128 0x3
 3521 00c6 0E       		.uleb128 0xe
 3522 00c7 3A       		.uleb128 0x3a
 3523 00c8 0B       		.uleb128 0xb
 3524 00c9 3B       		.uleb128 0x3b
 3525 00ca 0B       		.uleb128 0xb
 3526 00cb 49       		.uleb128 0x49
 3527 00cc 13       		.uleb128 0x13
 3528 00cd 00       		.byte	0
 3529 00ce 00       		.byte	0
 3530 00cf 12       		.uleb128 0x12
 3531 00d0 26       		.uleb128 0x26
 3532 00d1 00       		.byte	0
 3533 00d2 49       		.uleb128 0x49
 3534 00d3 13       		.uleb128 0x13
 3535 00d4 00       		.byte	0
 3536 00d5 00       		.byte	0
 3537 00d6 13       		.uleb128 0x13
 3538 00d7 15       		.uleb128 0x15
 3539 00d8 01       		.byte	0x1
 3540 00d9 27       		.uleb128 0x27
 3541 00da 0C       		.uleb128 0xc
 3542 00db 49       		.uleb128 0x49
 3543 00dc 13       		.uleb128 0x13
 3544 00dd 01       		.uleb128 0x1
 3545 00de 13       		.uleb128 0x13
 3546 00df 00       		.byte	0
 3547 00e0 00       		.byte	0
 3548 00e1 14       		.uleb128 0x14
 3549 00e2 15       		.uleb128 0x15
 3550 00e3 00       		.byte	0
 3551 00e4 27       		.uleb128 0x27
 3552 00e5 0C       		.uleb128 0xc
 3553 00e6 00       		.byte	0
 3554 00e7 00       		.byte	0
 3555 00e8 15       		.uleb128 0x15
 3556 00e9 2E       		.uleb128 0x2e
 3557 00ea 01       		.byte	0x1
 3558 00eb 03       		.uleb128 0x3
 3559 00ec 0E       		.uleb128 0xe
 3560 00ed 3A       		.uleb128 0x3a
 3561 00ee 0B       		.uleb128 0xb
 3562 00ef 3B       		.uleb128 0x3b
 3563 00f0 0B       		.uleb128 0xb
ARM GAS  /tmp/ccr5FXCl.s 			page 64


 3564 00f1 27       		.uleb128 0x27
 3565 00f2 0C       		.uleb128 0xc
 3566 00f3 20       		.uleb128 0x20
 3567 00f4 0B       		.uleb128 0xb
 3568 00f5 01       		.uleb128 0x1
 3569 00f6 13       		.uleb128 0x13
 3570 00f7 00       		.byte	0
 3571 00f8 00       		.byte	0
 3572 00f9 16       		.uleb128 0x16
 3573 00fa 34       		.uleb128 0x34
 3574 00fb 00       		.byte	0
 3575 00fc 03       		.uleb128 0x3
 3576 00fd 08       		.uleb128 0x8
 3577 00fe 3A       		.uleb128 0x3a
 3578 00ff 0B       		.uleb128 0xb
 3579 0100 3B       		.uleb128 0x3b
 3580 0101 0B       		.uleb128 0xb
 3581 0102 49       		.uleb128 0x49
 3582 0103 13       		.uleb128 0x13
 3583 0104 00       		.byte	0
 3584 0105 00       		.byte	0
 3585 0106 17       		.uleb128 0x17
 3586 0107 2E       		.uleb128 0x2e
 3587 0108 01       		.byte	0x1
 3588 0109 03       		.uleb128 0x3
 3589 010a 0E       		.uleb128 0xe
 3590 010b 3A       		.uleb128 0x3a
 3591 010c 0B       		.uleb128 0xb
 3592 010d 3B       		.uleb128 0x3b
 3593 010e 0B       		.uleb128 0xb
 3594 010f 27       		.uleb128 0x27
 3595 0110 0C       		.uleb128 0xc
 3596 0111 11       		.uleb128 0x11
 3597 0112 01       		.uleb128 0x1
 3598 0113 12       		.uleb128 0x12
 3599 0114 01       		.uleb128 0x1
 3600 0115 40       		.uleb128 0x40
 3601 0116 0A       		.uleb128 0xa
 3602 0117 9742     		.uleb128 0x2117
 3603 0119 0C       		.uleb128 0xc
 3604 011a 01       		.uleb128 0x1
 3605 011b 13       		.uleb128 0x13
 3606 011c 00       		.byte	0
 3607 011d 00       		.byte	0
 3608 011e 18       		.uleb128 0x18
 3609 011f 898201   		.uleb128 0x4109
 3610 0122 01       		.byte	0x1
 3611 0123 11       		.uleb128 0x11
 3612 0124 01       		.uleb128 0x1
 3613 0125 9542     		.uleb128 0x2115
 3614 0127 0C       		.uleb128 0xc
 3615 0128 31       		.uleb128 0x31
 3616 0129 13       		.uleb128 0x13
 3617 012a 00       		.byte	0
 3618 012b 00       		.byte	0
 3619 012c 19       		.uleb128 0x19
 3620 012d 8A8201   		.uleb128 0x410a
ARM GAS  /tmp/ccr5FXCl.s 			page 65


 3621 0130 00       		.byte	0
 3622 0131 02       		.uleb128 0x2
 3623 0132 0A       		.uleb128 0xa
 3624 0133 9142     		.uleb128 0x2111
 3625 0135 0A       		.uleb128 0xa
 3626 0136 00       		.byte	0
 3627 0137 00       		.byte	0
 3628 0138 1A       		.uleb128 0x1a
 3629 0139 2E       		.uleb128 0x2e
 3630 013a 01       		.byte	0x1
 3631 013b 03       		.uleb128 0x3
 3632 013c 0E       		.uleb128 0xe
 3633 013d 3A       		.uleb128 0x3a
 3634 013e 0B       		.uleb128 0xb
 3635 013f 3B       		.uleb128 0x3b
 3636 0140 0B       		.uleb128 0xb
 3637 0141 27       		.uleb128 0x27
 3638 0142 0C       		.uleb128 0xc
 3639 0143 11       		.uleb128 0x11
 3640 0144 01       		.uleb128 0x1
 3641 0145 12       		.uleb128 0x12
 3642 0146 01       		.uleb128 0x1
 3643 0147 40       		.uleb128 0x40
 3644 0148 06       		.uleb128 0x6
 3645 0149 9742     		.uleb128 0x2117
 3646 014b 0C       		.uleb128 0xc
 3647 014c 01       		.uleb128 0x1
 3648 014d 13       		.uleb128 0x13
 3649 014e 00       		.byte	0
 3650 014f 00       		.byte	0
 3651 0150 1B       		.uleb128 0x1b
 3652 0151 34       		.uleb128 0x34
 3653 0152 00       		.byte	0
 3654 0153 03       		.uleb128 0x3
 3655 0154 08       		.uleb128 0x8
 3656 0155 3A       		.uleb128 0x3a
 3657 0156 0B       		.uleb128 0xb
 3658 0157 3B       		.uleb128 0x3b
 3659 0158 0B       		.uleb128 0xb
 3660 0159 49       		.uleb128 0x49
 3661 015a 13       		.uleb128 0x13
 3662 015b 02       		.uleb128 0x2
 3663 015c 06       		.uleb128 0x6
 3664 015d 00       		.byte	0
 3665 015e 00       		.byte	0
 3666 015f 1C       		.uleb128 0x1c
 3667 0160 34       		.uleb128 0x34
 3668 0161 00       		.byte	0
 3669 0162 03       		.uleb128 0x3
 3670 0163 08       		.uleb128 0x8
 3671 0164 3A       		.uleb128 0x3a
 3672 0165 0B       		.uleb128 0xb
 3673 0166 3B       		.uleb128 0x3b
 3674 0167 0B       		.uleb128 0xb
 3675 0168 49       		.uleb128 0x49
 3676 0169 13       		.uleb128 0x13
 3677 016a 02       		.uleb128 0x2
ARM GAS  /tmp/ccr5FXCl.s 			page 66


 3678 016b 0A       		.uleb128 0xa
 3679 016c 00       		.byte	0
 3680 016d 00       		.byte	0
 3681 016e 1D       		.uleb128 0x1d
 3682 016f 34       		.uleb128 0x34
 3683 0170 00       		.byte	0
 3684 0171 03       		.uleb128 0x3
 3685 0172 0E       		.uleb128 0xe
 3686 0173 3A       		.uleb128 0x3a
 3687 0174 0B       		.uleb128 0xb
 3688 0175 3B       		.uleb128 0x3b
 3689 0176 0B       		.uleb128 0xb
 3690 0177 49       		.uleb128 0x49
 3691 0178 13       		.uleb128 0x13
 3692 0179 02       		.uleb128 0x2
 3693 017a 06       		.uleb128 0x6
 3694 017b 00       		.byte	0
 3695 017c 00       		.byte	0
 3696 017d 1E       		.uleb128 0x1e
 3697 017e 898201   		.uleb128 0x4109
 3698 0181 01       		.byte	0x1
 3699 0182 11       		.uleb128 0x11
 3700 0183 01       		.uleb128 0x1
 3701 0184 31       		.uleb128 0x31
 3702 0185 13       		.uleb128 0x13
 3703 0186 01       		.uleb128 0x1
 3704 0187 13       		.uleb128 0x13
 3705 0188 00       		.byte	0
 3706 0189 00       		.byte	0
 3707 018a 1F       		.uleb128 0x1f
 3708 018b 898201   		.uleb128 0x4109
 3709 018e 00       		.byte	0
 3710 018f 11       		.uleb128 0x11
 3711 0190 01       		.uleb128 0x1
 3712 0191 31       		.uleb128 0x31
 3713 0192 13       		.uleb128 0x13
 3714 0193 00       		.byte	0
 3715 0194 00       		.byte	0
 3716 0195 20       		.uleb128 0x20
 3717 0196 898201   		.uleb128 0x4109
 3718 0199 01       		.byte	0x1
 3719 019a 11       		.uleb128 0x11
 3720 019b 01       		.uleb128 0x1
 3721 019c 31       		.uleb128 0x31
 3722 019d 13       		.uleb128 0x13
 3723 019e 00       		.byte	0
 3724 019f 00       		.byte	0
 3725 01a0 21       		.uleb128 0x21
 3726 01a1 2E       		.uleb128 0x2e
 3727 01a2 01       		.byte	0x1
 3728 01a3 03       		.uleb128 0x3
 3729 01a4 0E       		.uleb128 0xe
 3730 01a5 3A       		.uleb128 0x3a
 3731 01a6 0B       		.uleb128 0xb
 3732 01a7 3B       		.uleb128 0x3b
 3733 01a8 0B       		.uleb128 0xb
 3734 01a9 27       		.uleb128 0x27
ARM GAS  /tmp/ccr5FXCl.s 			page 67


 3735 01aa 0C       		.uleb128 0xc
 3736 01ab 49       		.uleb128 0x49
 3737 01ac 13       		.uleb128 0x13
 3738 01ad 11       		.uleb128 0x11
 3739 01ae 01       		.uleb128 0x1
 3740 01af 12       		.uleb128 0x12
 3741 01b0 01       		.uleb128 0x1
 3742 01b1 40       		.uleb128 0x40
 3743 01b2 06       		.uleb128 0x6
 3744 01b3 9742     		.uleb128 0x2117
 3745 01b5 0C       		.uleb128 0xc
 3746 01b6 01       		.uleb128 0x1
 3747 01b7 13       		.uleb128 0x13
 3748 01b8 00       		.byte	0
 3749 01b9 00       		.byte	0
 3750 01ba 22       		.uleb128 0x22
 3751 01bb 05       		.uleb128 0x5
 3752 01bc 00       		.byte	0
 3753 01bd 03       		.uleb128 0x3
 3754 01be 08       		.uleb128 0x8
 3755 01bf 3A       		.uleb128 0x3a
 3756 01c0 0B       		.uleb128 0xb
 3757 01c1 3B       		.uleb128 0x3b
 3758 01c2 0B       		.uleb128 0xb
 3759 01c3 49       		.uleb128 0x49
 3760 01c4 13       		.uleb128 0x13
 3761 01c5 02       		.uleb128 0x2
 3762 01c6 06       		.uleb128 0x6
 3763 01c7 00       		.byte	0
 3764 01c8 00       		.byte	0
 3765 01c9 23       		.uleb128 0x23
 3766 01ca 2E       		.uleb128 0x2e
 3767 01cb 01       		.byte	0x1
 3768 01cc 03       		.uleb128 0x3
 3769 01cd 08       		.uleb128 0x8
 3770 01ce 3A       		.uleb128 0x3a
 3771 01cf 0B       		.uleb128 0xb
 3772 01d0 3B       		.uleb128 0x3b
 3773 01d1 0B       		.uleb128 0xb
 3774 01d2 27       		.uleb128 0x27
 3775 01d3 0C       		.uleb128 0xc
 3776 01d4 11       		.uleb128 0x11
 3777 01d5 01       		.uleb128 0x1
 3778 01d6 12       		.uleb128 0x12
 3779 01d7 01       		.uleb128 0x1
 3780 01d8 40       		.uleb128 0x40
 3781 01d9 0A       		.uleb128 0xa
 3782 01da 9742     		.uleb128 0x2117
 3783 01dc 0C       		.uleb128 0xc
 3784 01dd 01       		.uleb128 0x1
 3785 01de 13       		.uleb128 0x13
 3786 01df 00       		.byte	0
 3787 01e0 00       		.byte	0
 3788 01e1 24       		.uleb128 0x24
 3789 01e2 2E       		.uleb128 0x2e
 3790 01e3 01       		.byte	0x1
 3791 01e4 31       		.uleb128 0x31
ARM GAS  /tmp/ccr5FXCl.s 			page 68


 3792 01e5 13       		.uleb128 0x13
 3793 01e6 11       		.uleb128 0x11
 3794 01e7 01       		.uleb128 0x1
 3795 01e8 12       		.uleb128 0x12
 3796 01e9 01       		.uleb128 0x1
 3797 01ea 40       		.uleb128 0x40
 3798 01eb 06       		.uleb128 0x6
 3799 01ec 9742     		.uleb128 0x2117
 3800 01ee 0C       		.uleb128 0xc
 3801 01ef 01       		.uleb128 0x1
 3802 01f0 13       		.uleb128 0x13
 3803 01f1 00       		.byte	0
 3804 01f2 00       		.byte	0
 3805 01f3 25       		.uleb128 0x25
 3806 01f4 34       		.uleb128 0x34
 3807 01f5 00       		.byte	0
 3808 01f6 31       		.uleb128 0x31
 3809 01f7 13       		.uleb128 0x13
 3810 01f8 02       		.uleb128 0x2
 3811 01f9 06       		.uleb128 0x6
 3812 01fa 00       		.byte	0
 3813 01fb 00       		.byte	0
 3814 01fc 26       		.uleb128 0x26
 3815 01fd 1D       		.uleb128 0x1d
 3816 01fe 01       		.byte	0x1
 3817 01ff 31       		.uleb128 0x31
 3818 0200 13       		.uleb128 0x13
 3819 0201 52       		.uleb128 0x52
 3820 0202 01       		.uleb128 0x1
 3821 0203 55       		.uleb128 0x55
 3822 0204 06       		.uleb128 0x6
 3823 0205 58       		.uleb128 0x58
 3824 0206 0B       		.uleb128 0xb
 3825 0207 59       		.uleb128 0x59
 3826 0208 0B       		.uleb128 0xb
 3827 0209 01       		.uleb128 0x1
 3828 020a 13       		.uleb128 0x13
 3829 020b 00       		.byte	0
 3830 020c 00       		.byte	0
 3831 020d 27       		.uleb128 0x27
 3832 020e 0B       		.uleb128 0xb
 3833 020f 01       		.byte	0x1
 3834 0210 55       		.uleb128 0x55
 3835 0211 06       		.uleb128 0x6
 3836 0212 00       		.byte	0
 3837 0213 00       		.byte	0
 3838 0214 28       		.uleb128 0x28
 3839 0215 01       		.uleb128 0x1
 3840 0216 01       		.byte	0x1
 3841 0217 49       		.uleb128 0x49
 3842 0218 13       		.uleb128 0x13
 3843 0219 01       		.uleb128 0x1
 3844 021a 13       		.uleb128 0x13
 3845 021b 00       		.byte	0
 3846 021c 00       		.byte	0
 3847 021d 29       		.uleb128 0x29
 3848 021e 21       		.uleb128 0x21
ARM GAS  /tmp/ccr5FXCl.s 			page 69


 3849 021f 00       		.byte	0
 3850 0220 49       		.uleb128 0x49
 3851 0221 13       		.uleb128 0x13
 3852 0222 2F       		.uleb128 0x2f
 3853 0223 0B       		.uleb128 0xb
 3854 0224 00       		.byte	0
 3855 0225 00       		.byte	0
 3856 0226 2A       		.uleb128 0x2a
 3857 0227 34       		.uleb128 0x34
 3858 0228 00       		.byte	0
 3859 0229 03       		.uleb128 0x3
 3860 022a 0E       		.uleb128 0xe
 3861 022b 3A       		.uleb128 0x3a
 3862 022c 0B       		.uleb128 0xb
 3863 022d 3B       		.uleb128 0x3b
 3864 022e 0B       		.uleb128 0xb
 3865 022f 49       		.uleb128 0x49
 3866 0230 13       		.uleb128 0x13
 3867 0231 02       		.uleb128 0x2
 3868 0232 0A       		.uleb128 0xa
 3869 0233 00       		.byte	0
 3870 0234 00       		.byte	0
 3871 0235 2B       		.uleb128 0x2b
 3872 0236 34       		.uleb128 0x34
 3873 0237 00       		.byte	0
 3874 0238 03       		.uleb128 0x3
 3875 0239 0E       		.uleb128 0xe
 3876 023a 3A       		.uleb128 0x3a
 3877 023b 0B       		.uleb128 0xb
 3878 023c 3B       		.uleb128 0x3b
 3879 023d 0B       		.uleb128 0xb
 3880 023e 49       		.uleb128 0x49
 3881 023f 13       		.uleb128 0x13
 3882 0240 3F       		.uleb128 0x3f
 3883 0241 0C       		.uleb128 0xc
 3884 0242 3C       		.uleb128 0x3c
 3885 0243 0C       		.uleb128 0xc
 3886 0244 00       		.byte	0
 3887 0245 00       		.byte	0
 3888 0246 2C       		.uleb128 0x2c
 3889 0247 21       		.uleb128 0x21
 3890 0248 00       		.byte	0
 3891 0249 00       		.byte	0
 3892 024a 00       		.byte	0
 3893 024b 2D       		.uleb128 0x2d
 3894 024c 34       		.uleb128 0x34
 3895 024d 00       		.byte	0
 3896 024e 03       		.uleb128 0x3
 3897 024f 08       		.uleb128 0x8
 3898 0250 3A       		.uleb128 0x3a
 3899 0251 0B       		.uleb128 0xb
 3900 0252 3B       		.uleb128 0x3b
 3901 0253 0B       		.uleb128 0xb
 3902 0254 49       		.uleb128 0x49
 3903 0255 13       		.uleb128 0x13
 3904 0256 3F       		.uleb128 0x3f
 3905 0257 0C       		.uleb128 0xc
ARM GAS  /tmp/ccr5FXCl.s 			page 70


 3906 0258 3C       		.uleb128 0x3c
 3907 0259 0C       		.uleb128 0xc
 3908 025a 00       		.byte	0
 3909 025b 00       		.byte	0
 3910 025c 2E       		.uleb128 0x2e
 3911 025d 34       		.uleb128 0x34
 3912 025e 00       		.byte	0
 3913 025f 03       		.uleb128 0x3
 3914 0260 0E       		.uleb128 0xe
 3915 0261 3A       		.uleb128 0x3a
 3916 0262 0B       		.uleb128 0xb
 3917 0263 3B       		.uleb128 0x3b
 3918 0264 0B       		.uleb128 0xb
 3919 0265 49       		.uleb128 0x49
 3920 0266 13       		.uleb128 0x13
 3921 0267 3F       		.uleb128 0x3f
 3922 0268 0C       		.uleb128 0xc
 3923 0269 02       		.uleb128 0x2
 3924 026a 0A       		.uleb128 0xa
 3925 026b 00       		.byte	0
 3926 026c 00       		.byte	0
 3927 026d 2F       		.uleb128 0x2f
 3928 026e 34       		.uleb128 0x34
 3929 026f 00       		.byte	0
 3930 0270 03       		.uleb128 0x3
 3931 0271 0E       		.uleb128 0xe
 3932 0272 3A       		.uleb128 0x3a
 3933 0273 0B       		.uleb128 0xb
 3934 0274 3B       		.uleb128 0x3b
 3935 0275 05       		.uleb128 0x5
 3936 0276 49       		.uleb128 0x49
 3937 0277 13       		.uleb128 0x13
 3938 0278 3F       		.uleb128 0x3f
 3939 0279 0C       		.uleb128 0xc
 3940 027a 02       		.uleb128 0x2
 3941 027b 0A       		.uleb128 0xa
 3942 027c 00       		.byte	0
 3943 027d 00       		.byte	0
 3944 027e 30       		.uleb128 0x30
 3945 027f 2E       		.uleb128 0x2e
 3946 0280 01       		.byte	0x1
 3947 0281 3F       		.uleb128 0x3f
 3948 0282 0C       		.uleb128 0xc
 3949 0283 03       		.uleb128 0x3
 3950 0284 0E       		.uleb128 0xe
 3951 0285 3A       		.uleb128 0x3a
 3952 0286 0B       		.uleb128 0xb
 3953 0287 3B       		.uleb128 0x3b
 3954 0288 0B       		.uleb128 0xb
 3955 0289 27       		.uleb128 0x27
 3956 028a 0C       		.uleb128 0xc
 3957 028b 49       		.uleb128 0x49
 3958 028c 13       		.uleb128 0x13
 3959 028d 3C       		.uleb128 0x3c
 3960 028e 0C       		.uleb128 0xc
 3961 028f 01       		.uleb128 0x1
 3962 0290 13       		.uleb128 0x13
ARM GAS  /tmp/ccr5FXCl.s 			page 71


 3963 0291 00       		.byte	0
 3964 0292 00       		.byte	0
 3965 0293 31       		.uleb128 0x31
 3966 0294 2E       		.uleb128 0x2e
 3967 0295 00       		.byte	0
 3968 0296 3F       		.uleb128 0x3f
 3969 0297 0C       		.uleb128 0xc
 3970 0298 03       		.uleb128 0x3
 3971 0299 0E       		.uleb128 0xe
 3972 029a 3A       		.uleb128 0x3a
 3973 029b 0B       		.uleb128 0xb
 3974 029c 3B       		.uleb128 0x3b
 3975 029d 0B       		.uleb128 0xb
 3976 029e 27       		.uleb128 0x27
 3977 029f 0C       		.uleb128 0xc
 3978 02a0 49       		.uleb128 0x49
 3979 02a1 13       		.uleb128 0x13
 3980 02a2 3C       		.uleb128 0x3c
 3981 02a3 0C       		.uleb128 0xc
 3982 02a4 00       		.byte	0
 3983 02a5 00       		.byte	0
 3984 02a6 32       		.uleb128 0x32
 3985 02a7 2E       		.uleb128 0x2e
 3986 02a8 01       		.byte	0x1
 3987 02a9 3F       		.uleb128 0x3f
 3988 02aa 0C       		.uleb128 0xc
 3989 02ab 03       		.uleb128 0x3
 3990 02ac 0E       		.uleb128 0xe
 3991 02ad 3A       		.uleb128 0x3a
 3992 02ae 0B       		.uleb128 0xb
 3993 02af 3B       		.uleb128 0x3b
 3994 02b0 05       		.uleb128 0x5
 3995 02b1 27       		.uleb128 0x27
 3996 02b2 0C       		.uleb128 0xc
 3997 02b3 49       		.uleb128 0x49
 3998 02b4 13       		.uleb128 0x13
 3999 02b5 3C       		.uleb128 0x3c
 4000 02b6 0C       		.uleb128 0xc
 4001 02b7 01       		.uleb128 0x1
 4002 02b8 13       		.uleb128 0x13
 4003 02b9 00       		.byte	0
 4004 02ba 00       		.byte	0
 4005 02bb 33       		.uleb128 0x33
 4006 02bc 2E       		.uleb128 0x2e
 4007 02bd 00       		.byte	0
 4008 02be 3F       		.uleb128 0x3f
 4009 02bf 0C       		.uleb128 0xc
 4010 02c0 03       		.uleb128 0x3
 4011 02c1 0E       		.uleb128 0xe
 4012 02c2 3A       		.uleb128 0x3a
 4013 02c3 0B       		.uleb128 0xb
 4014 02c4 3B       		.uleb128 0x3b
 4015 02c5 0B       		.uleb128 0xb
 4016 02c6 27       		.uleb128 0x27
 4017 02c7 0C       		.uleb128 0xc
 4018 02c8 3C       		.uleb128 0x3c
 4019 02c9 0C       		.uleb128 0xc
ARM GAS  /tmp/ccr5FXCl.s 			page 72


 4020 02ca 00       		.byte	0
 4021 02cb 00       		.byte	0
 4022 02cc 34       		.uleb128 0x34
 4023 02cd 2E       		.uleb128 0x2e
 4024 02ce 01       		.byte	0x1
 4025 02cf 3F       		.uleb128 0x3f
 4026 02d0 0C       		.uleb128 0xc
 4027 02d1 03       		.uleb128 0x3
 4028 02d2 0E       		.uleb128 0xe
 4029 02d3 3A       		.uleb128 0x3a
 4030 02d4 0B       		.uleb128 0xb
 4031 02d5 3B       		.uleb128 0x3b
 4032 02d6 0B       		.uleb128 0xb
 4033 02d7 27       		.uleb128 0x27
 4034 02d8 0C       		.uleb128 0xc
 4035 02d9 3C       		.uleb128 0x3c
 4036 02da 0C       		.uleb128 0xc
 4037 02db 01       		.uleb128 0x1
 4038 02dc 13       		.uleb128 0x13
 4039 02dd 00       		.byte	0
 4040 02de 00       		.byte	0
 4041 02df 35       		.uleb128 0x35
 4042 02e0 2E       		.uleb128 0x2e
 4043 02e1 01       		.byte	0x1
 4044 02e2 3F       		.uleb128 0x3f
 4045 02e3 0C       		.uleb128 0xc
 4046 02e4 03       		.uleb128 0x3
 4047 02e5 0E       		.uleb128 0xe
 4048 02e6 3A       		.uleb128 0x3a
 4049 02e7 0B       		.uleb128 0xb
 4050 02e8 3B       		.uleb128 0x3b
 4051 02e9 05       		.uleb128 0x5
 4052 02ea 27       		.uleb128 0x27
 4053 02eb 0C       		.uleb128 0xc
 4054 02ec 3C       		.uleb128 0x3c
 4055 02ed 0C       		.uleb128 0xc
 4056 02ee 01       		.uleb128 0x1
 4057 02ef 13       		.uleb128 0x13
 4058 02f0 00       		.byte	0
 4059 02f1 00       		.byte	0
 4060 02f2 36       		.uleb128 0x36
 4061 02f3 2E       		.uleb128 0x2e
 4062 02f4 01       		.byte	0x1
 4063 02f5 3F       		.uleb128 0x3f
 4064 02f6 0C       		.uleb128 0xc
 4065 02f7 03       		.uleb128 0x3
 4066 02f8 0E       		.uleb128 0xe
 4067 02f9 3A       		.uleb128 0x3a
 4068 02fa 0B       		.uleb128 0xb
 4069 02fb 3B       		.uleb128 0x3b
 4070 02fc 0B       		.uleb128 0xb
 4071 02fd 27       		.uleb128 0x27
 4072 02fe 0C       		.uleb128 0xc
 4073 02ff 49       		.uleb128 0x49
 4074 0300 13       		.uleb128 0x13
 4075 0301 3C       		.uleb128 0x3c
 4076 0302 0C       		.uleb128 0xc
ARM GAS  /tmp/ccr5FXCl.s 			page 73


 4077 0303 00       		.byte	0
 4078 0304 00       		.byte	0
 4079 0305 00       		.byte	0
 4080              		.section	.debug_loc,"",%progbits
 4081              	.Ldebug_loc0:
 4082              	.LLST0:
 4083 0000 00000000 		.4byte	.LFB15
 4084 0004 04000000 		.4byte	.LCFI0
 4085 0008 0200     		.2byte	0x2
 4086 000a 7D       		.byte	0x7d
 4087 000b 00       		.sleb128 0
 4088 000c 04000000 		.4byte	.LCFI0
 4089 0010 08000000 		.4byte	.LCFI1
 4090 0014 0200     		.2byte	0x2
 4091 0016 7D       		.byte	0x7d
 4092 0017 18       		.sleb128 24
 4093 0018 08000000 		.4byte	.LCFI1
 4094 001c 54020000 		.4byte	.LFE15
 4095 0020 0300     		.2byte	0x3
 4096 0022 7D       		.byte	0x7d
 4097 0023 C800     		.sleb128 72
 4098 0025 00000000 		.4byte	0
 4099 0029 00000000 		.4byte	0
 4100              	.LLST1:
 4101 002d 14000000 		.4byte	.LVL4
 4102 0031 1C000000 		.4byte	.LVL5
 4103 0035 0100     		.2byte	0x1
 4104 0037 50       		.byte	0x50
 4105 0038 1C000000 		.4byte	.LVL5
 4106 003c 1F000000 		.4byte	.LVL6-1
 4107 0040 0300     		.2byte	0x3
 4108 0042 72       		.byte	0x72
 4109 0043 01       		.sleb128 1
 4110 0044 9F       		.byte	0x9f
 4111 0045 30000000 		.4byte	.LVL7
 4112 0049 38000000 		.4byte	.LVL8
 4113 004d 0100     		.2byte	0x1
 4114 004f 50       		.byte	0x50
 4115 0050 38000000 		.4byte	.LVL8
 4116 0054 3B000000 		.4byte	.LVL9-1
 4117 0058 0300     		.2byte	0x3
 4118 005a 73       		.byte	0x73
 4119 005b 04       		.sleb128 4
 4120 005c 9F       		.byte	0x9f
 4121 005d 48000000 		.4byte	.LVL10
 4122 0061 52000000 		.4byte	.LVL11
 4123 0065 0100     		.2byte	0x1
 4124 0067 50       		.byte	0x50
 4125 0068 90000000 		.4byte	.LVL18
 4126 006c 96000000 		.4byte	.LVL19
 4127 0070 0100     		.2byte	0x1
 4128 0072 50       		.byte	0x50
 4129 0073 96000000 		.4byte	.LVL19
 4130 0077 BC000000 		.4byte	.LVL22
 4131 007b 0100     		.2byte	0x1
 4132 007d 59       		.byte	0x59
 4133 007e BC000000 		.4byte	.LVL22
ARM GAS  /tmp/ccr5FXCl.s 			page 74


 4134 0082 C6000000 		.4byte	.LVL23
 4135 0086 0100     		.2byte	0x1
 4136 0088 50       		.byte	0x50
 4137 0089 E0000000 		.4byte	.LVL27
 4138 008d EE000000 		.4byte	.LVL28
 4139 0091 0100     		.2byte	0x1
 4140 0093 50       		.byte	0x50
 4141 0094 EE000000 		.4byte	.LVL28
 4142 0098 F1000000 		.4byte	.LVL29-1
 4143 009c 0300     		.2byte	0x3
 4144 009e 7E       		.byte	0x7e
 4145 009f 05       		.sleb128 5
 4146 00a0 9F       		.byte	0x9f
 4147 00a1 FE000000 		.4byte	.LVL30
 4148 00a5 08010000 		.4byte	.LVL31
 4149 00a9 0100     		.2byte	0x1
 4150 00ab 50       		.byte	0x50
 4151 00ac 3A010000 		.4byte	.LVL38
 4152 00b0 40010000 		.4byte	.LVL39
 4153 00b4 0100     		.2byte	0x1
 4154 00b6 50       		.byte	0x50
 4155 00b7 40010000 		.4byte	.LVL39
 4156 00bb 66010000 		.4byte	.LVL42
 4157 00bf 0100     		.2byte	0x1
 4158 00c1 59       		.byte	0x59
 4159 00c2 66010000 		.4byte	.LVL42
 4160 00c6 70010000 		.4byte	.LVL43
 4161 00ca 0100     		.2byte	0x1
 4162 00cc 50       		.byte	0x50
 4163 00cd DE010000 		.4byte	.LVL55
 4164 00d1 E8010000 		.4byte	.LVL56
 4165 00d5 0100     		.2byte	0x1
 4166 00d7 50       		.byte	0x50
 4167 00d8 00000000 		.4byte	0
 4168 00dc 00000000 		.4byte	0
 4169              	.LLST2:
 4170 00e0 78000000 		.4byte	.LVL14
 4171 00e4 8E000000 		.4byte	.LVL17
 4172 00e8 0300     		.2byte	0x3
 4173 00ea 74       		.byte	0x74
 4174 00eb 32       		.sleb128 50
 4175 00ec 9F       		.byte	0x9f
 4176 00ed 8E000000 		.4byte	.LVL17
 4177 00f1 99000000 		.4byte	.LVL20-1
 4178 00f5 0100     		.2byte	0x1
 4179 00f7 51       		.byte	0x51
 4180 00f8 99000000 		.4byte	.LVL20-1
 4181 00fc 38010000 		.4byte	.LVL37
 4182 0100 0300     		.2byte	0x3
 4183 0102 74       		.byte	0x74
 4184 0103 32       		.sleb128 50
 4185 0104 9F       		.byte	0x9f
 4186 0105 38010000 		.4byte	.LVL37
 4187 0109 43010000 		.4byte	.LVL40-1
 4188 010d 0100     		.2byte	0x1
 4189 010f 51       		.byte	0x51
 4190 0110 43010000 		.4byte	.LVL40-1
ARM GAS  /tmp/ccr5FXCl.s 			page 75


 4191 0114 80010000 		.4byte	.LVL45
 4192 0118 0300     		.2byte	0x3
 4193 011a 74       		.byte	0x74
 4194 011b 32       		.sleb128 50
 4195 011c 9F       		.byte	0x9f
 4196 011d B6010000 		.4byte	.LVL50
 4197 0121 C6010000 		.4byte	.LVL53
 4198 0125 0300     		.2byte	0x3
 4199 0127 75       		.byte	0x75
 4200 0128 32       		.sleb128 50
 4201 0129 9F       		.byte	0x9f
 4202 012a C6010000 		.4byte	.LVL53
 4203 012e CF010000 		.4byte	.LVL54-1
 4204 0132 0100     		.2byte	0x1
 4205 0134 51       		.byte	0x51
 4206 0135 CF010000 		.4byte	.LVL54-1
 4207 0139 54020000 		.4byte	.LFE15
 4208 013d 0300     		.2byte	0x3
 4209 013f 75       		.byte	0x75
 4210 0140 32       		.sleb128 50
 4211 0141 9F       		.byte	0x9f
 4212 0142 00000000 		.4byte	0
 4213 0146 00000000 		.4byte	0
 4214              	.LLST3:
 4215 014a 00000000 		.4byte	.LFB14
 4216 014e 06000000 		.4byte	.LCFI2
 4217 0152 0200     		.2byte	0x2
 4218 0154 7D       		.byte	0x7d
 4219 0155 00       		.sleb128 0
 4220 0156 06000000 		.4byte	.LCFI2
 4221 015a 28000000 		.4byte	.LFE14
 4222 015e 0200     		.2byte	0x2
 4223 0160 7D       		.byte	0x7d
 4224 0161 08       		.sleb128 8
 4225 0162 00000000 		.4byte	0
 4226 0166 00000000 		.4byte	0
 4227              	.LLST4:
 4228 016a 00000000 		.4byte	.LVL63
 4229 016e 04000000 		.4byte	.LVL64
 4230 0172 0100     		.2byte	0x1
 4231 0174 50       		.byte	0x50
 4232 0175 04000000 		.4byte	.LVL64
 4233 0179 28000000 		.4byte	.LFE14
 4234 017d 0400     		.2byte	0x4
 4235 017f F3       		.byte	0xf3
 4236 0180 01       		.uleb128 0x1
 4237 0181 50       		.byte	0x50
 4238 0182 9F       		.byte	0x9f
 4239 0183 00000000 		.4byte	0
 4240 0187 00000000 		.4byte	0
 4241              	.LLST5:
 4242 018b 00000000 		.4byte	.LFB13
 4243 018f 02000000 		.4byte	.LCFI3
 4244 0193 0200     		.2byte	0x2
 4245 0195 7D       		.byte	0x7d
 4246 0196 00       		.sleb128 0
 4247 0197 02000000 		.4byte	.LCFI3
ARM GAS  /tmp/ccr5FXCl.s 			page 76


 4248 019b 16000000 		.4byte	.LFE13
 4249 019f 0200     		.2byte	0x2
 4250 01a1 7D       		.byte	0x7d
 4251 01a2 08       		.sleb128 8
 4252 01a3 00000000 		.4byte	0
 4253 01a7 00000000 		.4byte	0
 4254              	.LLST6:
 4255 01ab 00000000 		.4byte	.LVL68
 4256 01af 06000000 		.4byte	.LVL69
 4257 01b3 0100     		.2byte	0x1
 4258 01b5 50       		.byte	0x50
 4259 01b6 06000000 		.4byte	.LVL69
 4260 01ba 16000000 		.4byte	.LFE13
 4261 01be 0100     		.2byte	0x1
 4262 01c0 54       		.byte	0x54
 4263 01c1 00000000 		.4byte	0
 4264 01c5 00000000 		.4byte	0
 4265              	.LLST7:
 4266 01c9 00000000 		.4byte	.LFB11
 4267 01cd 02000000 		.4byte	.LCFI4
 4268 01d1 0200     		.2byte	0x2
 4269 01d3 7D       		.byte	0x7d
 4270 01d4 00       		.sleb128 0
 4271 01d5 02000000 		.4byte	.LCFI4
 4272 01d9 06000000 		.4byte	.LCFI5
 4273 01dd 0200     		.2byte	0x2
 4274 01df 7D       		.byte	0x7d
 4275 01e0 08       		.sleb128 8
 4276 01e1 06000000 		.4byte	.LCFI5
 4277 01e5 88000000 		.4byte	.LFE11
 4278 01e9 0200     		.2byte	0x2
 4279 01eb 7D       		.byte	0x7d
 4280 01ec 28       		.sleb128 40
 4281 01ed 00000000 		.4byte	0
 4282 01f1 00000000 		.4byte	0
 4283              	.LLST8:
 4284 01f5 00000000 		.4byte	.LVL81
 4285 01f9 02000000 		.4byte	.LVL82
 4286 01fd 0100     		.2byte	0x1
 4287 01ff 50       		.byte	0x50
 4288 0200 02000000 		.4byte	.LVL82
 4289 0204 06000000 		.4byte	.LFE10
 4290 0208 0400     		.2byte	0x4
 4291 020a F3       		.byte	0xf3
 4292 020b 01       		.uleb128 0x1
 4293 020c 50       		.byte	0x50
 4294 020d 9F       		.byte	0x9f
 4295 020e 00000000 		.4byte	0
 4296 0212 00000000 		.4byte	0
 4297              	.LLST9:
 4298 0216 00000000 		.4byte	.LVL84
 4299 021a 02000000 		.4byte	.LVL85
 4300 021e 0100     		.2byte	0x1
 4301 0220 50       		.byte	0x50
 4302 0221 02000000 		.4byte	.LVL85
 4303 0225 06000000 		.4byte	.LFE9
 4304 0229 0400     		.2byte	0x4
ARM GAS  /tmp/ccr5FXCl.s 			page 77


 4305 022b F3       		.byte	0xf3
 4306 022c 01       		.uleb128 0x1
 4307 022d 50       		.byte	0x50
 4308 022e 9F       		.byte	0x9f
 4309 022f 00000000 		.4byte	0
 4310 0233 00000000 		.4byte	0
 4311              	.LLST10:
 4312 0237 00000000 		.4byte	.LVL87
 4313 023b 02000000 		.4byte	.LVL88
 4314 023f 0100     		.2byte	0x1
 4315 0241 50       		.byte	0x50
 4316 0242 02000000 		.4byte	.LVL88
 4317 0246 06000000 		.4byte	.LFE8
 4318 024a 0400     		.2byte	0x4
 4319 024c F3       		.byte	0xf3
 4320 024d 01       		.uleb128 0x1
 4321 024e 50       		.byte	0x50
 4322 024f 9F       		.byte	0x9f
 4323 0250 00000000 		.4byte	0
 4324 0254 00000000 		.4byte	0
 4325              	.LLST11:
 4326 0258 00000000 		.4byte	.LFB17
 4327 025c 02000000 		.4byte	.LCFI6
 4328 0260 0200     		.2byte	0x2
 4329 0262 7D       		.byte	0x7d
 4330 0263 00       		.sleb128 0
 4331 0264 02000000 		.4byte	.LCFI6
 4332 0268 AA000000 		.4byte	.LFE17
 4333 026c 0200     		.2byte	0x2
 4334 026e 7D       		.byte	0x7d
 4335 026f 08       		.sleb128 8
 4336 0270 00000000 		.4byte	0
 4337 0274 00000000 		.4byte	0
 4338              	.LLST12:
 4339 0278 0C000000 		.4byte	.LVL90
 4340 027c 16000000 		.4byte	.LVL91
 4341 0280 0100     		.2byte	0x1
 4342 0282 50       		.byte	0x50
 4343 0283 28000000 		.4byte	.LVL93
 4344 0287 32000000 		.4byte	.LVL94
 4345 028b 0100     		.2byte	0x1
 4346 028d 50       		.byte	0x50
 4347 028e 44000000 		.4byte	.LVL96
 4348 0292 4E000000 		.4byte	.LVL97
 4349 0296 0100     		.2byte	0x1
 4350 0298 50       		.byte	0x50
 4351 0299 00000000 		.4byte	0
 4352 029d 00000000 		.4byte	0
 4353              	.LLST13:
 4354 02a1 60000000 		.4byte	.LVL99
 4355 02a5 6A000000 		.4byte	.LVL100
 4356 02a9 0100     		.2byte	0x1
 4357 02ab 50       		.byte	0x50
 4358 02ac 7C000000 		.4byte	.LVL102
 4359 02b0 86000000 		.4byte	.LVL103
 4360 02b4 0100     		.2byte	0x1
 4361 02b6 50       		.byte	0x50
ARM GAS  /tmp/ccr5FXCl.s 			page 78


 4362 02b7 98000000 		.4byte	.LVL105
 4363 02bb A2000000 		.4byte	.LVL106
 4364 02bf 0100     		.2byte	0x1
 4365 02c1 50       		.byte	0x50
 4366 02c2 00000000 		.4byte	0
 4367 02c6 00000000 		.4byte	0
 4368              		.section	.debug_aranges,"",%progbits
 4369 0000 6C000000 		.4byte	0x6c
 4370 0004 0200     		.2byte	0x2
 4371 0006 00000000 		.4byte	.Ldebug_info0
 4372 000a 04       		.byte	0x4
 4373 000b 00       		.byte	0
 4374 000c 0000     		.2byte	0
 4375 000e 0000     		.2byte	0
 4376 0010 00000000 		.4byte	.LFB16
 4377 0014 08000000 		.4byte	.LFE16-.LFB16
 4378 0018 00000000 		.4byte	.LFB12
 4379 001c 08000000 		.4byte	.LFE12-.LFB12
 4380 0020 00000000 		.4byte	.LFB7
 4381 0024 08000000 		.4byte	.LFE7-.LFB7
 4382 0028 00000000 		.4byte	.LFB15
 4383 002c 54020000 		.4byte	.LFE15-.LFB15
 4384 0030 00000000 		.4byte	.LFB14
 4385 0034 28000000 		.4byte	.LFE14-.LFB14
 4386 0038 00000000 		.4byte	.LFB13
 4387 003c 16000000 		.4byte	.LFE13-.LFB13
 4388 0040 00000000 		.4byte	.LFB11
 4389 0044 88000000 		.4byte	.LFE11-.LFB11
 4390 0048 00000000 		.4byte	.LFB10
 4391 004c 06000000 		.4byte	.LFE10-.LFB10
 4392 0050 00000000 		.4byte	.LFB9
 4393 0054 06000000 		.4byte	.LFE9-.LFB9
 4394 0058 00000000 		.4byte	.LFB8
 4395 005c 06000000 		.4byte	.LFE8-.LFB8
 4396 0060 00000000 		.4byte	.LFB17
 4397 0064 AA000000 		.4byte	.LFE17-.LFB17
 4398 0068 00000000 		.4byte	0
 4399 006c 00000000 		.4byte	0
 4400              		.section	.debug_ranges,"",%progbits
 4401              	.Ldebug_ranges0:
 4402 0000 56000000 		.4byte	.LBB4
 4403 0004 A2000000 		.4byte	.LBE4
 4404 0008 A6000000 		.4byte	.LBB7
 4405 000c AA000000 		.4byte	.LBE7
 4406 0010 00000000 		.4byte	0
 4407 0014 00000000 		.4byte	0
 4408 0018 56000000 		.4byte	.LBB5
 4409 001c A2000000 		.4byte	.LBE5
 4410 0020 A6000000 		.4byte	.LBB6
 4411 0024 AA000000 		.4byte	.LBE6
 4412 0028 00000000 		.4byte	0
 4413 002c 00000000 		.4byte	0
 4414 0030 00000000 		.4byte	.LFB16
 4415 0034 08000000 		.4byte	.LFE16
 4416 0038 00000000 		.4byte	.LFB12
 4417 003c 08000000 		.4byte	.LFE12
 4418 0040 00000000 		.4byte	.LFB7
ARM GAS  /tmp/ccr5FXCl.s 			page 79


 4419 0044 08000000 		.4byte	.LFE7
 4420 0048 00000000 		.4byte	.LFB15
 4421 004c 54020000 		.4byte	.LFE15
 4422 0050 00000000 		.4byte	.LFB14
 4423 0054 28000000 		.4byte	.LFE14
 4424 0058 00000000 		.4byte	.LFB13
 4425 005c 16000000 		.4byte	.LFE13
 4426 0060 00000000 		.4byte	.LFB11
 4427 0064 88000000 		.4byte	.LFE11
 4428 0068 00000000 		.4byte	.LFB10
 4429 006c 06000000 		.4byte	.LFE10
 4430 0070 00000000 		.4byte	.LFB9
 4431 0074 06000000 		.4byte	.LFE9
 4432 0078 00000000 		.4byte	.LFB8
 4433 007c 06000000 		.4byte	.LFE8
 4434 0080 00000000 		.4byte	.LFB17
 4435 0084 AA000000 		.4byte	.LFE17
 4436 0088 00000000 		.4byte	0
 4437 008c 00000000 		.4byte	0
 4438              		.section	.debug_line,"",%progbits
 4439              	.Ldebug_line0:
 4440 0000 E3020000 		.section	.debug_str,"MS",%progbits,1
 4440      0200AF01 
 4440      00000201 
 4440      FB0E0D00 
 4440      01010101 
 4441              	.LASF84:
 4442 0000 7466756E 		.ascii	"tfunc_t\000"
 4442      635F7400 
 4443              	.LASF91:
 4444 0008 65767432 		.ascii	"evt2_setup\000"
 4444      5F736574 
 4444      757000
 4445              	.LASF40:
 4446 0013 705F6D73 		.ascii	"p_msg\000"
 4446      6700
 4447              	.LASF2:
 4448 0019 73697A65 		.ascii	"size_t\000"
 4448      5F7400
 4449              	.LASF79:
 4450 0020 7264796D 		.ascii	"rdymsg\000"
 4450      736700
 4451              	.LASF99:
 4452 0027 76746C69 		.ascii	"vtlist\000"
 4452      737400
 4453              	.LASF118:
 4454 002e 63684576 		.ascii	"chEvtSignal\000"
 4454      74536967 
 4454      6E616C00 
 4455              	.LASF12:
 4456 003a 6C6F6E67 		.ascii	"long long unsigned int\000"
 4456      206C6F6E 
 4456      6720756E 
 4456      7369676E 
 4456      65642069 
 4457              	.LASF107:
 4458 0051 63684576 		.ascii	"chEvtAddEvents\000"
ARM GAS  /tmp/ccr5FXCl.s 			page 80


 4458      74416464 
 4458      4576656E 
 4458      747300
 4459              	.LASF80:
 4460 0060 65786974 		.ascii	"exitcode\000"
 4460      636F6465 
 4460      00
 4461              	.LASF123:
 4462 0069 63684576 		.ascii	"chEvtWaitAnyTimeout\000"
 4462      74576169 
 4462      74416E79 
 4462      54696D65 
 4462      6F757400 
 4463              	.LASF28:
 4464 007d 705F7072 		.ascii	"p_prio\000"
 4464      696F00
 4465              	.LASF93:
 4466 0084 65767432 		.ascii	"evt2_execute\000"
 4466      5F657865 
 4466      63757465 
 4466      00
 4467              	.LASF11:
 4468 0091 6C6F6E67 		.ascii	"long long int\000"
 4468      206C6F6E 
 4468      6720696E 
 4468      7400
 4469              	.LASF1:
 4470 009f 7369676E 		.ascii	"signed char\000"
 4470      65642063 
 4470      68617200 
 4471              	.LASF124:
 4472 00ab 63684576 		.ascii	"chEvtWaitAllTimeout\000"
 4472      74576169 
 4472      74416C6C 
 4472      54696D65 
 4472      6F757400 
 4473              	.LASF44:
 4474 00bf 705F6D70 		.ascii	"p_mpool\000"
 4474      6F6F6C00 
 4475              	.LASF13:
 4476 00c7 626F6F6C 		.ascii	"bool_t\000"
 4476      5F7400
 4477              	.LASF68:
 4478 00ce 6D5F7175 		.ascii	"m_queue\000"
 4478      65756500 
 4479              	.LASF121:
 4480 00d6 74657374 		.ascii	"test_emit_token\000"
 4480      5F656D69 
 4480      745F746F 
 4480      6B656E00 
 4481              	.LASF18:
 4482 00e6 74736C69 		.ascii	"tslices_t\000"
 4482      6365735F 
 4482      7400
 4483              	.LASF8:
 4484 00f0 6C6F6E67 		.ascii	"long int\000"
 4484      20696E74 
ARM GAS  /tmp/ccr5FXCl.s 			page 81


 4484      00
 4485              	.LASF94:
 4486 00f9 74617267 		.ascii	"target_time\000"
 4486      65745F74 
 4486      696D6500 
 4487              	.LASF16:
 4488 0105 74737461 		.ascii	"tstate_t\000"
 4488      74655F74 
 4488      00
 4489              	.LASF111:
 4490 010e 5F746573 		.ascii	"_test_assert_time_window\000"
 4490      745F6173 
 4490      73657274 
 4490      5F74696D 
 4490      655F7769 
 4491              	.LASF103:
 4492 0127 74657374 		.ascii	"testevt2\000"
 4492      65767432 
 4492      00
 4493              	.LASF112:
 4494 0130 63684576 		.ascii	"chEvtWaitAny\000"
 4494      74576169 
 4494      74416E79 
 4494      00
 4495              	.LASF104:
 4496 013d 74657374 		.ascii	"testevt3\000"
 4496      65767433 
 4496      00
 4497              	.LASF30:
 4498 0146 705F6E65 		.ascii	"p_newer\000"
 4498      77657200 
 4499              	.LASF63:
 4500 014e 725F6E65 		.ascii	"r_newer\000"
 4500      77657200 
 4501              	.LASF47:
 4502 0156 72656761 		.ascii	"regarm_t\000"
 4502      726D5F74 
 4502      00
 4503              	.LASF54:
 4504 015f 76745F70 		.ascii	"vt_prev\000"
 4504      72657600 
 4505              	.LASF116:
 4506 0167 63684576 		.ascii	"chEvtBroadcastFlags\000"
 4506      7442726F 
 4506      61646361 
 4506      7374466C 
 4506      61677300 
 4507              	.LASF21:
 4508 017b 6576656E 		.ascii	"eventid_t\000"
 4508      7469645F 
 4508      7400
 4509              	.LASF76:
 4510 0185 4576656E 		.ascii	"EventSource\000"
 4510      74536F75 
 4510      72636500 
 4511              	.LASF78:
 4512 0191 65766861 		.ascii	"evhandler_t\000"
ARM GAS  /tmp/ccr5FXCl.s 			page 82


 4512      6E646C65 
 4512      725F7400 
 4513              	.LASF0:
 4514 019d 756E7369 		.ascii	"unsigned int\000"
 4514      676E6564 
 4514      20696E74 
 4514      00
 4515              	.LASF53:
 4516 01aa 76745F6E 		.ascii	"vt_next\000"
 4516      65787400 
 4517              	.LASF10:
 4518 01b2 6C6F6E67 		.ascii	"long unsigned int\000"
 4518      20756E73 
 4518      69676E65 
 4518      6420696E 
 4518      7400
 4519              	.LASF106:
 4520 01c4 63684576 		.ascii	"chEvtGetAndClearEvents\000"
 4520      74476574 
 4520      416E6443 
 4520      6C656172 
 4520      4576656E 
 4521              	.LASF88:
 4522 01db 74656172 		.ascii	"teardown\000"
 4522      646F776E 
 4522      00
 4523              	.LASF105:
 4524 01e4 70617474 		.ascii	"patternevt\000"
 4524      65726E65 
 4524      767400
 4525              	.LASF86:
 4526 01ef 6E616D65 		.ascii	"name\000"
 4526      00
 4527              	.LASF49:
 4528 01f4 636F6E74 		.ascii	"context\000"
 4528      65787400 
 4529              	.LASF6:
 4530 01fc 73686F72 		.ascii	"short unsigned int\000"
 4530      7420756E 
 4530      7369676E 
 4530      65642069 
 4530      6E7400
 4531              	.LASF114:
 4532 020f 63684576 		.ascii	"chEvtRegisterMask\000"
 4532      74526567 
 4532      69737465 
 4532      724D6173 
 4532      6B00
 4533              	.LASF20:
 4534 0221 6D73675F 		.ascii	"msg_t\000"
 4534      7400
 4535              	.LASF72:
 4536 0227 656C5F6E 		.ascii	"el_next\000"
 4536      65787400 
 4537              	.LASF115:
 4538 022f 63684576 		.ascii	"chEvtUnregister\000"
 4538      74556E72 
ARM GAS  /tmp/ccr5FXCl.s 			page 83


 4538      65676973 
 4538      74657200 
 4539              	.LASF15:
 4540 023f 746D6F64 		.ascii	"tmode_t\000"
 4540      655F7400 
 4541              	.LASF46:
 4542 0247 54687265 		.ascii	"ThreadsList\000"
 4542      6164734C 
 4542      69737400 
 4543              	.LASF22:
 4544 0253 6576656E 		.ascii	"eventmask_t\000"
 4544      746D6173 
 4544      6B5F7400 
 4545              	.LASF67:
 4546 025f 4D757465 		.ascii	"Mutex\000"
 4546      7800
 4547              	.LASF110:
 4548 0265 63685468 		.ascii	"chThdCreateStatic\000"
 4548      64437265 
 4548      61746553 
 4548      74617469 
 4548      6300
 4549              	.LASF126:
 4550 0277 2F686F6D 		.ascii	"/home/felix/Documents/ChibiOS/test/testevt.c\000"
 4550      652F6665 
 4550      6C69782F 
 4550      446F6375 
 4550      6D656E74 
 4551              	.LASF55:
 4552 02a4 76745F74 		.ascii	"vt_time\000"
 4552      696D6500 
 4553              	.LASF92:
 4554 02ac 65767431 		.ascii	"evt1_setup\000"
 4554      5F736574 
 4554      757000
 4555              	.LASF50:
 4556 02b7 73697A65 		.ascii	"sizetype\000"
 4556      74797065 
 4556      00
 4557              	.LASF56:
 4558 02c0 76745F66 		.ascii	"vt_func\000"
 4558      756E6300 
 4559              	.LASF119:
 4560 02c8 63684576 		.ascii	"chEvtDispatch\000"
 4560      74446973 
 4560      70617463 
 4560      6800
 4561              	.LASF90:
 4562 02d6 65767433 		.ascii	"evt3_setup\000"
 4562      5F736574 
 4562      757000
 4563              	.LASF129:
 4564 02e1 74657374 		.ascii	"test_wait_threads\000"
 4564      5F776169 
 4564      745F7468 
 4564      72656164 
 4564      7300
ARM GAS  /tmp/ccr5FXCl.s 			page 84


 4565              	.LASF31:
 4566 02f3 705F6F6C 		.ascii	"p_older\000"
 4566      64657200 
 4567              	.LASF96:
 4568 02fb 74687265 		.ascii	"thread1\000"
 4568      61643100 
 4569              	.LASF95:
 4570 0303 74687265 		.ascii	"thread2\000"
 4570      61643200 
 4571              	.LASF62:
 4572 030b 725F6374 		.ascii	"r_ctx\000"
 4572      7800
 4573              	.LASF45:
 4574 0311 54687265 		.ascii	"ThreadsQueue\000"
 4574      61647351 
 4574      75657565 
 4574      00
 4575              	.LASF87:
 4576 031e 73657475 		.ascii	"setup\000"
 4576      7000
 4577              	.LASF120:
 4578 0324 5F746573 		.ascii	"_test_assert_sequence\000"
 4578      745F6173 
 4578      73657274 
 4578      5F736571 
 4578      75656E63 
 4579              	.LASF113:
 4580 033a 63684576 		.ascii	"chEvtWaitAll\000"
 4580      74576169 
 4580      74416C6C 
 4580      00
 4581              	.LASF65:
 4582 0347 725F6375 		.ascii	"r_current\000"
 4582      7272656E 
 4582      7400
 4583              	.LASF64:
 4584 0351 725F6F6C 		.ascii	"r_older\000"
 4584      64657200 
 4585              	.LASF74:
 4586 0359 656C5F6D 		.ascii	"el_mask\000"
 4586      61736B00 
 4587              	.LASF17:
 4588 0361 74726566 		.ascii	"trefs_t\000"
 4588      735F7400 
 4589              	.LASF27:
 4590 0369 705F7072 		.ascii	"p_prev\000"
 4590      657600
 4591              	.LASF89:
 4592 0370 65786563 		.ascii	"execute\000"
 4592      75746500 
 4593              	.LASF19:
 4594 0378 74707269 		.ascii	"tprio_t\000"
 4594      6F5F7400 
 4595              	.LASF14:
 4596 0380 5F426F6F 		.ascii	"_Bool\000"
 4596      6C00
 4597              	.LASF7:
ARM GAS  /tmp/ccr5FXCl.s 			page 85


 4598 0386 696E7433 		.ascii	"int32_t\000"
 4598      325F7400 
 4599              	.LASF4:
 4600 038e 756E7369 		.ascii	"unsigned char\000"
 4600      676E6564 
 4600      20636861 
 4600      7200
 4601              	.LASF108:
 4602 039c 63684576 		.ascii	"chEvtWaitOne\000"
 4602      74576169 
 4602      744F6E65 
 4602      00
 4603              	.LASF73:
 4604 03a9 656C5F6C 		.ascii	"el_listener\000"
 4604      69737465 
 4604      6E657200 
 4605              	.LASF127:
 4606 03b5 65767433 		.ascii	"evt3_execute\000"
 4606      5F657865 
 4606      63757465 
 4606      00
 4607              	.LASF75:
 4608 03c2 656C5F66 		.ascii	"el_flags\000"
 4608      6C616773 
 4608      00
 4609              	.LASF42:
 4610 03cb 705F6D74 		.ascii	"p_mtxlist\000"
 4610      786C6973 
 4610      7400
 4611              	.LASF5:
 4612 03d5 73686F72 		.ascii	"short int\000"
 4612      7420696E 
 4612      7400
 4613              	.LASF33:
 4614 03df 705F7374 		.ascii	"p_state\000"
 4614      61746500 
 4615              	.LASF36:
 4616 03e7 705F7072 		.ascii	"p_preempt\000"
 4616      65656D70 
 4616      7400
 4617              	.LASF101:
 4618 03f1 74687265 		.ascii	"threads\000"
 4618      61647300 
 4619              	.LASF61:
 4620 03f9 725F7072 		.ascii	"r_prio\000"
 4620      696F00
 4621              	.LASF82:
 4622 0400 65776D61 		.ascii	"ewmask\000"
 4622      736B00
 4623              	.LASF26:
 4624 0407 705F6E65 		.ascii	"p_next\000"
 4624      787400
 4625              	.LASF34:
 4626 040e 705F666C 		.ascii	"p_flags\000"
 4626      61677300 
 4627              	.LASF25:
 4628 0416 54687265 		.ascii	"Thread\000"
ARM GAS  /tmp/ccr5FXCl.s 			page 86


 4628      616400
 4629              	.LASF85:
 4630 041d 74657374 		.ascii	"testcase\000"
 4630      63617365 
 4630      00
 4631              	.LASF41:
 4632 0426 705F6570 		.ascii	"p_epending\000"
 4632      656E6469 
 4632      6E6700
 4633              	.LASF102:
 4634 0431 74657374 		.ascii	"testevt1\000"
 4634      65767431 
 4634      00
 4635              	.LASF98:
 4636 043a 6576686E 		.ascii	"evhndl\000"
 4636      646C00
 4637              	.LASF9:
 4638 0441 75696E74 		.ascii	"uint32_t\000"
 4638      33325F74 
 4638      00
 4639              	.LASF60:
 4640 044a 725F7175 		.ascii	"r_queue\000"
 4640      65756500 
 4641              	.LASF52:
 4642 0452 56697274 		.ascii	"VirtualTimer\000"
 4642      75616C54 
 4642      696D6572 
 4642      00
 4643              	.LASF83:
 4644 045f 63686172 		.ascii	"char\000"
 4644      00
 4645              	.LASF70:
 4646 0464 6D5F6E65 		.ascii	"m_next\000"
 4646      787400
 4647              	.LASF24:
 4648 046b 73797374 		.ascii	"systime_t\000"
 4648      696D655F 
 4648      7400
 4649              	.LASF43:
 4650 0475 705F7265 		.ascii	"p_realprio\000"
 4650      616C7072 
 4650      696F00
 4651              	.LASF51:
 4652 0480 76746675 		.ascii	"vtfunc_t\000"
 4652      6E635F74 
 4652      00
 4653              	.LASF37:
 4654 0489 705F7469 		.ascii	"p_time\000"
 4654      6D6500
 4655              	.LASF48:
 4656 0490 696E7463 		.ascii	"intctx\000"
 4656      747800
 4657              	.LASF39:
 4658 0497 705F6D73 		.ascii	"p_msgqueue\000"
 4658      67717565 
 4658      756500
 4659              	.LASF57:
ARM GAS  /tmp/ccr5FXCl.s 			page 87


 4660 04a2 76745F70 		.ascii	"vt_par\000"
 4660      617200
 4661              	.LASF23:
 4662 04a9 666C6167 		.ascii	"flagsmask_t\000"
 4662      736D6173 
 4662      6B5F7400 
 4663              	.LASF117:
 4664 04b5 63685468 		.ascii	"chThdSleep\000"
 4664      64536C65 
 4664      657000
 4665              	.LASF35:
 4666 04c0 705F7265 		.ascii	"p_refs\000"
 4666      667300
 4667              	.LASF66:
 4668 04c7 52656164 		.ascii	"ReadyList\000"
 4668      794C6973 
 4668      7400
 4669              	.LASF100:
 4670 04d1 726C6973 		.ascii	"rlist\000"
 4670      7400
 4671              	.LASF3:
 4672 04d7 75696E74 		.ascii	"uint8_t\000"
 4672      385F7400 
 4673              	.LASF125:
 4674 04df 474E5520 		.ascii	"GNU C 4.7.3 20121205 (prerelease)\000"
 4674      4320342E 
 4674      372E3320 
 4674      32303132 
 4674      31323035 
 4675              	.LASF71:
 4676 0501 4576656E 		.ascii	"EventListener\000"
 4676      744C6973 
 4676      74656E65 
 4676      7200
 4677              	.LASF122:
 4678 050f 63684576 		.ascii	"chEvtWaitOneTimeout\000"
 4678      74576169 
 4678      744F6E65 
 4678      54696D65 
 4678      6F757400 
 4679              	.LASF81:
 4680 0523 77746F62 		.ascii	"wtobjp\000"
 4680      6A7000
 4681              	.LASF32:
 4682 052a 705F6E61 		.ascii	"p_name\000"
 4682      6D6500
 4683              	.LASF109:
 4684 0531 5F746573 		.ascii	"_test_assert\000"
 4684      745F6173 
 4684      73657274 
 4684      00
 4685              	.LASF58:
 4686 053e 76745F73 		.ascii	"vt_systime\000"
 4686      79737469 
 4686      6D6500
 4687              	.LASF77:
 4688 0549 65735F6E 		.ascii	"es_next\000"
ARM GAS  /tmp/ccr5FXCl.s 			page 88


 4688      65787400 
 4689              	.LASF59:
 4690 0551 56544C69 		.ascii	"VTList\000"
 4690      737400
 4691              	.LASF69:
 4692 0558 6D5F6F77 		.ascii	"m_owner\000"
 4692      6E657200 
 4693              	.LASF128:
 4694 0560 74657374 		.ascii	"test_wait_tick\000"
 4694      5F776169 
 4694      745F7469 
 4694      636B00
 4695              	.LASF97:
 4696 056f 65767431 		.ascii	"evt1_execute\000"
 4696      5F657865 
 4696      63757465 
 4696      00
 4697              	.LASF29:
 4698 057c 705F6374 		.ascii	"p_ctx\000"
 4698      7800
 4699              	.LASF38:
 4700 0582 705F7761 		.ascii	"p_waiting\000"
 4700      6974696E 
 4700      6700
 4701              		.ident	"GCC: (Linaro GCC 4.7-2012.12) 4.7.3 20121205 (prerelease)"
ARM GAS  /tmp/ccr5FXCl.s 			page 89


DEFINED SYMBOLS
                            *ABS*:0000000000000000 testevt.c
     /tmp/ccr5FXCl.s:19     .text.evt3_setup:0000000000000000 $t
     /tmp/ccr5FXCl.s:24     .text.evt3_setup:0000000000000000 evt3_setup
     /tmp/ccr5FXCl.s:42     .text.evt2_setup:0000000000000000 $t
     /tmp/ccr5FXCl.s:47     .text.evt2_setup:0000000000000000 evt2_setup
     /tmp/ccr5FXCl.s:64     .text.evt1_setup:0000000000000000 $t
     /tmp/ccr5FXCl.s:69     .text.evt1_setup:0000000000000000 evt1_setup
     /tmp/ccr5FXCl.s:86     .text.evt2_execute:0000000000000000 $t
     /tmp/ccr5FXCl.s:91     .text.evt2_execute:0000000000000000 evt2_execute
     /tmp/ccr5FXCl.s:429    .text.evt2_execute:0000000000000230 $d
     /tmp/ccr5FXCl.s:490    .text.thread1:0000000000000000 thread1
     /tmp/ccr5FXCl.s:447    .text.thread2:0000000000000000 thread2
     /tmp/ccr5FXCl.s:442    .text.thread2:0000000000000000 $t
     /tmp/ccr5FXCl.s:875    .data.es1:0000000000000000 .LANCHOR0
     /tmp/ccr5FXCl.s:882    .data.es2:0000000000000000 .LANCHOR1
     /tmp/ccr5FXCl.s:485    .text.thread1:0000000000000000 $t
     /tmp/ccr5FXCl.s:521    .text.evt1_execute:0000000000000000 $t
     /tmp/ccr5FXCl.s:526    .text.evt1_execute:0000000000000000 evt1_execute
     /tmp/ccr5FXCl.s:616    .text.evt1_execute:000000000000007c $d
     /tmp/ccr5FXCl.s:623    .text.h3:0000000000000000 $t
     /tmp/ccr5FXCl.s:628    .text.h3:0000000000000000 h3
     /tmp/ccr5FXCl.s:645    .text.h2:0000000000000000 $t
     /tmp/ccr5FXCl.s:650    .text.h2:0000000000000000 h2
     /tmp/ccr5FXCl.s:667    .text.h1:0000000000000000 $t
     /tmp/ccr5FXCl.s:672    .text.h1:0000000000000000 h1
     /tmp/ccr5FXCl.s:689    .text.evt3_execute:0000000000000000 $t
     /tmp/ccr5FXCl.s:694    .text.evt3_execute:0000000000000000 evt3_execute
     /tmp/ccr5FXCl.s:817    .rodata.patternevt:0000000000000000 patternevt
     /tmp/ccr5FXCl.s:868    .rodata.testevt3:0000000000000000 testevt3
     /tmp/ccr5FXCl.s:826    .rodata.testevt2:0000000000000000 testevt2
     /tmp/ccr5FXCl.s:850    .rodata.testevt1:0000000000000000 testevt1
     /tmp/ccr5FXCl.s:814    .rodata.patternevt:0000000000000000 $d
     /tmp/ccr5FXCl.s:823    .rodata.testevt2:0000000000000000 $d
     /tmp/ccr5FXCl.s:832    .rodata.str1.4:0000000000000000 $d
     /tmp/ccr5FXCl.s:847    .rodata.testevt1:0000000000000000 $d
     /tmp/ccr5FXCl.s:856    .rodata.evhndl:0000000000000000 $d
     /tmp/ccr5FXCl.s:860    .rodata.evhndl:0000000000000000 evhndl
     /tmp/ccr5FXCl.s:865    .rodata.testevt3:0000000000000000 $d
     /tmp/ccr5FXCl.s:874    .data.es1:0000000000000000 $d
     /tmp/ccr5FXCl.s:878    .data.es1:0000000000000000 es1
     /tmp/ccr5FXCl.s:881    .data.es2:0000000000000000 $d
     /tmp/ccr5FXCl.s:885    .data.es2:0000000000000000 es2
                     .debug_frame:0000000000000010 $d
     /tmp/ccr5FXCl.s:441    .text.evt2_execute:0000000000000254 $t
     /tmp/ccr5FXCl.s:622    .text.evt1_execute:0000000000000088 $t

UNDEFINED SYMBOLS
chEvtGetAndClearEvents
chEvtAddEvents
chEvtWaitOne
_test_assert
test_wait_tick
chThdCreateStatic
_test_assert_time_window
test_wait_threads
chEvtWaitAny
ARM GAS  /tmp/ccr5FXCl.s 			page 90


chEvtRegisterMask
chEvtWaitAll
chEvtUnregister
rlist
vtlist
threads
wa
chEvtBroadcastFlags
chThdSleep
chEvtSignal
chEvtDispatch
_test_assert_sequence
test_emit_token
chEvtWaitOneTimeout
chEvtWaitAnyTimeout
chEvtWaitAllTimeout
