ARM GAS  /tmp/cczr1qYK.s 			page 1


   1              		.syntax unified
   2              		.cpu cortex-m4
   3              		.fpu softvfp
   4              		.eabi_attribute 20, 1
   5              		.eabi_attribute 21, 1
   6              		.eabi_attribute 23, 3
   7              		.eabi_attribute 24, 1
   8              		.eabi_attribute 25, 1
   9              		.eabi_attribute 26, 1
  10              		.eabi_attribute 30, 2
  11              		.eabi_attribute 34, 1
  12              		.eabi_attribute 18, 4
  13              		.thumb
  14              		.file	"testbmk.c"
  15              		.text
  16              	.Ltext0:
  17              		.cfi_sections	.debug_frame
  18              		.section	.text.thread2,"ax",%progbits
  19              		.align	2
  20              		.p2align 4,,15
  21              		.thumb
  22              		.thumb_func
  23              		.type	thread2, %function
  24              	thread2:
  25              	.LFB11:
  26              		.file 1 "/home/felix/Documents/ChibiOS/test/testbmk.c"
  27              		.loc 1 154 0
  28              		.cfi_startproc
  29              		@ args = 0, pretend = 0, frame = 0
  30              		@ frame_needed = 0, uses_anonymous_args = 0
  31              		@ link register save eliminated.
  32              	.LVL0:
  33              		.loc 1 157 0
  34 0000 7047     		bx	lr
  35              		.cfi_endproc
  36              	.LFE11:
  37              		.size	thread2, .-thread2
  38 0002 00BFAFF3 		.section	.text.tmo,"ax",%progbits
  38      0080AFF3 
  38      0080AFF3 
  38      0080
  39              		.align	2
  40              		.p2align 4,,15
  41              		.thumb
  42              		.thumb_func
  43              		.type	tmo, %function
  44              	tmo:
  45              	.LFB23:
  46              		.loc 1 500 0
  47              		.cfi_startproc
  48              		@ args = 0, pretend = 0, frame = 0
  49              		@ frame_needed = 0, uses_anonymous_args = 0
  50              		@ link register save eliminated.
  51              	.LVL1:
  52 0000 7047     		bx	lr
  53              		.cfi_endproc
  54              	.LFE23:
ARM GAS  /tmp/cczr1qYK.s 			page 2


  55              		.size	tmo, .-tmo
  56 0002 00BFAFF3 		.section	.text.bmk13_execute,"ax",%progbits
  56      0080AFF3 
  56      0080AFF3 
  56      0080
  57              		.align	2
  58              		.p2align 4,,15
  59              		.thumb
  60              		.thumb_func
  61              		.type	bmk13_execute, %function
  62              	bmk13_execute:
  63              	.LFB29:
  64              		.loc 1 633 0
  65              		.cfi_startproc
  66              		@ args = 0, pretend = 0, frame = 0
  67              		@ frame_needed = 0, uses_anonymous_args = 0
  68              		.loc 1 635 0
  69 0000 40F20000 		movw	r0, #:lower16:.LC0
  70              		.loc 1 633 0
  71 0004 10B5     		push	{r4, lr}
  72              	.LCFI0:
  73              		.cfi_def_cfa_offset 8
  74              		.cfi_offset 4, -8
  75              		.cfi_offset 14, -4
  76              		.loc 1 635 0
  77 0006 C0F20000 		movt	r0, #:upper16:.LC0
  78              		.loc 1 641 0
  79 000a 40F20004 		movw	r4, #:lower16:.LC1
  80 000e C0F20004 		movt	r4, #:upper16:.LC1
  81              		.loc 1 635 0
  82 0012 FFF7FEFF 		bl	test_print
  83              	.LVL2:
  84              		.loc 1 636 0
  85 0016 4FF4CA70 		mov	r0, #404
  86 001a FFF7FEFF 		bl	test_printn
  87              	.LVL3:
  88              		.loc 1 641 0
  89 001e 2046     		mov	r0, r4
  90 0020 FFF7FEFF 		bl	test_println
  91              	.LVL4:
  92              		.loc 1 642 0
  93 0024 40F20000 		movw	r0, #:lower16:.LC2
  94 0028 C0F20000 		movt	r0, #:upper16:.LC2
  95 002c FFF7FEFF 		bl	test_print
  96              	.LVL5:
  97              		.loc 1 643 0
  98 0030 4820     		movs	r0, #72
  99 0032 FFF7FEFF 		bl	test_printn
 100              	.LVL6:
 101              		.loc 1 644 0
 102 0036 2046     		mov	r0, r4
 103 0038 FFF7FEFF 		bl	test_println
 104              	.LVL7:
 105              		.loc 1 645 0
 106 003c 40F20000 		movw	r0, #:lower16:.LC3
 107 0040 C0F20000 		movt	r0, #:upper16:.LC3
 108 0044 FFF7FEFF 		bl	test_print
ARM GAS  /tmp/cczr1qYK.s 			page 3


 109              	.LVL8:
 110              		.loc 1 646 0
 111 0048 1420     		movs	r0, #20
 112 004a FFF7FEFF 		bl	test_printn
 113              	.LVL9:
 114              		.loc 1 647 0
 115 004e 2046     		mov	r0, r4
 116 0050 FFF7FEFF 		bl	test_println
 117              	.LVL10:
 118              		.loc 1 648 0
 119 0054 40F20000 		movw	r0, #:lower16:.LC4
 120 0058 C0F20000 		movt	r0, #:upper16:.LC4
 121 005c FFF7FEFF 		bl	test_print
 122              	.LVL11:
 123              		.loc 1 649 0
 124 0060 0C20     		movs	r0, #12
 125 0062 FFF7FEFF 		bl	test_printn
 126              	.LVL12:
 127              		.loc 1 650 0
 128 0066 2046     		mov	r0, r4
 129 0068 FFF7FEFF 		bl	test_println
 130              	.LVL13:
 131              		.loc 1 652 0
 132 006c 40F20000 		movw	r0, #:lower16:.LC5
 133 0070 C0F20000 		movt	r0, #:upper16:.LC5
 134 0074 FFF7FEFF 		bl	test_print
 135              	.LVL14:
 136              		.loc 1 653 0
 137 0078 0420     		movs	r0, #4
 138 007a FFF7FEFF 		bl	test_printn
 139              	.LVL15:
 140              		.loc 1 654 0
 141 007e 2046     		mov	r0, r4
 142 0080 FFF7FEFF 		bl	test_println
 143              	.LVL16:
 144              		.loc 1 655 0
 145 0084 40F20000 		movw	r0, #:lower16:.LC6
 146 0088 C0F20000 		movt	r0, #:upper16:.LC6
 147 008c FFF7FEFF 		bl	test_print
 148              	.LVL17:
 149              		.loc 1 656 0
 150 0090 1020     		movs	r0, #16
 151 0092 FFF7FEFF 		bl	test_printn
 152              	.LVL18:
 153              		.loc 1 657 0
 154 0096 2046     		mov	r0, r4
 155 0098 FFF7FEFF 		bl	test_println
 156              	.LVL19:
 157              		.loc 1 660 0
 158 009c 40F20000 		movw	r0, #:lower16:.LC7
 159 00a0 C0F20000 		movt	r0, #:upper16:.LC7
 160 00a4 FFF7FEFF 		bl	test_print
 161              	.LVL20:
 162              		.loc 1 661 0
 163 00a8 1020     		movs	r0, #16
 164 00aa FFF7FEFF 		bl	test_printn
 165              	.LVL21:
ARM GAS  /tmp/cczr1qYK.s 			page 4


 166              		.loc 1 662 0
 167 00ae 2046     		mov	r0, r4
 168 00b0 FFF7FEFF 		bl	test_println
 169              	.LVL22:
 170              		.loc 1 665 0
 171 00b4 40F20000 		movw	r0, #:lower16:.LC8
 172 00b8 C0F20000 		movt	r0, #:upper16:.LC8
 173 00bc FFF7FEFF 		bl	test_print
 174              	.LVL23:
 175              		.loc 1 666 0
 176 00c0 0820     		movs	r0, #8
 177 00c2 FFF7FEFF 		bl	test_printn
 178              	.LVL24:
 179              		.loc 1 667 0
 180 00c6 2046     		mov	r0, r4
 181 00c8 FFF7FEFF 		bl	test_println
 182              	.LVL25:
 183              		.loc 1 670 0
 184 00cc 40F20000 		movw	r0, #:lower16:.LC9
 185 00d0 C0F20000 		movt	r0, #:upper16:.LC9
 186 00d4 FFF7FEFF 		bl	test_print
 187              	.LVL26:
 188              		.loc 1 671 0
 189 00d8 2420     		movs	r0, #36
 190 00da FFF7FEFF 		bl	test_printn
 191              	.LVL27:
 192              		.loc 1 672 0
 193 00de 2046     		mov	r0, r4
 194 00e0 FFF7FEFF 		bl	test_println
 195              	.LVL28:
 196              		.loc 1 675 0
 197 00e4 40F20000 		movw	r0, #:lower16:.LC10
 198 00e8 C0F20000 		movt	r0, #:upper16:.LC10
 199 00ec FFF7FEFF 		bl	test_print
 200              	.LVL29:
 201              		.loc 1 676 0
 202 00f0 2820     		movs	r0, #40
 203 00f2 FFF7FEFF 		bl	test_printn
 204              	.LVL30:
 205              		.loc 1 677 0
 206 00f6 2046     		mov	r0, r4
 207              		.loc 1 679 0
 208 00f8 BDE81040 		pop	{r4, lr}
 209              		.loc 1 677 0
 210 00fc FFF7FEBF 		b	test_println
 211              	.LVL31:
 212              		.cfi_endproc
 213              	.LFE29:
 214              		.size	bmk13_execute, .-bmk13_execute
 215              		.section	.text.bmk12_execute,"ax",%progbits
 216              		.align	2
 217              		.p2align 4,,15
 218              		.thumb
 219              		.thumb_func
 220              		.type	bmk12_execute, %function
 221              	bmk12_execute:
 222              	.LFB28:
ARM GAS  /tmp/cczr1qYK.s 			page 5


 223              		.loc 1 594 0
 224              		.cfi_startproc
 225              		@ args = 0, pretend = 0, frame = 0
 226              		@ frame_needed = 0, uses_anonymous_args = 0
 227              	.LVL32:
 228 0000 38B5     		push	{r3, r4, r5, lr}
 229              	.LCFI1:
 230              		.cfi_def_cfa_offset 16
 231              		.cfi_offset 3, -16
 232              		.cfi_offset 4, -12
 233              		.cfi_offset 5, -8
 234              		.cfi_offset 14, -4
 235              		.loc 1 597 0
 236 0002 FFF7FEFF 		bl	test_wait_tick
 237              	.LVL33:
 238              		.loc 1 598 0
 239 0006 4FF47A70 		mov	r0, #1000
 240 000a FFF7FEFF 		bl	test_start_timer
 241              	.LVL34:
 242 000e 124D     		ldr	r5, .L11
 243              		.loc 1 595 0
 244 0010 0024     		movs	r4, #0
 245              	.LVL35:
 246              	.L5:
 247              		.loc 1 600 0 discriminator 1
 248 0012 1248     		ldr	r0, .L11+4
 249 0014 FFF7FEFF 		bl	chMtxLock
 250              	.LVL36:
 251              		.loc 1 601 0 discriminator 1
 252 0018 FFF7FEFF 		bl	chMtxUnlock
 253              	.LVL37:
 254              		.loc 1 602 0 discriminator 1
 255 001c 0F48     		ldr	r0, .L11+4
 256 001e FFF7FEFF 		bl	chMtxLock
 257              	.LVL38:
 258              		.loc 1 603 0 discriminator 1
 259 0022 FFF7FEFF 		bl	chMtxUnlock
 260              	.LVL39:
 261              		.loc 1 604 0 discriminator 1
 262 0026 0D48     		ldr	r0, .L11+4
 263 0028 FFF7FEFF 		bl	chMtxLock
 264              	.LVL40:
 265              		.loc 1 605 0 discriminator 1
 266 002c FFF7FEFF 		bl	chMtxUnlock
 267              	.LVL41:
 268              		.loc 1 606 0 discriminator 1
 269 0030 0A48     		ldr	r0, .L11+4
 270 0032 FFF7FEFF 		bl	chMtxLock
 271              	.LVL42:
 272              		.loc 1 607 0 discriminator 1
 273 0036 FFF7FEFF 		bl	chMtxUnlock
 274              	.LVL43:
 275              		.loc 1 612 0 discriminator 1
 276 003a 2B78     		ldrb	r3, [r5, #0]	@ zero_extendqisi2
 277              		.loc 1 608 0 discriminator 1
 278 003c 0134     		adds	r4, r4, #1
 279              	.LVL44:
ARM GAS  /tmp/cczr1qYK.s 			page 6


 280              		.loc 1 612 0 discriminator 1
 281 003e 002B     		cmp	r3, #0
 282 0040 E7D0     		beq	.L5
 283              		.loc 1 613 0
 284 0042 0748     		ldr	r0, .L11+8
 285 0044 FFF7FEFF 		bl	test_print
 286              	.LVL45:
 287              		.loc 1 614 0
 288 0048 A000     		lsls	r0, r4, #2
 289 004a FFF7FEFF 		bl	test_printn
 290              	.LVL46:
 291              		.loc 1 615 0
 292 004e 0548     		ldr	r0, .L11+12
 293              		.loc 1 616 0
 294 0050 BDE83840 		pop	{r3, r4, r5, lr}
 295              		.loc 1 615 0
 296 0054 FFF7FEBF 		b	test_println
 297              	.LVL47:
 298              	.L12:
 299              		.align	2
 300              	.L11:
 301 0058 00000000 		.word	test_timer_done
 302 005c 00000000 		.word	.LANCHOR0
 303 0060 A8000000 		.word	.LC11
 304 0064 B8000000 		.word	.LC12
 305              		.cfi_endproc
 306              	.LFE28:
 307              		.size	bmk12_execute, .-bmk12_execute
 308 0068 AFF30080 		.section	.text.bmk12_setup,"ax",%progbits
 308      AFF30080 
 309              		.align	2
 310              		.p2align 4,,15
 311              		.thumb
 312              		.thumb_func
 313              		.type	bmk12_setup, %function
 314              	bmk12_setup:
 315              	.LFB27:
 316              		.loc 1 589 0
 317              		.cfi_startproc
 318              		@ args = 0, pretend = 0, frame = 0
 319              		@ frame_needed = 0, uses_anonymous_args = 0
 320              		@ link register save eliminated.
 321              		.loc 1 591 0
 322 0000 40F20000 		movw	r0, #:lower16:.LANCHOR0
 323 0004 C0F20000 		movt	r0, #:upper16:.LANCHOR0
 324              		.loc 1 592 0
 325              		.loc 1 591 0
 326 0008 FFF7FEBF 		b	chMtxInit
 327              	.LVL48:
 328              		.cfi_endproc
 329              	.LFE27:
 330              		.size	bmk12_setup, .-bmk12_setup
 331 000c AFF30080 		.section	.text.thread3,"ax",%progbits
 332              		.align	2
 333              		.p2align 4,,15
 334              		.thumb
 335              		.thumb_func
ARM GAS  /tmp/cczr1qYK.s 			page 7


 336              		.type	thread3, %function
 337              	thread3:
 338              	.LFB17:
 339              		.loc 1 341 0
 340              		.cfi_startproc
 341              		@ args = 0, pretend = 0, frame = 0
 342              		@ frame_needed = 0, uses_anonymous_args = 0
 343              	.LVL49:
 344 0000 10B5     		push	{r4, lr}
 345              	.LCFI2:
 346              		.cfi_def_cfa_offset 8
 347              		.cfi_offset 4, -8
 348              		.cfi_offset 14, -4
 349              		.loc 1 344 0
 350 0002 074C     		ldr	r4, .L25
 351 0004 A369     		ldr	r3, [r4, #24]
 352 0006 5B7F     		ldrb	r3, [r3, #29]	@ zero_extendqisi2
 353 0008 5A07     		lsls	r2, r3, #29
 354 000a 06D4     		bmi	.L24
 355              	.LVL50:
 356              	.L21:
 357              		.loc 1 345 0
 358 000c 0548     		ldr	r0, .L25+4
 359 000e FFF7FEFF 		bl	chSemWait
 360              	.LVL51:
 361              		.loc 1 344 0
 362 0012 A369     		ldr	r3, [r4, #24]
 363 0014 5B7F     		ldrb	r3, [r3, #29]	@ zero_extendqisi2
 364 0016 5B07     		lsls	r3, r3, #29
 365 0018 F8D5     		bpl	.L21
 366              	.L24:
 367              		.loc 1 347 0
 368 001a 0020     		movs	r0, #0
 369 001c 10BD     		pop	{r4, pc}
 370              	.L26:
 371 001e 00BF     		.align	2
 372              	.L25:
 373 0020 00000000 		.word	rlist
 374 0024 00000000 		.word	.LANCHOR1
 375              		.cfi_endproc
 376              	.LFE17:
 377              		.size	thread3, .-thread3
 378 0028 AFF30080 		.section	.text.bmk11_execute,"ax",%progbits
 378      AFF30080 
 379              		.align	2
 380              		.p2align 4,,15
 381              		.thumb
 382              		.thumb_func
 383              		.type	bmk11_execute, %function
 384              	bmk11_execute:
 385              	.LFB26:
 386              		.loc 1 547 0
 387              		.cfi_startproc
 388              		@ args = 0, pretend = 0, frame = 0
 389              		@ frame_needed = 0, uses_anonymous_args = 0
 390              	.LVL52:
 391 0000 38B5     		push	{r3, r4, r5, lr}
ARM GAS  /tmp/cczr1qYK.s 			page 8


 392              	.LCFI3:
 393              		.cfi_def_cfa_offset 16
 394              		.cfi_offset 3, -16
 395              		.cfi_offset 4, -12
 396              		.cfi_offset 5, -8
 397              		.cfi_offset 14, -4
 398              		.loc 1 550 0
 399 0002 FFF7FEFF 		bl	test_wait_tick
 400              	.LVL53:
 401              		.loc 1 551 0
 402 0006 4FF47A70 		mov	r0, #1000
 403 000a FFF7FEFF 		bl	test_start_timer
 404              	.LVL54:
 405 000e 144D     		ldr	r5, .L33
 406              		.loc 1 548 0
 407 0010 0024     		movs	r4, #0
 408              	.LVL55:
 409              	.L28:
 410              		.loc 1 553 0 discriminator 1
 411 0012 1448     		ldr	r0, .L33+4
 412 0014 FFF7FEFF 		bl	chSemWait
 413              	.LVL56:
 414              		.loc 1 554 0 discriminator 1
 415 0018 1248     		ldr	r0, .L33+4
 416 001a FFF7FEFF 		bl	chSemSignal
 417              	.LVL57:
 418              		.loc 1 555 0 discriminator 1
 419 001e 1148     		ldr	r0, .L33+4
 420 0020 FFF7FEFF 		bl	chSemWait
 421              	.LVL58:
 422              		.loc 1 556 0 discriminator 1
 423 0024 0F48     		ldr	r0, .L33+4
 424 0026 FFF7FEFF 		bl	chSemSignal
 425              	.LVL59:
 426              		.loc 1 557 0 discriminator 1
 427 002a 0E48     		ldr	r0, .L33+4
 428 002c FFF7FEFF 		bl	chSemWait
 429              	.LVL60:
 430              		.loc 1 558 0 discriminator 1
 431 0030 0C48     		ldr	r0, .L33+4
 432 0032 FFF7FEFF 		bl	chSemSignal
 433              	.LVL61:
 434              		.loc 1 559 0 discriminator 1
 435 0036 0B48     		ldr	r0, .L33+4
 436 0038 FFF7FEFF 		bl	chSemWait
 437              	.LVL62:
 438              		.loc 1 560 0 discriminator 1
 439 003c 0948     		ldr	r0, .L33+4
 440 003e FFF7FEFF 		bl	chSemSignal
 441              	.LVL63:
 442              		.loc 1 565 0 discriminator 1
 443 0042 2B78     		ldrb	r3, [r5, #0]	@ zero_extendqisi2
 444              		.loc 1 561 0 discriminator 1
 445 0044 0134     		adds	r4, r4, #1
 446              	.LVL64:
 447              		.loc 1 565 0 discriminator 1
 448 0046 002B     		cmp	r3, #0
ARM GAS  /tmp/cczr1qYK.s 			page 9


 449 0048 E3D0     		beq	.L28
 450              		.loc 1 566 0
 451 004a 0748     		ldr	r0, .L33+8
 452 004c FFF7FEFF 		bl	test_print
 453              	.LVL65:
 454              		.loc 1 567 0
 455 0050 A000     		lsls	r0, r4, #2
 456 0052 FFF7FEFF 		bl	test_printn
 457              	.LVL66:
 458              		.loc 1 568 0
 459 0056 0548     		ldr	r0, .L33+12
 460              		.loc 1 569 0
 461 0058 BDE83840 		pop	{r3, r4, r5, lr}
 462              		.loc 1 568 0
 463 005c FFF7FEBF 		b	test_println
 464              	.LVL67:
 465              	.L34:
 466              		.align	2
 467              	.L33:
 468 0060 00000000 		.word	test_timer_done
 469 0064 00000000 		.word	.LANCHOR1
 470 0068 A8000000 		.word	.LC11
 471 006c C8000000 		.word	.LC13
 472              		.cfi_endproc
 473              	.LFE26:
 474              		.size	bmk11_execute, .-bmk11_execute
 475              		.section	.text.bmk11_setup,"ax",%progbits
 476              		.align	2
 477              		.p2align 4,,15
 478              		.thumb
 479              		.thumb_func
 480              		.type	bmk11_setup, %function
 481              	bmk11_setup:
 482              	.LFB25:
 483              		.loc 1 542 0
 484              		.cfi_startproc
 485              		@ args = 0, pretend = 0, frame = 0
 486              		@ frame_needed = 0, uses_anonymous_args = 0
 487              		@ link register save eliminated.
 488              		.loc 1 544 0
 489 0000 40F20000 		movw	r0, #:lower16:.LANCHOR1
 490 0004 C0F20000 		movt	r0, #:upper16:.LANCHOR1
 491 0008 0121     		movs	r1, #1
 492              		.loc 1 545 0
 493              		.loc 1 544 0
 494 000a FFF7FEBF 		b	chSemInit
 495              	.LVL68:
 496              		.cfi_endproc
 497              	.LFE25:
 498              		.size	bmk11_setup, .-bmk11_setup
 499              		.section	.text.bmk7_setup,"ax",%progbits
 500              		.align	2
 501              		.p2align 4,,15
 502              		.thumb
 503              		.thumb_func
 504              		.type	bmk7_setup, %function
 505              	bmk7_setup:
ARM GAS  /tmp/cczr1qYK.s 			page 10


 506              	.LFB18:
 507              		.loc 1 349 0
 508              		.cfi_startproc
 509              		@ args = 0, pretend = 0, frame = 0
 510              		@ frame_needed = 0, uses_anonymous_args = 0
 511              		@ link register save eliminated.
 512              		.loc 1 351 0
 513 0000 40F20000 		movw	r0, #:lower16:.LANCHOR1
 514 0004 C0F20000 		movt	r0, #:upper16:.LANCHOR1
 515 0008 0021     		movs	r1, #0
 516              		.loc 1 352 0
 517              		.loc 1 351 0
 518 000a FFF7FEBF 		b	chSemInit
 519              	.LVL69:
 520              		.cfi_endproc
 521              	.LFE18:
 522              		.size	bmk7_setup, .-bmk7_setup
 523              		.section	.text.bmk10_execute,"ax",%progbits
 524              		.align	2
 525              		.p2align 4,,15
 526              		.thumb
 527              		.thumb_func
 528              		.type	bmk10_execute, %function
 529              	bmk10_execute:
 530              	.LFB24:
 531              		.loc 1 502 0
 532              		.cfi_startproc
 533              		@ args = 0, pretend = 0, frame = 0
 534              		@ frame_needed = 0, uses_anonymous_args = 0
 535              	.LVL70:
 536 0000 38B5     		push	{r3, r4, r5, lr}
 537              	.LCFI4:
 538              		.cfi_def_cfa_offset 16
 539              		.cfi_offset 3, -16
 540              		.cfi_offset 4, -12
 541              		.cfi_offset 5, -8
 542              		.cfi_offset 14, -4
 543              		.loc 1 506 0
 544 0002 FFF7FEFF 		bl	test_wait_tick
 545              	.LVL71:
 546              		.loc 1 507 0
 547 0006 4FF47A70 		mov	r0, #1000
 548 000a FFF7FEFF 		bl	test_start_timer
 549              	.LVL72:
 550 000e 154D     		ldr	r5, .L43
 551              		.loc 1 504 0
 552 0010 0024     		movs	r4, #0
 553              	.LVL73:
 554              	.L38:
 555              	.LBB2:
 556              		.loc 1 509 0 discriminator 1
 557 0012 2023     		movs	r3, #32
 558              	.LVL74:
 559              	@ 509 "/home/felix/Documents/ChibiOS/test/testbmk.c" 1
 560 0014 83F31188 		msr     BASEPRI, r3
 561              	@ 0 "" 2
 562              	.LVL75:
ARM GAS  /tmp/cczr1qYK.s 			page 11


 563              		.thumb
 564              	.LBE2:
 565              		.loc 1 510 0 discriminator 1
 566 0018 1348     		ldr	r0, .L43+4
 567 001a 144A     		ldr	r2, .L43+8
 568 001c 0121     		movs	r1, #1
 569 001e 0023     		movs	r3, #0
 570              	.LVL76:
 571 0020 FFF7FEFF 		bl	chVTSetI
 572              	.LVL77:
 573              		.loc 1 511 0 discriminator 1
 574 0024 114A     		ldr	r2, .L43+8
 575 0026 1248     		ldr	r0, .L43+12
 576 0028 42F21071 		movw	r1, #10000
 577 002c 0023     		movs	r3, #0
 578 002e FFF7FEFF 		bl	chVTSetI
 579              	.LVL78:
 580              		.loc 1 512 0 discriminator 1
 581 0032 0D48     		ldr	r0, .L43+4
 582 0034 FFF7FEFF 		bl	chVTResetI
 583              	.LVL79:
 584              		.loc 1 513 0 discriminator 1
 585 0038 0D48     		ldr	r0, .L43+12
 586 003a FFF7FEFF 		bl	chVTResetI
 587              	.LVL80:
 588              	.LBB3:
 589              		.loc 1 514 0 discriminator 1
 590 003e 0023     		movs	r3, #0
 591              	.LVL81:
 592              	@ 514 "/home/felix/Documents/ChibiOS/test/testbmk.c" 1
 593 0040 83F31188 		msr     BASEPRI, r3
 594              	@ 0 "" 2
 595              	.LVL82:
 596              		.thumb
 597              	.LBE3:
 598              		.loc 1 519 0 discriminator 1
 599 0044 2B78     		ldrb	r3, [r5, #0]	@ zero_extendqisi2
 600              	.LVL83:
 601              		.loc 1 515 0 discriminator 1
 602 0046 0134     		adds	r4, r4, #1
 603              	.LVL84:
 604              		.loc 1 519 0 discriminator 1
 605 0048 002B     		cmp	r3, #0
 606 004a E2D0     		beq	.L38
 607              		.loc 1 520 0
 608 004c 0948     		ldr	r0, .L43+16
 609 004e FFF7FEFF 		bl	test_print
 610              	.LVL85:
 611              		.loc 1 521 0
 612 0052 6000     		lsls	r0, r4, #1
 613 0054 FFF7FEFF 		bl	test_printn
 614              	.LVL86:
 615              		.loc 1 522 0
 616 0058 0748     		ldr	r0, .L43+20
 617              		.loc 1 523 0
 618 005a BDE83840 		pop	{r3, r4, r5, lr}
 619              		.loc 1 522 0
ARM GAS  /tmp/cczr1qYK.s 			page 12


 620 005e FFF7FEBF 		b	test_println
 621              	.LVL87:
 622              	.L44:
 623 0062 00BF     		.align	2
 624              	.L43:
 625 0064 00000000 		.word	test_timer_done
 626 0068 00000000 		.word	.LANCHOR2
 627 006c 00000000 		.word	tmo
 628 0070 00000000 		.word	.LANCHOR3
 629 0074 A8000000 		.word	.LC11
 630 0078 D8000000 		.word	.LC14
 631              		.cfi_endproc
 632              	.LFE24:
 633              		.size	bmk10_execute, .-bmk10_execute
 634 007c AFF30080 		.section	.text.bmk9_execute,"ax",%progbits
 635              		.align	2
 636              		.p2align 4,,15
 637              		.thumb
 638              		.thumb_func
 639              		.type	bmk9_execute, %function
 640              	bmk9_execute:
 641              	.LFB22:
 642              		.loc 1 454 0
 643              		.cfi_startproc
 644              		@ args = 0, pretend = 0, frame = 0
 645              		@ frame_needed = 0, uses_anonymous_args = 0
 646 0000 30B5     		push	{r4, r5, lr}
 647              	.LCFI5:
 648              		.cfi_def_cfa_offset 12
 649              		.cfi_offset 4, -12
 650              		.cfi_offset 5, -8
 651              		.cfi_offset 14, -4
 652 0002 83B0     		sub	sp, sp, #12
 653              	.LCFI6:
 654              		.cfi_def_cfa_offset 24
 655              		.loc 1 459 0
 656 0004 0024     		movs	r4, #0
 657 0006 2346     		mov	r3, r4
 658 0008 2348     		ldr	r0, .L51
 659 000a 2449     		ldr	r1, .L51+4
 660 000c 0094     		str	r4, [sp, #0]
 661 000e 1022     		movs	r2, #16
 662 0010 FFF7FEFF 		bl	chIQInit
 663              	.LVL88:
 664              		.loc 1 461 0
 665 0014 FFF7FEFF 		bl	test_wait_tick
 666              	.LVL89:
 667              		.loc 1 462 0
 668 0018 4FF47A70 		mov	r0, #1000
 669 001c 204D     		ldr	r5, .L51+8
 670 001e FFF7FEFF 		bl	test_start_timer
 671              	.LVL90:
 672              	.L46:
 673              	.LBB4:
 674              		.loc 1 464 0 discriminator 1
 675 0022 2023     		movs	r3, #32
 676              	.LVL91:
ARM GAS  /tmp/cczr1qYK.s 			page 13


 677              	@ 464 "/home/felix/Documents/ChibiOS/test/testbmk.c" 1
 678 0024 83F31188 		msr     BASEPRI, r3
 679              	@ 0 "" 2
 680              	.LVL92:
 681              		.thumb
 682              	.LBE4:
 683              		.loc 1 465 0 discriminator 1
 684 0028 0021     		movs	r1, #0
 685 002a 1B48     		ldr	r0, .L51
 686 002c FFF7FEFF 		bl	chIQPutI
 687              	.LVL93:
 688              		.loc 1 466 0 discriminator 1
 689 0030 0121     		movs	r1, #1
 690 0032 1948     		ldr	r0, .L51
 691 0034 FFF7FEFF 		bl	chIQPutI
 692              	.LVL94:
 693              		.loc 1 467 0 discriminator 1
 694 0038 0221     		movs	r1, #2
 695 003a 1748     		ldr	r0, .L51
 696 003c FFF7FEFF 		bl	chIQPutI
 697              	.LVL95:
 698              		.loc 1 468 0 discriminator 1
 699 0040 0321     		movs	r1, #3
 700 0042 1548     		ldr	r0, .L51
 701 0044 FFF7FEFF 		bl	chIQPutI
 702              	.LVL96:
 703              	.LBB5:
 704              		.loc 1 469 0 discriminator 1
 705 0048 0023     		movs	r3, #0
 706              	.LVL97:
 707              	@ 469 "/home/felix/Documents/ChibiOS/test/testbmk.c" 1
 708 004a 83F31188 		msr     BASEPRI, r3
 709              	@ 0 "" 2
 710              	.LVL98:
 711              		.thumb
 712              	.LBE5:
 713              		.loc 1 470 0 discriminator 1
 714 004e 4FF0FF31 		mov	r1, #-1
 715 0052 1148     		ldr	r0, .L51
 716 0054 FFF7FEFF 		bl	chIQGetTimeout
 717              	.LVL99:
 718              		.loc 1 471 0 discriminator 1
 719 0058 4FF0FF31 		mov	r1, #-1
 720 005c 0E48     		ldr	r0, .L51
 721 005e FFF7FEFF 		bl	chIQGetTimeout
 722              	.LVL100:
 723              		.loc 1 472 0 discriminator 1
 724 0062 4FF0FF31 		mov	r1, #-1
 725 0066 0C48     		ldr	r0, .L51
 726 0068 FFF7FEFF 		bl	chIQGetTimeout
 727              	.LVL101:
 728              		.loc 1 473 0 discriminator 1
 729 006c 0A48     		ldr	r0, .L51
 730 006e 4FF0FF31 		mov	r1, #-1
 731 0072 FFF7FEFF 		bl	chIQGetTimeout
 732              	.LVL102:
 733              		.loc 1 478 0 discriminator 1
ARM GAS  /tmp/cczr1qYK.s 			page 14


 734 0076 2B78     		ldrb	r3, [r5, #0]	@ zero_extendqisi2
 735              		.loc 1 474 0 discriminator 1
 736 0078 0134     		adds	r4, r4, #1
 737              	.LVL103:
 738              		.loc 1 478 0 discriminator 1
 739 007a 002B     		cmp	r3, #0
 740 007c D1D0     		beq	.L46
 741              		.loc 1 479 0
 742 007e 0948     		ldr	r0, .L51+12
 743 0080 FFF7FEFF 		bl	test_print
 744              	.LVL104:
 745              		.loc 1 480 0
 746 0084 A000     		lsls	r0, r4, #2
 747 0086 FFF7FEFF 		bl	test_printn
 748              	.LVL105:
 749              		.loc 1 481 0
 750 008a 0748     		ldr	r0, .L51+16
 751              		.loc 1 482 0
 752 008c 03B0     		add	sp, sp, #12
 753 008e BDE83040 		pop	{r4, r5, lr}
 754              		.loc 1 481 0
 755 0092 FFF7FEBF 		b	test_println
 756              	.LVL106:
 757              	.L52:
 758 0096 00BF     		.align	2
 759              	.L51:
 760 0098 00000000 		.word	.LANCHOR4
 761 009c 00000000 		.word	.LANCHOR5
 762 00a0 00000000 		.word	test_timer_done
 763 00a4 A8000000 		.word	.LC11
 764 00a8 E4000000 		.word	.LC15
 765              		.cfi_endproc
 766              	.LFE22:
 767              		.size	bmk9_execute, .-bmk9_execute
 768 00ac AFF30080 		.section	.text.bmk6_execute,"ax",%progbits
 769              		.align	2
 770              		.p2align 4,,15
 771              		.thumb
 772              		.thumb_func
 773              		.type	bmk6_execute, %function
 774              	bmk6_execute:
 775              	.LFB16:
 776              		.loc 1 304 0
 777              		.cfi_startproc
 778              		@ args = 0, pretend = 0, frame = 0
 779              		@ frame_needed = 0, uses_anonymous_args = 0
 780              	.LVL107:
 781 0000 2DE9F041 		push	{r4, r5, r6, r7, r8, lr}
 782              	.LCFI7:
 783              		.cfi_def_cfa_offset 24
 784              		.cfi_offset 4, -24
 785              		.cfi_offset 5, -20
 786              		.cfi_offset 6, -16
 787              		.cfi_offset 7, -12
 788              		.cfi_offset 8, -8
 789              		.cfi_offset 14, -4
 790              		.loc 1 308 0
ARM GAS  /tmp/cczr1qYK.s 			page 15


 791 0004 144B     		ldr	r3, .L59
 792              		.loc 1 307 0
 793 0006 154A     		ldr	r2, .L59+4
 794              		.loc 1 308 0
 795 0008 9B69     		ldr	r3, [r3, #24]
 796              		.loc 1 307 0
 797 000a D2F80080 		ldr	r8, [r2, #0]
 798              	.LVL108:
 799              		.loc 1 308 0
 800 000e 9E68     		ldr	r6, [r3, #8]
 801 0010 134F     		ldr	r7, .L59+8
 802              		.loc 1 304 0
 803 0012 82B0     		sub	sp, sp, #8
 804              	.LCFI8:
 805              		.cfi_def_cfa_offset 32
 806              		.loc 1 309 0
 807 0014 FFF7FEFF 		bl	test_wait_tick
 808              	.LVL109:
 809              		.loc 1 310 0
 810 0018 4FF47A70 		mov	r0, #1000
 811 001c FFF7FEFF 		bl	test_start_timer
 812              	.LVL110:
 813              		.loc 1 306 0
 814 0020 0024     		movs	r4, #0
 815              		.loc 1 308 0
 816 0022 0136     		adds	r6, r6, #1
 817              	.LVL111:
 818              		.loc 1 312 0
 819 0024 2546     		mov	r5, r4
 820              	.LVL112:
 821              	.L54:
 822              		.loc 1 312 0 is_stmt 0 discriminator 1
 823 0026 0F4B     		ldr	r3, .L59+12
 824 0028 0095     		str	r5, [sp, #0]
 825 002a 4046     		mov	r0, r8
 826 002c 4FF49871 		mov	r1, #304
 827 0030 3246     		mov	r2, r6
 828 0032 FFF7FEFF 		bl	chThdCreateStatic
 829              	.LVL113:
 830              		.loc 1 317 0 is_stmt 1 discriminator 1
 831 0036 3B78     		ldrb	r3, [r7, #0]	@ zero_extendqisi2
 832              		.loc 1 313 0 discriminator 1
 833 0038 0134     		adds	r4, r4, #1
 834              	.LVL114:
 835              		.loc 1 317 0 discriminator 1
 836 003a 002B     		cmp	r3, #0
 837 003c F3D0     		beq	.L54
 838              		.loc 1 318 0
 839 003e 0A48     		ldr	r0, .L59+16
 840 0040 FFF7FEFF 		bl	test_print
 841              	.LVL115:
 842              		.loc 1 319 0
 843 0044 2046     		mov	r0, r4
 844 0046 FFF7FEFF 		bl	test_printn
 845              	.LVL116:
 846              		.loc 1 320 0
 847 004a 0848     		ldr	r0, .L59+20
ARM GAS  /tmp/cczr1qYK.s 			page 16


 848              		.loc 1 321 0
 849 004c 02B0     		add	sp, sp, #8
 850 004e BDE8F041 		pop	{r4, r5, r6, r7, r8, lr}
 851              		.loc 1 320 0
 852 0052 FFF7FEBF 		b	test_println
 853              	.LVL117:
 854              	.L60:
 855 0056 00BF     		.align	2
 856              	.L59:
 857 0058 00000000 		.word	rlist
 858 005c 00000000 		.word	wa
 859 0060 00000000 		.word	test_timer_done
 860 0064 00000000 		.word	thread2
 861 0068 A8000000 		.word	.LC11
 862 006c F0000000 		.word	.LC16
 863              		.cfi_endproc
 864              	.LFE16:
 865              		.size	bmk6_execute, .-bmk6_execute
 866              		.section	.text.bmk8_execute,"ax",%progbits
 867              		.align	2
 868              		.p2align 4,,15
 869              		.thumb
 870              		.thumb_func
 871              		.type	bmk8_execute, %function
 872              	bmk8_execute:
 873              	.LFB21:
 874              		.loc 1 416 0
 875              		.cfi_startproc
 876              		@ args = 0, pretend = 0, frame = 8
 877              		@ frame_needed = 0, uses_anonymous_args = 0
 878 0000 2DE9F041 		push	{r4, r5, r6, r7, r8, lr}
 879              	.LCFI9:
 880              		.cfi_def_cfa_offset 24
 881              		.cfi_offset 4, -24
 882              		.cfi_offset 5, -20
 883              		.cfi_offset 6, -16
 884              		.cfi_offset 7, -12
 885              		.cfi_offset 8, -8
 886              		.cfi_offset 14, -4
 887              		.loc 1 422 0
 888 0004 40F20008 		movw	r8, #:lower16:rlist
 889              		.loc 1 416 0
 890 0008 84B0     		sub	sp, sp, #16
 891              	.LCFI10:
 892              		.cfi_def_cfa_offset 40
 893              		.loc 1 419 0
 894 000a 04AC     		add	r4, sp, #16
 895              		.loc 1 422 0
 896 000c C0F20008 		movt	r8, #:upper16:rlist
 897              		.loc 1 419 0
 898 0010 0023     		movs	r3, #0
 899 0012 44F8043D 		str	r3, [r4, #-4]!
 900              	.LVL118:
 901              		.loc 1 420 0
 902 0016 FFF7FEFF 		bl	test_wait_tick
 903              	.LVL119:
 904              		.loc 1 422 0
ARM GAS  /tmp/cczr1qYK.s 			page 17


 905 001a D8F81830 		ldr	r3, [r8, #24]
 906 001e 40F20007 		movw	r7, #:lower16:wa
 907 0022 C0F20007 		movt	r7, #:upper16:wa
 908 0026 9A68     		ldr	r2, [r3, #8]
 909 0028 3868     		ldr	r0, [r7, #0]
 910 002a 0094     		str	r4, [sp, #0]
 911 002c 40F20006 		movw	r6, #:lower16:thread8
 912 0030 C0F20006 		movt	r6, #:upper16:thread8
 913 0034 3346     		mov	r3, r6
 914 0036 013A     		subs	r2, r2, #1
 915 0038 4FF49871 		mov	r1, #304
 916 003c FFF7FEFF 		bl	chThdCreateStatic
 917              	.LVL120:
 918              		.loc 1 423 0
 919 0040 D8F81830 		ldr	r3, [r8, #24]
 920 0044 7968     		ldr	r1, [r7, #4]
 921 0046 9A68     		ldr	r2, [r3, #8]
 922 0048 0094     		str	r4, [sp, #0]
 923              		.loc 1 422 0
 924 004a 40F20005 		movw	r5, #:lower16:threads
 925 004e C0F20005 		movt	r5, #:upper16:threads
 926              		.loc 1 423 0
 927 0052 3346     		mov	r3, r6
 928              		.loc 1 422 0
 929 0054 2860     		str	r0, [r5, #0]
 930              		.loc 1 423 0
 931 0056 013A     		subs	r2, r2, #1
 932 0058 0846     		mov	r0, r1
 933 005a 4FF49871 		mov	r1, #304
 934 005e FFF7FEFF 		bl	chThdCreateStatic
 935              	.LVL121:
 936              		.loc 1 424 0
 937 0062 D8F81820 		ldr	r2, [r8, #24]
 938 0066 BB68     		ldr	r3, [r7, #8]
 939 0068 9268     		ldr	r2, [r2, #8]
 940              		.loc 1 423 0
 941 006a 6860     		str	r0, [r5, #4]
 942              		.loc 1 424 0
 943 006c 013A     		subs	r2, r2, #1
 944 006e 0094     		str	r4, [sp, #0]
 945 0070 1846     		mov	r0, r3
 946 0072 4FF49871 		mov	r1, #304
 947 0076 3346     		mov	r3, r6
 948 0078 FFF7FEFF 		bl	chThdCreateStatic
 949              	.LVL122:
 950              		.loc 1 425 0
 951 007c D8F81820 		ldr	r2, [r8, #24]
 952 0080 FB68     		ldr	r3, [r7, #12]
 953 0082 9268     		ldr	r2, [r2, #8]
 954              		.loc 1 424 0
 955 0084 A860     		str	r0, [r5, #8]
 956              		.loc 1 425 0
 957 0086 013A     		subs	r2, r2, #1
 958 0088 0094     		str	r4, [sp, #0]
 959 008a 1846     		mov	r0, r3
 960 008c 4FF49871 		mov	r1, #304
 961 0090 3346     		mov	r3, r6
ARM GAS  /tmp/cczr1qYK.s 			page 18


 962 0092 FFF7FEFF 		bl	chThdCreateStatic
 963              	.LVL123:
 964              		.loc 1 426 0
 965 0096 D8F81820 		ldr	r2, [r8, #24]
 966 009a 3B69     		ldr	r3, [r7, #16]
 967 009c 9268     		ldr	r2, [r2, #8]
 968              		.loc 1 425 0
 969 009e E860     		str	r0, [r5, #12]
 970              		.loc 1 426 0
 971 00a0 013A     		subs	r2, r2, #1
 972 00a2 4FF49871 		mov	r1, #304
 973 00a6 1846     		mov	r0, r3
 974 00a8 0094     		str	r4, [sp, #0]
 975 00aa 3346     		mov	r3, r6
 976 00ac FFF7FEFF 		bl	chThdCreateStatic
 977              	.LVL124:
 978 00b0 2861     		str	r0, [r5, #16]
 979              		.loc 1 428 0
 980 00b2 4FF47A70 		mov	r0, #1000
 981 00b6 FFF7FEFF 		bl	chThdSleep
 982              	.LVL125:
 983              		.loc 1 429 0
 984 00ba FFF7FEFF 		bl	test_terminate_threads
 985              	.LVL126:
 986              		.loc 1 430 0
 987 00be FFF7FEFF 		bl	test_wait_threads
 988              	.LVL127:
 989              		.loc 1 432 0
 990 00c2 40F20000 		movw	r0, #:lower16:.LC11
 991 00c6 C0F20000 		movt	r0, #:upper16:.LC11
 992 00ca FFF7FEFF 		bl	test_print
 993              	.LVL128:
 994              		.loc 1 433 0
 995 00ce 0398     		ldr	r0, [sp, #12]
 996 00d0 FFF7FEFF 		bl	test_printn
 997              	.LVL129:
 998              		.loc 1 434 0
 999 00d4 40F20000 		movw	r0, #:lower16:.LC17
 1000 00d8 C0F20000 		movt	r0, #:upper16:.LC17
 1001 00dc FFF7FEFF 		bl	test_println
 1002              	.LVL130:
 1003              		.loc 1 435 0
 1004 00e0 04B0     		add	sp, sp, #16
 1005 00e2 BDE8F081 		pop	{r4, r5, r6, r7, r8, pc}
 1006              		.cfi_endproc
 1007              	.LFE21:
 1008              		.size	bmk8_execute, .-bmk8_execute
 1009 00e6 00BFAFF3 		.section	.text.thread8,"ax",%progbits
 1009      0080AFF3 
 1009      0080
 1010              		.align	2
 1011              		.p2align 4,,15
 1012              		.thumb
 1013              		.thumb_func
 1014              		.type	thread8, %function
 1015              	thread8:
 1016              	.LFB20:
ARM GAS  /tmp/cczr1qYK.s 			page 19


 1017              		.loc 1 401 0
 1018              		.cfi_startproc
 1019              		@ args = 0, pretend = 0, frame = 0
 1020              		@ frame_needed = 0, uses_anonymous_args = 0
 1021              	.LVL131:
 1022 0000 38B5     		push	{r3, r4, r5, lr}
 1023              	.LCFI11:
 1024              		.cfi_def_cfa_offset 16
 1025              		.cfi_offset 3, -16
 1026              		.cfi_offset 4, -12
 1027              		.cfi_offset 5, -8
 1028              		.cfi_offset 14, -4
 1029 0002 094D     		ldr	r5, .L68
 1030              		.loc 1 401 0
 1031 0004 0446     		mov	r4, r0
 1032              	.LVL132:
 1033              	.L63:
 1034              		.loc 1 404 0 discriminator 1
 1035 0006 FFF7FEFF 		bl	chThdYield
 1036              	.LVL133:
 1037              		.loc 1 405 0 discriminator 1
 1038 000a FFF7FEFF 		bl	chThdYield
 1039              	.LVL134:
 1040              		.loc 1 406 0 discriminator 1
 1041 000e FFF7FEFF 		bl	chThdYield
 1042              	.LVL135:
 1043              		.loc 1 407 0 discriminator 1
 1044 0012 FFF7FEFF 		bl	chThdYield
 1045              	.LVL136:
 1046              		.loc 1 408 0 discriminator 1
 1047 0016 2268     		ldr	r2, [r4, #0]
 1048              		.loc 1 412 0 discriminator 1
 1049 0018 AB69     		ldr	r3, [r5, #24]
 1050              		.loc 1 408 0 discriminator 1
 1051 001a 0432     		adds	r2, r2, #4
 1052 001c 2260     		str	r2, [r4, #0]
 1053              		.loc 1 412 0 discriminator 1
 1054 001e 5B7F     		ldrb	r3, [r3, #29]	@ zero_extendqisi2
 1055 0020 5907     		lsls	r1, r3, #29
 1056 0022 F0D5     		bpl	.L63
 1057              		.loc 1 414 0
 1058 0024 0020     		movs	r0, #0
 1059 0026 38BD     		pop	{r3, r4, r5, pc}
 1060              	.L69:
 1061              		.align	2
 1062              	.L68:
 1063 0028 00000000 		.word	rlist
 1064              		.cfi_endproc
 1065              	.LFE20:
 1066              		.size	thread8, .-thread8
 1067 002c AFF30080 		.section	.text.bmk7_execute,"ax",%progbits
 1068              		.align	2
 1069              		.p2align 4,,15
 1070              		.thumb
 1071              		.thumb_func
 1072              		.type	bmk7_execute, %function
 1073              	bmk7_execute:
ARM GAS  /tmp/cczr1qYK.s 			page 20


 1074              	.LFB19:
 1075              		.loc 1 354 0
 1076              		.cfi_startproc
 1077              		@ args = 0, pretend = 0, frame = 0
 1078              		@ frame_needed = 0, uses_anonymous_args = 0
 1079 0000 2DE9F041 		push	{r4, r5, r6, r7, r8, lr}
 1080              	.LCFI12:
 1081              		.cfi_def_cfa_offset 24
 1082              		.cfi_offset 4, -24
 1083              		.cfi_offset 5, -20
 1084              		.cfi_offset 6, -16
 1085              		.cfi_offset 7, -12
 1086              		.cfi_offset 8, -8
 1087              		.cfi_offset 14, -4
 1088              		.loc 1 357 0
 1089 0004 DFF80081 		ldr	r8, .L76+32
 1090 0008 374F     		ldr	r7, .L76
 1091 000a D8F81830 		ldr	r3, [r8, #24]
 1092 000e 3868     		ldr	r0, [r7, #0]
 1093 0010 9A68     		ldr	r2, [r3, #8]
 1094 0012 364B     		ldr	r3, .L76+4
 1095 0014 364E     		ldr	r6, .L76+8
 1096 0016 374D     		ldr	r5, .L76+12
 1097              		.loc 1 354 0
 1098 0018 82B0     		sub	sp, sp, #8
 1099              	.LCFI13:
 1100              		.cfi_def_cfa_offset 32
 1101              		.loc 1 357 0
 1102 001a 0024     		movs	r4, #0
 1103 001c 0532     		adds	r2, r2, #5
 1104 001e 4FF49871 		mov	r1, #304
 1105 0022 0094     		str	r4, [sp, #0]
 1106 0024 FFF7FEFF 		bl	chThdCreateStatic
 1107              	.LVL137:
 1108              		.loc 1 358 0
 1109 0028 D8F81820 		ldr	r2, [r8, #24]
 1110 002c 7B68     		ldr	r3, [r7, #4]
 1111 002e 9268     		ldr	r2, [r2, #8]
 1112              		.loc 1 357 0
 1113 0030 3060     		str	r0, [r6, #0]
 1114              		.loc 1 358 0
 1115 0032 0432     		adds	r2, r2, #4
 1116 0034 1846     		mov	r0, r3
 1117 0036 4FF49871 		mov	r1, #304
 1118 003a 2C4B     		ldr	r3, .L76+4
 1119 003c 0094     		str	r4, [sp, #0]
 1120 003e FFF7FEFF 		bl	chThdCreateStatic
 1121              	.LVL138:
 1122              		.loc 1 359 0
 1123 0042 D8F81820 		ldr	r2, [r8, #24]
 1124 0046 BB68     		ldr	r3, [r7, #8]
 1125 0048 9268     		ldr	r2, [r2, #8]
 1126              		.loc 1 358 0
 1127 004a 7060     		str	r0, [r6, #4]
 1128              		.loc 1 359 0
 1129 004c 0332     		adds	r2, r2, #3
 1130 004e 1846     		mov	r0, r3
ARM GAS  /tmp/cczr1qYK.s 			page 21


 1131 0050 4FF49871 		mov	r1, #304
 1132 0054 254B     		ldr	r3, .L76+4
 1133 0056 0094     		str	r4, [sp, #0]
 1134 0058 FFF7FEFF 		bl	chThdCreateStatic
 1135              	.LVL139:
 1136              		.loc 1 360 0
 1137 005c D8F81820 		ldr	r2, [r8, #24]
 1138 0060 FB68     		ldr	r3, [r7, #12]
 1139 0062 9268     		ldr	r2, [r2, #8]
 1140              		.loc 1 359 0
 1141 0064 B060     		str	r0, [r6, #8]
 1142              		.loc 1 360 0
 1143 0066 0232     		adds	r2, r2, #2
 1144 0068 1846     		mov	r0, r3
 1145 006a 4FF49871 		mov	r1, #304
 1146 006e 1F4B     		ldr	r3, .L76+4
 1147 0070 0094     		str	r4, [sp, #0]
 1148 0072 FFF7FEFF 		bl	chThdCreateStatic
 1149              	.LVL140:
 1150              		.loc 1 361 0
 1151 0076 D8F81820 		ldr	r2, [r8, #24]
 1152 007a 3B69     		ldr	r3, [r7, #16]
 1153 007c 9268     		ldr	r2, [r2, #8]
 1154              		.loc 1 360 0
 1155 007e F060     		str	r0, [r6, #12]
 1156              		.loc 1 361 0
 1157 0080 0132     		adds	r2, r2, #1
 1158 0082 1846     		mov	r0, r3
 1159 0084 4FF49871 		mov	r1, #304
 1160 0088 184B     		ldr	r3, .L76+4
 1161 008a 0094     		str	r4, [sp, #0]
 1162 008c FFF7FEFF 		bl	chThdCreateStatic
 1163              	.LVL141:
 1164 0090 3061     		str	r0, [r6, #16]
 1165              	.LVL142:
 1166              		.loc 1 364 0
 1167 0092 FFF7FEFF 		bl	test_wait_tick
 1168              	.LVL143:
 1169              		.loc 1 365 0
 1170 0096 4FF47A70 		mov	r0, #1000
 1171 009a FFF7FEFF 		bl	test_start_timer
 1172              	.LVL144:
 1173              	.L71:
 1174              		.loc 1 367 0 discriminator 1
 1175 009e 1648     		ldr	r0, .L76+16
 1176 00a0 0021     		movs	r1, #0
 1177 00a2 FFF7FEFF 		bl	chSemReset
 1178              	.LVL145:
 1179              		.loc 1 372 0 discriminator 1
 1180 00a6 2B78     		ldrb	r3, [r5, #0]	@ zero_extendqisi2
 1181              		.loc 1 368 0 discriminator 1
 1182 00a8 0134     		adds	r4, r4, #1
 1183              	.LVL146:
 1184              		.loc 1 372 0 discriminator 1
 1185 00aa 002B     		cmp	r3, #0
 1186 00ac F7D0     		beq	.L71
 1187              		.loc 1 373 0
ARM GAS  /tmp/cczr1qYK.s 			page 22


 1188 00ae FFF7FEFF 		bl	test_terminate_threads
 1189              	.LVL147:
 1190              		.loc 1 374 0
 1191 00b2 0021     		movs	r1, #0
 1192 00b4 1048     		ldr	r0, .L76+16
 1193 00b6 FFF7FEFF 		bl	chSemReset
 1194              	.LVL148:
 1195              		.loc 1 375 0
 1196 00ba FFF7FEFF 		bl	test_wait_threads
 1197              	.LVL149:
 1198              		.loc 1 377 0
 1199 00be 0F48     		ldr	r0, .L76+20
 1200 00c0 FFF7FEFF 		bl	test_print
 1201              	.LVL150:
 1202              		.loc 1 378 0
 1203 00c4 2046     		mov	r0, r4
 1204 00c6 FFF7FEFF 		bl	test_printn
 1205              	.LVL151:
 1206              		.loc 1 379 0
 1207 00ca 0D48     		ldr	r0, .L76+24
 1208 00cc FFF7FEFF 		bl	test_print
 1209              	.LVL152:
 1210              		.loc 1 380 0
 1211 00d0 04EB4400 		add	r0, r4, r4, lsl #1
 1212 00d4 4000     		lsls	r0, r0, #1
 1213 00d6 FFF7FEFF 		bl	test_printn
 1214              	.LVL153:
 1215              		.loc 1 381 0
 1216 00da 0A48     		ldr	r0, .L76+28
 1217              		.loc 1 382 0
 1218 00dc 02B0     		add	sp, sp, #8
 1219 00de BDE8F041 		pop	{r4, r5, r6, r7, r8, lr}
 1220              		.loc 1 381 0
 1221 00e2 FFF7FEBF 		b	test_println
 1222              	.LVL154:
 1223              	.L77:
 1224 00e6 00BF     		.align	2
 1225              	.L76:
 1226 00e8 00000000 		.word	wa
 1227 00ec 00000000 		.word	thread3
 1228 00f0 00000000 		.word	threads
 1229 00f4 00000000 		.word	test_timer_done
 1230 00f8 00000000 		.word	.LANCHOR1
 1231 00fc A8000000 		.word	.LC11
 1232 0100 08010000 		.word	.LC18
 1233 0104 FC000000 		.word	.LC17
 1234 0108 00000000 		.word	rlist
 1235              		.cfi_endproc
 1236              	.LFE19:
 1237              		.size	bmk7_execute, .-bmk7_execute
 1238 010c AFF30080 		.section	.text.bmk5_execute,"ax",%progbits
 1239              		.align	2
 1240              		.p2align 4,,15
 1241              		.thumb
 1242              		.thumb_func
 1243              		.type	bmk5_execute, %function
 1244              	bmk5_execute:
ARM GAS  /tmp/cczr1qYK.s 			page 23


 1245              	.LFB15:
 1246              		.loc 1 265 0
 1247              		.cfi_startproc
 1248              		@ args = 0, pretend = 0, frame = 0
 1249              		@ frame_needed = 0, uses_anonymous_args = 0
 1250              	.LVL155:
 1251 0000 2DE9F041 		push	{r4, r5, r6, r7, r8, lr}
 1252              	.LCFI14:
 1253              		.cfi_def_cfa_offset 24
 1254              		.cfi_offset 4, -24
 1255              		.cfi_offset 5, -20
 1256              		.cfi_offset 6, -16
 1257              		.cfi_offset 7, -12
 1258              		.cfi_offset 8, -8
 1259              		.cfi_offset 14, -4
 1260              		.loc 1 269 0
 1261 0004 154B     		ldr	r3, .L84
 1262              		.loc 1 268 0
 1263 0006 164A     		ldr	r2, .L84+4
 1264              		.loc 1 269 0
 1265 0008 9B69     		ldr	r3, [r3, #24]
 1266              		.loc 1 268 0
 1267 000a D2F80080 		ldr	r8, [r2, #0]
 1268              	.LVL156:
 1269              		.loc 1 269 0
 1270 000e 9E68     		ldr	r6, [r3, #8]
 1271 0010 144F     		ldr	r7, .L84+8
 1272              		.loc 1 265 0
 1273 0012 82B0     		sub	sp, sp, #8
 1274              	.LCFI15:
 1275              		.cfi_def_cfa_offset 32
 1276              		.loc 1 270 0
 1277 0014 FFF7FEFF 		bl	test_wait_tick
 1278              	.LVL157:
 1279              		.loc 1 271 0
 1280 0018 4FF47A70 		mov	r0, #1000
 1281 001c FFF7FEFF 		bl	test_start_timer
 1282              	.LVL158:
 1283              		.loc 1 267 0
 1284 0020 0024     		movs	r4, #0
 1285              		.loc 1 269 0
 1286 0022 013E     		subs	r6, r6, #1
 1287              	.LVL159:
 1288              		.loc 1 273 0
 1289 0024 2546     		mov	r5, r4
 1290              	.LVL160:
 1291              	.L79:
 1292              		.loc 1 273 0 is_stmt 0 discriminator 1
 1293 0026 104B     		ldr	r3, .L84+12
 1294 0028 0095     		str	r5, [sp, #0]
 1295 002a 4FF49871 		mov	r1, #304
 1296 002e 3246     		mov	r2, r6
 1297 0030 4046     		mov	r0, r8
 1298 0032 FFF7FEFF 		bl	chThdCreateStatic
 1299              	.LVL161:
 1300 0036 FFF7FEFF 		bl	chThdWait
 1301              	.LVL162:
ARM GAS  /tmp/cczr1qYK.s 			page 24


 1302              		.loc 1 278 0 is_stmt 1 discriminator 1
 1303 003a 3B78     		ldrb	r3, [r7, #0]	@ zero_extendqisi2
 1304              		.loc 1 274 0 discriminator 1
 1305 003c 0134     		adds	r4, r4, #1
 1306              	.LVL163:
 1307              		.loc 1 278 0 discriminator 1
 1308 003e 002B     		cmp	r3, #0
 1309 0040 F1D0     		beq	.L79
 1310              		.loc 1 279 0
 1311 0042 0A48     		ldr	r0, .L84+16
 1312 0044 FFF7FEFF 		bl	test_print
 1313              	.LVL164:
 1314              		.loc 1 280 0
 1315 0048 2046     		mov	r0, r4
 1316 004a FFF7FEFF 		bl	test_printn
 1317              	.LVL165:
 1318              		.loc 1 281 0
 1319 004e 0848     		ldr	r0, .L84+20
 1320              		.loc 1 282 0
 1321 0050 02B0     		add	sp, sp, #8
 1322 0052 BDE8F041 		pop	{r4, r5, r6, r7, r8, lr}
 1323              		.loc 1 281 0
 1324 0056 FFF7FEBF 		b	test_println
 1325              	.LVL166:
 1326              	.L85:
 1327 005a 00BF     		.align	2
 1328              	.L84:
 1329 005c 00000000 		.word	rlist
 1330 0060 00000000 		.word	wa
 1331 0064 00000000 		.word	test_timer_done
 1332 0068 00000000 		.word	thread2
 1333 006c A8000000 		.word	.LC11
 1334 0070 F0000000 		.word	.LC16
 1335              		.cfi_endproc
 1336              	.LFE15:
 1337              		.size	bmk5_execute, .-bmk5_execute
 1338 0074 AFF30080 		.section	.text.bmk4_execute,"ax",%progbits
 1338      AFF30080 
 1338      AFF30080 
 1339              		.align	2
 1340              		.p2align 4,,15
 1341              		.thumb
 1342              		.thumb_func
 1343              		.type	bmk4_execute, %function
 1344              	bmk4_execute:
 1345              	.LFB14:
 1346              		.loc 1 217 0
 1347              		.cfi_startproc
 1348              		@ args = 0, pretend = 0, frame = 0
 1349              		@ frame_needed = 0, uses_anonymous_args = 0
 1350 0000 70B5     		push	{r4, r5, r6, lr}
 1351              	.LCFI16:
 1352              		.cfi_def_cfa_offset 16
 1353              		.cfi_offset 4, -16
 1354              		.cfi_offset 5, -12
 1355              		.cfi_offset 6, -8
 1356              		.cfi_offset 14, -4
ARM GAS  /tmp/cczr1qYK.s 			page 25


 1357              		.loc 1 221 0
 1358 0002 254B     		ldr	r3, .L92
 1359 0004 254A     		ldr	r2, .L92+4
 1360 0006 9B69     		ldr	r3, [r3, #24]
 1361 0008 1068     		ldr	r0, [r2, #0]
 1362 000a 9A68     		ldr	r2, [r3, #8]
 1363 000c 244B     		ldr	r3, .L92+8
 1364 000e 254E     		ldr	r6, .L92+12
 1365              		.loc 1 217 0
 1366 0010 82B0     		sub	sp, sp, #8
 1367              	.LCFI17:
 1368              		.cfi_def_cfa_offset 24
 1369              		.loc 1 221 0
 1370 0012 0025     		movs	r5, #0
 1371 0014 0132     		adds	r2, r2, #1
 1372 0016 4FF49871 		mov	r1, #304
 1373 001a 0095     		str	r5, [sp, #0]
 1374 001c FFF7FEFF 		bl	chThdCreateStatic
 1375              	.LVL167:
 1376 0020 214B     		ldr	r3, .L92+16
 1377 0022 0446     		mov	r4, r0
 1378 0024 1860     		str	r0, [r3, #0]
 1379              	.LVL168:
 1380              		.loc 1 223 0
 1381 0026 FFF7FEFF 		bl	test_wait_tick
 1382              	.LVL169:
 1383              		.loc 1 224 0
 1384 002a 4FF47A70 		mov	r0, #1000
 1385 002e FFF7FEFF 		bl	test_start_timer
 1386              	.LVL170:
 1387              	.L87:
 1388              	.LBB6:
 1389              		.loc 1 226 0 discriminator 1
 1390 0032 2023     		movs	r3, #32
 1391              	.LVL171:
 1392              	@ 226 "/home/felix/Documents/ChibiOS/test/testbmk.c" 1
 1393 0034 83F31188 		msr     BASEPRI, r3
 1394              	@ 0 "" 2
 1395              	.LVL172:
 1396              		.thumb
 1397              	.LBE6:
 1398              		.loc 1 227 0 discriminator 1
 1399 0038 0021     		movs	r1, #0
 1400 003a 2046     		mov	r0, r4
 1401 003c FFF7FEFF 		bl	chSchWakeupS
 1402              	.LVL173:
 1403              		.loc 1 228 0 discriminator 1
 1404 0040 2046     		mov	r0, r4
 1405 0042 0021     		movs	r1, #0
 1406 0044 FFF7FEFF 		bl	chSchWakeupS
 1407              	.LVL174:
 1408              		.loc 1 229 0 discriminator 1
 1409 0048 2046     		mov	r0, r4
 1410 004a 0021     		movs	r1, #0
 1411 004c FFF7FEFF 		bl	chSchWakeupS
 1412              	.LVL175:
 1413              		.loc 1 230 0 discriminator 1
ARM GAS  /tmp/cczr1qYK.s 			page 26


 1414 0050 2046     		mov	r0, r4
 1415 0052 0021     		movs	r1, #0
 1416 0054 FFF7FEFF 		bl	chSchWakeupS
 1417              	.LVL176:
 1418              	.LBB7:
 1419              		.loc 1 231 0 discriminator 1
 1420 0058 0023     		movs	r3, #0
 1421              	.LVL177:
 1422              	@ 231 "/home/felix/Documents/ChibiOS/test/testbmk.c" 1
 1423 005a 83F31188 		msr     BASEPRI, r3
 1424              	@ 0 "" 2
 1425              	.LVL178:
 1426              		.thumb
 1427              	.LBE7:
 1428              		.loc 1 236 0 discriminator 1
 1429 005e 3378     		ldrb	r3, [r6, #0]	@ zero_extendqisi2
 1430              	.LVL179:
 1431              		.loc 1 232 0 discriminator 1
 1432 0060 0435     		adds	r5, r5, #4
 1433              	.LVL180:
 1434              		.loc 1 236 0 discriminator 1
 1435 0062 002B     		cmp	r3, #0
 1436 0064 E5D0     		beq	.L87
 1437              	.LBB8:
 1438              		.loc 1 237 0
 1439 0066 2023     		movs	r3, #32
 1440              	.LVL181:
 1441              	@ 237 "/home/felix/Documents/ChibiOS/test/testbmk.c" 1
 1442 0068 83F31188 		msr     BASEPRI, r3
 1443              	@ 0 "" 2
 1444              	.LVL182:
 1445              		.thumb
 1446              	.LBE8:
 1447              		.loc 1 238 0
 1448 006c 4FF0FF31 		mov	r1, #-1
 1449 0070 2046     		mov	r0, r4
 1450 0072 FFF7FEFF 		bl	chSchWakeupS
 1451              	.LVL183:
 1452              	.LBB9:
 1453              		.loc 1 239 0
 1454 0076 0023     		movs	r3, #0
 1455              	.LVL184:
 1456              	@ 239 "/home/felix/Documents/ChibiOS/test/testbmk.c" 1
 1457 0078 83F31188 		msr     BASEPRI, r3
 1458              	@ 0 "" 2
 1459              	.LVL185:
 1460              		.thumb
 1461              	.LBE9:
 1462              		.loc 1 241 0
 1463 007c FFF7FEFF 		bl	test_wait_threads
 1464              	.LVL186:
 1465              		.loc 1 242 0
 1466 0080 0A48     		ldr	r0, .L92+20
 1467 0082 FFF7FEFF 		bl	test_print
 1468              	.LVL187:
 1469              		.loc 1 243 0
 1470 0086 6800     		lsls	r0, r5, #1
ARM GAS  /tmp/cczr1qYK.s 			page 27


 1471 0088 FFF7FEFF 		bl	test_printn
 1472              	.LVL188:
 1473              		.loc 1 244 0
 1474 008c 0848     		ldr	r0, .L92+24
 1475              		.loc 1 245 0
 1476 008e 02B0     		add	sp, sp, #8
 1477 0090 BDE87040 		pop	{r4, r5, r6, lr}
 1478              		.loc 1 244 0
 1479 0094 FFF7FEBF 		b	test_println
 1480              	.LVL189:
 1481              	.L93:
 1482              		.align	2
 1483              	.L92:
 1484 0098 00000000 		.word	rlist
 1485 009c 00000000 		.word	wa
 1486 00a0 00000000 		.word	thread4
 1487 00a4 00000000 		.word	test_timer_done
 1488 00a8 00000000 		.word	threads
 1489 00ac A8000000 		.word	.LC11
 1490 00b0 FC000000 		.word	.LC17
 1491              		.cfi_endproc
 1492              	.LFE14:
 1493              		.size	bmk4_execute, .-bmk4_execute
 1494 00b4 AFF30080 		.section	.text.msg_loop_test,"ax",%progbits
 1494      AFF30080 
 1494      AFF30080 
 1495              		.align	2
 1496              		.p2align 4,,15
 1497              		.thumb
 1498              		.thumb_func
 1499              		.type	msg_loop_test, %function
 1500              	msg_loop_test:
 1501              	.LFB8:
 1502              		.loc 1 80 0
 1503              		.cfi_startproc
 1504              		@ args = 0, pretend = 0, frame = 0
 1505              		@ frame_needed = 0, uses_anonymous_args = 0
 1506              	.LVL190:
 1507 0000 70B5     		push	{r4, r5, r6, lr}
 1508              	.LCFI18:
 1509              		.cfi_def_cfa_offset 16
 1510              		.cfi_offset 4, -16
 1511              		.cfi_offset 5, -12
 1512              		.cfi_offset 6, -8
 1513              		.cfi_offset 14, -4
 1514              		.loc 1 80 0
 1515 0002 0546     		mov	r5, r0
 1516              		.loc 1 83 0
 1517 0004 FFF7FEFF 		bl	test_wait_tick
 1518              	.LVL191:
 1519              		.loc 1 84 0
 1520 0008 4FF47A70 		mov	r0, #1000
 1521 000c FFF7FEFF 		bl	test_start_timer
 1522              	.LVL192:
 1523 0010 074E     		ldr	r6, .L100
 1524              		.loc 1 82 0
 1525 0012 0024     		movs	r4, #0
ARM GAS  /tmp/cczr1qYK.s 			page 28


 1526              	.LVL193:
 1527              	.L95:
 1528              		.loc 1 86 0 discriminator 1
 1529 0014 2846     		mov	r0, r5
 1530 0016 0121     		movs	r1, #1
 1531 0018 FFF7FEFF 		bl	chMsgSend
 1532              	.LVL194:
 1533              		.loc 1 91 0 discriminator 1
 1534 001c 3378     		ldrb	r3, [r6, #0]	@ zero_extendqisi2
 1535              		.loc 1 87 0 discriminator 1
 1536 001e 0134     		adds	r4, r4, #1
 1537              	.LVL195:
 1538              		.loc 1 91 0 discriminator 1
 1539 0020 002B     		cmp	r3, #0
 1540 0022 F7D0     		beq	.L95
 1541              		.loc 1 92 0
 1542 0024 2846     		mov	r0, r5
 1543 0026 0021     		movs	r1, #0
 1544 0028 FFF7FEFF 		bl	chMsgSend
 1545              	.LVL196:
 1546              		.loc 1 94 0
 1547 002c 2046     		mov	r0, r4
 1548 002e 70BD     		pop	{r4, r5, r6, pc}
 1549              	.L101:
 1550              		.align	2
 1551              	.L100:
 1552 0030 00000000 		.word	test_timer_done
 1553              		.cfi_endproc
 1554              	.LFE8:
 1555              		.size	msg_loop_test, .-msg_loop_test
 1556 0034 AFF30080 		.section	.text.bmk3_execute,"ax",%progbits
 1556      AFF30080 
 1556      AFF30080 
 1557              		.align	2
 1558              		.p2align 4,,15
 1559              		.thumb
 1560              		.thumb_func
 1561              		.type	bmk3_execute, %function
 1562              	bmk3_execute:
 1563              	.LFB12:
 1564              		.loc 1 169 0
 1565              		.cfi_startproc
 1566              		@ args = 0, pretend = 0, frame = 0
 1567              		@ frame_needed = 0, uses_anonymous_args = 0
 1568 0000 2DE9F041 		push	{r4, r5, r6, r7, r8, lr}
 1569              	.LCFI19:
 1570              		.cfi_def_cfa_offset 24
 1571              		.cfi_offset 4, -24
 1572              		.cfi_offset 5, -20
 1573              		.cfi_offset 6, -16
 1574              		.cfi_offset 7, -12
 1575              		.cfi_offset 8, -8
 1576              		.cfi_offset 14, -4
 1577              		.loc 1 172 0
 1578 0004 40F20006 		movw	r6, #:lower16:rlist
 1579 0008 C0F20006 		movt	r6, #:upper16:rlist
 1580 000c 40F20005 		movw	r5, #:lower16:wa
ARM GAS  /tmp/cczr1qYK.s 			page 29


 1581 0010 B369     		ldr	r3, [r6, #24]
 1582              		.loc 1 169 0
 1583 0012 82B0     		sub	sp, sp, #8
 1584              	.LCFI20:
 1585              		.cfi_def_cfa_offset 32
 1586              		.loc 1 172 0
 1587 0014 C0F20005 		movt	r5, #:upper16:wa
 1588 0018 9A68     		ldr	r2, [r3, #8]
 1589 001a 2868     		ldr	r0, [r5, #0]
 1590 001c 4FF00008 		mov	r8, #0
 1591 0020 40F20003 		movw	r3, #:lower16:thread1
 1592 0024 0132     		adds	r2, r2, #1
 1593 0026 C0F20003 		movt	r3, #:upper16:thread1
 1594 002a CDF80080 		str	r8, [sp, #0]
 1595 002e 4FF49871 		mov	r1, #304
 1596 0032 FFF7FEFF 		bl	chThdCreateStatic
 1597              	.LVL197:
 1598              		.loc 1 173 0
 1599 0036 B269     		ldr	r2, [r6, #24]
 1600 0038 6B68     		ldr	r3, [r5, #4]
 1601 003a 9268     		ldr	r2, [r2, #8]
 1602 003c CDF80080 		str	r8, [sp, #0]
 1603              		.loc 1 172 0
 1604 0040 40F20004 		movw	r4, #:lower16:threads
 1605 0044 C0F20004 		movt	r4, #:upper16:threads
 1606              		.loc 1 173 0
 1607 0048 40F20007 		movw	r7, #:lower16:thread2
 1608 004c C0F20007 		movt	r7, #:upper16:thread2
 1609              		.loc 1 172 0
 1610 0050 2060     		str	r0, [r4, #0]
 1611              		.loc 1 173 0
 1612 0052 023A     		subs	r2, r2, #2
 1613 0054 1846     		mov	r0, r3
 1614 0056 4FF49871 		mov	r1, #304
 1615 005a 3B46     		mov	r3, r7
 1616 005c FFF7FEFF 		bl	chThdCreateStatic
 1617              	.LVL198:
 1618              		.loc 1 174 0
 1619 0060 B269     		ldr	r2, [r6, #24]
 1620 0062 AB68     		ldr	r3, [r5, #8]
 1621 0064 9268     		ldr	r2, [r2, #8]
 1622              		.loc 1 173 0
 1623 0066 6060     		str	r0, [r4, #4]
 1624              		.loc 1 174 0
 1625 0068 033A     		subs	r2, r2, #3
 1626 006a CDF80080 		str	r8, [sp, #0]
 1627 006e 1846     		mov	r0, r3
 1628 0070 4FF49871 		mov	r1, #304
 1629 0074 3B46     		mov	r3, r7
 1630 0076 FFF7FEFF 		bl	chThdCreateStatic
 1631              	.LVL199:
 1632              		.loc 1 175 0
 1633 007a B269     		ldr	r2, [r6, #24]
 1634 007c EB68     		ldr	r3, [r5, #12]
 1635 007e 9268     		ldr	r2, [r2, #8]
 1636              		.loc 1 174 0
 1637 0080 A060     		str	r0, [r4, #8]
ARM GAS  /tmp/cczr1qYK.s 			page 30


 1638              		.loc 1 175 0
 1639 0082 043A     		subs	r2, r2, #4
 1640 0084 CDF80080 		str	r8, [sp, #0]
 1641 0088 1846     		mov	r0, r3
 1642 008a 4FF49871 		mov	r1, #304
 1643 008e 3B46     		mov	r3, r7
 1644 0090 FFF7FEFF 		bl	chThdCreateStatic
 1645              	.LVL200:
 1646              		.loc 1 176 0
 1647 0094 B269     		ldr	r2, [r6, #24]
 1648 0096 2B69     		ldr	r3, [r5, #16]
 1649 0098 9268     		ldr	r2, [r2, #8]
 1650              		.loc 1 175 0
 1651 009a E060     		str	r0, [r4, #12]
 1652              		.loc 1 176 0
 1653 009c 053A     		subs	r2, r2, #5
 1654 009e 4FF49871 		mov	r1, #304
 1655 00a2 1846     		mov	r0, r3
 1656 00a4 CDF80080 		str	r8, [sp, #0]
 1657 00a8 3B46     		mov	r3, r7
 1658 00aa FFF7FEFF 		bl	chThdCreateStatic
 1659              	.LVL201:
 1660 00ae 2061     		str	r0, [r4, #16]
 1661              		.loc 1 177 0
 1662 00b0 2068     		ldr	r0, [r4, #0]
 1663 00b2 FFF7FEFF 		bl	msg_loop_test
 1664              	.LVL202:
 1665 00b6 0446     		mov	r4, r0
 1666              	.LVL203:
 1667              		.loc 1 178 0
 1668 00b8 FFF7FEFF 		bl	test_wait_threads
 1669              	.LVL204:
 1670              		.loc 1 179 0
 1671 00bc 40F20000 		movw	r0, #:lower16:.LC11
 1672 00c0 C0F20000 		movt	r0, #:upper16:.LC11
 1673 00c4 FFF7FEFF 		bl	test_print
 1674              	.LVL205:
 1675              		.loc 1 180 0
 1676 00c8 2046     		mov	r0, r4
 1677 00ca FFF7FEFF 		bl	test_printn
 1678              	.LVL206:
 1679              		.loc 1 181 0
 1680 00ce 40F20000 		movw	r0, #:lower16:.LC19
 1681 00d2 C0F20000 		movt	r0, #:upper16:.LC19
 1682 00d6 FFF7FEFF 		bl	test_print
 1683              	.LVL207:
 1684              		.loc 1 182 0
 1685 00da 6000     		lsls	r0, r4, #1
 1686 00dc FFF7FEFF 		bl	test_printn
 1687              	.LVL208:
 1688              		.loc 1 183 0
 1689 00e0 40F20000 		movw	r0, #:lower16:.LC17
 1690 00e4 C0F20000 		movt	r0, #:upper16:.LC17
 1691              		.loc 1 184 0
 1692 00e8 02B0     		add	sp, sp, #8
 1693 00ea BDE8F041 		pop	{r4, r5, r6, r7, r8, lr}
 1694              		.loc 1 183 0
ARM GAS  /tmp/cczr1qYK.s 			page 31


 1695 00ee FFF7FEBF 		b	test_println
 1696              	.LVL209:
 1697              		.cfi_endproc
 1698              	.LFE12:
 1699              		.size	bmk3_execute, .-bmk3_execute
 1700 00f2 00BFAFF3 		.section	.text.bmk2_execute,"ax",%progbits
 1700      0080AFF3 
 1700      0080AFF3 
 1700      0080
 1701              		.align	2
 1702              		.p2align 4,,15
 1703              		.thumb
 1704              		.thumb_func
 1705              		.type	bmk2_execute, %function
 1706              	bmk2_execute:
 1707              	.LFB10:
 1708              		.loc 1 134 0
 1709              		.cfi_startproc
 1710              		@ args = 0, pretend = 0, frame = 0
 1711              		@ frame_needed = 0, uses_anonymous_args = 0
 1712 0000 10B5     		push	{r4, lr}
 1713              	.LCFI21:
 1714              		.cfi_def_cfa_offset 8
 1715              		.cfi_offset 4, -8
 1716              		.cfi_offset 14, -4
 1717              		.loc 1 137 0
 1718 0002 40F20002 		movw	r2, #:lower16:rlist
 1719 0006 C0F20002 		movt	r2, #:upper16:rlist
 1720 000a 40F20003 		movw	r3, #:lower16:wa
 1721 000e 9269     		ldr	r2, [r2, #24]
 1722 0010 C0F20003 		movt	r3, #:upper16:wa
 1723              		.loc 1 134 0
 1724 0014 82B0     		sub	sp, sp, #8
 1725              	.LCFI22:
 1726              		.cfi_def_cfa_offset 16
 1727              		.loc 1 137 0
 1728 0016 9268     		ldr	r2, [r2, #8]
 1729 0018 1868     		ldr	r0, [r3, #0]
 1730 001a 0021     		movs	r1, #0
 1731 001c 40F20003 		movw	r3, #:lower16:thread1
 1732 0020 0132     		adds	r2, r2, #1
 1733 0022 0091     		str	r1, [sp, #0]
 1734 0024 C0F20003 		movt	r3, #:upper16:thread1
 1735 0028 4FF49871 		mov	r1, #304
 1736 002c FFF7FEFF 		bl	chThdCreateStatic
 1737              	.LVL210:
 1738 0030 40F20003 		movw	r3, #:lower16:threads
 1739 0034 C0F20003 		movt	r3, #:upper16:threads
 1740 0038 1860     		str	r0, [r3, #0]
 1741              		.loc 1 138 0
 1742 003a FFF7FEFF 		bl	msg_loop_test
 1743              	.LVL211:
 1744 003e 0446     		mov	r4, r0
 1745              	.LVL212:
 1746              		.loc 1 139 0
 1747 0040 FFF7FEFF 		bl	test_wait_threads
 1748              	.LVL213:
ARM GAS  /tmp/cczr1qYK.s 			page 32


 1749              		.loc 1 140 0
 1750 0044 40F20000 		movw	r0, #:lower16:.LC11
 1751 0048 C0F20000 		movt	r0, #:upper16:.LC11
 1752 004c FFF7FEFF 		bl	test_print
 1753              	.LVL214:
 1754              		.loc 1 141 0
 1755 0050 2046     		mov	r0, r4
 1756 0052 FFF7FEFF 		bl	test_printn
 1757              	.LVL215:
 1758              		.loc 1 142 0
 1759 0056 40F20000 		movw	r0, #:lower16:.LC19
 1760 005a C0F20000 		movt	r0, #:upper16:.LC19
 1761 005e FFF7FEFF 		bl	test_print
 1762              	.LVL216:
 1763              		.loc 1 143 0
 1764 0062 6000     		lsls	r0, r4, #1
 1765 0064 FFF7FEFF 		bl	test_printn
 1766              	.LVL217:
 1767              		.loc 1 144 0
 1768 0068 40F20000 		movw	r0, #:lower16:.LC17
 1769 006c C0F20000 		movt	r0, #:upper16:.LC17
 1770              		.loc 1 145 0
 1771 0070 02B0     		add	sp, sp, #8
 1772 0072 BDE81040 		pop	{r4, lr}
 1773              		.loc 1 144 0
 1774 0076 FFF7FEBF 		b	test_println
 1775              	.LVL218:
 1776              		.cfi_endproc
 1777              	.LFE10:
 1778              		.size	bmk2_execute, .-bmk2_execute
 1779 007a 00BFAFF3 		.section	.text.bmk1_execute,"ax",%progbits
 1779      0080
 1780              		.align	2
 1781              		.p2align 4,,15
 1782              		.thumb
 1783              		.thumb_func
 1784              		.type	bmk1_execute, %function
 1785              	bmk1_execute:
 1786              	.LFB9:
 1787              		.loc 1 105 0
 1788              		.cfi_startproc
 1789              		@ args = 0, pretend = 0, frame = 0
 1790              		@ frame_needed = 0, uses_anonymous_args = 0
 1791 0000 10B5     		push	{r4, lr}
 1792              	.LCFI23:
 1793              		.cfi_def_cfa_offset 8
 1794              		.cfi_offset 4, -8
 1795              		.cfi_offset 14, -4
 1796              		.loc 1 108 0
 1797 0002 40F20002 		movw	r2, #:lower16:rlist
 1798 0006 C0F20002 		movt	r2, #:upper16:rlist
 1799 000a 40F20003 		movw	r3, #:lower16:wa
 1800 000e 9269     		ldr	r2, [r2, #24]
 1801 0010 C0F20003 		movt	r3, #:upper16:wa
 1802              		.loc 1 105 0
 1803 0014 82B0     		sub	sp, sp, #8
 1804              	.LCFI24:
ARM GAS  /tmp/cczr1qYK.s 			page 33


 1805              		.cfi_def_cfa_offset 16
 1806              		.loc 1 108 0
 1807 0016 9268     		ldr	r2, [r2, #8]
 1808 0018 1868     		ldr	r0, [r3, #0]
 1809 001a 0021     		movs	r1, #0
 1810 001c 40F20003 		movw	r3, #:lower16:thread1
 1811 0020 013A     		subs	r2, r2, #1
 1812 0022 0091     		str	r1, [sp, #0]
 1813 0024 C0F20003 		movt	r3, #:upper16:thread1
 1814 0028 4FF49871 		mov	r1, #304
 1815 002c FFF7FEFF 		bl	chThdCreateStatic
 1816              	.LVL219:
 1817 0030 40F20003 		movw	r3, #:lower16:threads
 1818 0034 C0F20003 		movt	r3, #:upper16:threads
 1819 0038 1860     		str	r0, [r3, #0]
 1820              		.loc 1 109 0
 1821 003a FFF7FEFF 		bl	msg_loop_test
 1822              	.LVL220:
 1823 003e 0446     		mov	r4, r0
 1824              	.LVL221:
 1825              		.loc 1 110 0
 1826 0040 FFF7FEFF 		bl	test_wait_threads
 1827              	.LVL222:
 1828              		.loc 1 111 0
 1829 0044 40F20000 		movw	r0, #:lower16:.LC11
 1830 0048 C0F20000 		movt	r0, #:upper16:.LC11
 1831 004c FFF7FEFF 		bl	test_print
 1832              	.LVL223:
 1833              		.loc 1 112 0
 1834 0050 2046     		mov	r0, r4
 1835 0052 FFF7FEFF 		bl	test_printn
 1836              	.LVL224:
 1837              		.loc 1 113 0
 1838 0056 40F20000 		movw	r0, #:lower16:.LC19
 1839 005a C0F20000 		movt	r0, #:upper16:.LC19
 1840 005e FFF7FEFF 		bl	test_print
 1841              	.LVL225:
 1842              		.loc 1 114 0
 1843 0062 6000     		lsls	r0, r4, #1
 1844 0064 FFF7FEFF 		bl	test_printn
 1845              	.LVL226:
 1846              		.loc 1 115 0
 1847 0068 40F20000 		movw	r0, #:lower16:.LC17
 1848 006c C0F20000 		movt	r0, #:upper16:.LC17
 1849              		.loc 1 116 0
 1850 0070 02B0     		add	sp, sp, #8
 1851 0072 BDE81040 		pop	{r4, lr}
 1852              		.loc 1 115 0
 1853 0076 FFF7FEBF 		b	test_println
 1854              	.LVL227:
 1855              		.cfi_endproc
 1856              	.LFE9:
 1857              		.size	bmk1_execute, .-bmk1_execute
 1858 007a 00BFAFF3 		.section	.text.thread1,"ax",%progbits
 1858      0080
 1859              		.align	2
 1860              		.p2align 4,,15
ARM GAS  /tmp/cczr1qYK.s 			page 34


 1861              		.thumb
 1862              		.thumb_func
 1863              		.type	thread1, %function
 1864              	thread1:
 1865              	.LFB7:
 1866              		.loc 1 64 0
 1867              		.cfi_startproc
 1868              		@ args = 0, pretend = 0, frame = 0
 1869              		@ frame_needed = 0, uses_anonymous_args = 0
 1870              	.LVL228:
 1871 0000 10B5     		push	{r4, lr}
 1872              	.LCFI25:
 1873              		.cfi_def_cfa_offset 8
 1874              		.cfi_offset 4, -8
 1875              		.cfi_offset 14, -4
 1876              	.LVL229:
 1877              	.L106:
 1878              		.loc 1 70 0 discriminator 1
 1879 0002 FFF7FEFF 		bl	chMsgWait
 1880              	.LVL230:
 1881              		.loc 1 71 0 discriminator 1
 1882 0006 446B     		ldr	r4, [r0, #52]
 1883              	.LVL231:
 1884              		.loc 1 72 0 discriminator 1
 1885 0008 2146     		mov	r1, r4
 1886 000a FFF7FEFF 		bl	chMsgRelease
 1887              	.LVL232:
 1888              		.loc 1 73 0 discriminator 1
 1889 000e 002C     		cmp	r4, #0
 1890 0010 F7D1     		bne	.L106
 1891              		.loc 1 75 0
 1892 0012 2046     		mov	r0, r4
 1893 0014 10BD     		pop	{r4, pc}
 1894              		.cfi_endproc
 1895              	.LFE7:
 1896              		.size	thread1, .-thread1
 1897 0016 00BFAFF3 		.section	.text.thread4,"ax",%progbits
 1897      0080AFF3 
 1897      0080
 1898              		.align	2
 1899              		.p2align 4,,15
 1900              		.global	thread4
 1901              		.thumb
 1902              		.thumb_func
 1903              		.type	thread4, %function
 1904              	thread4:
 1905              	.LFB13:
 1906              		.loc 1 203 0
 1907              		.cfi_startproc
 1908              		@ args = 0, pretend = 0, frame = 0
 1909              		@ frame_needed = 0, uses_anonymous_args = 0
 1910              	.LVL233:
 1911              		.loc 1 205 0
 1912 0000 084A     		ldr	r2, .L114
 1913              		.loc 1 203 0
 1914 0002 10B5     		push	{r4, lr}
 1915              	.LCFI26:
ARM GAS  /tmp/cczr1qYK.s 			page 35


 1916              		.cfi_def_cfa_offset 8
 1917              		.cfi_offset 4, -8
 1918              		.cfi_offset 14, -4
 1919              	.LBB10:
 1920              		.loc 1 208 0
 1921 0004 2023     		movs	r3, #32
 1922              	.LVL234:
 1923              	.LBE10:
 1924              		.loc 1 205 0
 1925 0006 9469     		ldr	r4, [r2, #24]
 1926              	.LVL235:
 1927              	.LBB11:
 1928              		.loc 1 208 0
 1929              	@ 208 "/home/felix/Documents/ChibiOS/test/testbmk.c" 1
 1930 0008 83F31188 		msr     BASEPRI, r3
 1931              	@ 0 "" 2
 1932              	.LVL236:
 1933              		.thumb
 1934              	.L109:
 1935              	.LBE11:
 1936              		.loc 1 210 0 discriminator 1
 1937 000c 0220     		movs	r0, #2
 1938 000e FFF7FEFF 		bl	chSchGoSleepS
 1939              	.LVL237:
 1940              		.loc 1 212 0 discriminator 1
 1941 0012 636A     		ldr	r3, [r4, #36]
 1942 0014 002B     		cmp	r3, #0
 1943 0016 F9D0     		beq	.L109
 1944              	.LBB12:
 1945              		.loc 1 213 0
 1946 0018 0023     		movs	r3, #0
 1947              	.LVL238:
 1948              	@ 213 "/home/felix/Documents/ChibiOS/test/testbmk.c" 1
 1949 001a 83F31188 		msr     BASEPRI, r3
 1950              	@ 0 "" 2
 1951              	.LVL239:
 1952              		.thumb
 1953              	.LBE12:
 1954              		.loc 1 215 0
 1955 001e 1846     		mov	r0, r3
 1956 0020 10BD     		pop	{r4, pc}
 1957              	.L115:
 1958 0022 00BF     		.align	2
 1959              	.L114:
 1960 0024 00000000 		.word	rlist
 1961              		.cfi_endproc
 1962              	.LFE13:
 1963              		.size	thread4, .-thread4
 1964              		.global	patternbmk
 1965              		.global	testbmk13
 1966              		.global	testbmk12
 1967              		.global	testbmk11
 1968              		.global	testbmk10
 1969              		.global	testbmk9
 1970              		.global	testbmk8
 1971              		.global	testbmk7
 1972              		.global	testbmk6
ARM GAS  /tmp/cczr1qYK.s 			page 36


 1973              		.global	testbmk5
 1974              		.global	testbmk4
 1975              		.global	testbmk3
 1976              		.global	testbmk2
 1977              		.global	testbmk1
 1978 0028 AFF30080 		.section	.rodata.testbmk8,"a",%progbits
 1978      AFF30080 
 1979              		.align	2
 1980              		.type	testbmk8, %object
 1981              		.size	testbmk8, 16
 1982              	testbmk8:
 1983 0000 D0010000 		.word	.LC25
 1984 0004 00000000 		.word	0
 1985 0008 00000000 		.word	0
 1986 000c 00000000 		.word	bmk8_execute
 1987              		.section	.rodata.patternbmk,"a",%progbits
 1988              		.align	2
 1989              		.type	patternbmk, %object
 1990              		.size	patternbmk, 56
 1991              	patternbmk:
 1992 0000 00000000 		.word	testbmk1
 1993 0004 00000000 		.word	testbmk2
 1994 0008 00000000 		.word	testbmk3
 1995 000c 00000000 		.word	testbmk4
 1996 0010 00000000 		.word	testbmk5
 1997 0014 00000000 		.word	testbmk6
 1998 0018 00000000 		.word	testbmk7
 1999 001c 00000000 		.word	testbmk8
 2000 0020 00000000 		.word	testbmk9
 2001 0024 00000000 		.word	testbmk10
 2002 0028 00000000 		.word	testbmk11
 2003 002c 00000000 		.word	testbmk12
 2004 0030 00000000 		.word	testbmk13
 2005 0034 00000000 		.word	0
 2006              		.section	.bss.iq.4920,"aw",%nobits
 2007              		.align	2
 2008              		.set	.LANCHOR4,. + 0
 2009              		.type	iq.4920, %object
 2010              		.size	iq.4920, 36
 2011              	iq.4920:
 2012 0000 00000000 		.space	36
 2012      00000000 
 2012      00000000 
 2012      00000000 
 2012      00000000 
 2013              		.section	.rodata.testbmk3,"a",%progbits
 2014              		.align	2
 2015              		.type	testbmk3, %object
 2016              		.size	testbmk3, 16
 2017              	testbmk3:
 2018 0000 80020000 		.word	.LC30
 2019 0004 00000000 		.word	0
 2020 0008 00000000 		.word	0
 2021 000c 00000000 		.word	bmk3_execute
 2022              		.section	.rodata.testbmk10,"a",%progbits
 2023              		.align	2
 2024              		.type	testbmk10, %object
ARM GAS  /tmp/cczr1qYK.s 			page 37


 2025              		.size	testbmk10, 16
 2026              	testbmk10:
 2027 0000 88010000 		.word	.LC23
 2028 0004 00000000 		.word	0
 2029 0008 00000000 		.word	0
 2030 000c 00000000 		.word	bmk10_execute
 2031              		.section	.rodata.testbmk11,"a",%progbits
 2032              		.align	2
 2033              		.type	testbmk11, %object
 2034              		.size	testbmk11, 16
 2035              	testbmk11:
 2036 0000 64010000 		.word	.LC22
 2037 0004 00000000 		.word	bmk11_setup
 2038 0008 00000000 		.word	0
 2039 000c 00000000 		.word	bmk11_execute
 2040              		.section	.bss.mtx1,"aw",%nobits
 2041              		.align	2
 2042              		.set	.LANCHOR0,. + 0
 2043              		.type	mtx1, %object
 2044              		.size	mtx1, 16
 2045              	mtx1:
 2046 0000 00000000 		.space	16
 2046      00000000 
 2046      00000000 
 2046      00000000 
 2047              		.section	.rodata.testbmk4,"a",%progbits
 2048              		.align	2
 2049              		.type	testbmk4, %object
 2050              		.size	testbmk4, 16
 2051              	testbmk4:
 2052 0000 64020000 		.word	.LC29
 2053 0004 00000000 		.word	0
 2054 0008 00000000 		.word	0
 2055 000c 00000000 		.word	bmk4_execute
 2056              		.section	.rodata.testbmk13,"a",%progbits
 2057              		.align	2
 2058              		.type	testbmk13, %object
 2059              		.size	testbmk13, 16
 2060              	testbmk13:
 2061 0000 28010000 		.word	.LC20
 2062 0004 00000000 		.word	0
 2063 0008 00000000 		.word	0
 2064 000c 00000000 		.word	bmk13_execute
 2065              		.section	.rodata.testbmk2,"a",%progbits
 2066              		.align	2
 2067              		.type	testbmk2, %object
 2068              		.size	testbmk2, 16
 2069              	testbmk2:
 2070 0000 98020000 		.word	.LC31
 2071 0004 00000000 		.word	0
 2072 0008 00000000 		.word	0
 2073 000c 00000000 		.word	bmk2_execute
 2074              		.section	.rodata.str1.4,"aMS",%progbits,1
 2075              		.align	2
 2076              	.LC0:
 2077 0000 2D2D2D20 		.ascii	"--- System: \000"
 2077      53797374 
ARM GAS  /tmp/cczr1qYK.s 			page 38


 2077      656D3A20 
 2077      00
 2078 000d 000000   		.space	3
 2079              	.LC1:
 2080 0010 20627974 		.ascii	" bytes\000"
 2080      657300
 2081 0017 00       		.space	1
 2082              	.LC2:
 2083 0018 2D2D2D20 		.ascii	"--- Thread: \000"
 2083      54687265 
 2083      61643A20 
 2083      00
 2084 0025 000000   		.space	3
 2085              	.LC3:
 2086 0028 2D2D2D20 		.ascii	"--- Timer : \000"
 2086      54696D65 
 2086      72203A20 
 2086      00
 2087 0035 000000   		.space	3
 2088              	.LC4:
 2089 0038 2D2D2D20 		.ascii	"--- Semaph: \000"
 2089      53656D61 
 2089      70683A20 
 2089      00
 2090 0045 000000   		.space	3
 2091              	.LC5:
 2092 0048 2D2D2D20 		.ascii	"--- EventS: \000"
 2092      4576656E 
 2092      74533A20 
 2092      00
 2093 0055 000000   		.space	3
 2094              	.LC6:
 2095 0058 2D2D2D20 		.ascii	"--- EventL: \000"
 2095      4576656E 
 2095      744C3A20 
 2095      00
 2096 0065 000000   		.space	3
 2097              	.LC7:
 2098 0068 2D2D2D20 		.ascii	"--- Mutex : \000"
 2098      4D757465 
 2098      78203A20 
 2098      00
 2099 0075 000000   		.space	3
 2100              	.LC8:
 2101 0078 2D2D2D20 		.ascii	"--- CondV.: \000"
 2101      436F6E64 
 2101      562E3A20 
 2101      00
 2102 0085 000000   		.space	3
 2103              	.LC9:
 2104 0088 2D2D2D20 		.ascii	"--- Queue : \000"
 2104      51756575 
 2104      65203A20 
 2104      00
 2105 0095 000000   		.space	3
 2106              	.LC10:
 2107 0098 2D2D2D20 		.ascii	"--- MailB.: \000"
ARM GAS  /tmp/cczr1qYK.s 			page 39


 2107      4D61696C 
 2107      422E3A20 
 2107      00
 2108 00a5 000000   		.space	3
 2109              	.LC11:
 2110 00a8 2D2D2D20 		.ascii	"--- Score : \000"
 2110      53636F72 
 2110      65203A20 
 2110      00
 2111 00b5 000000   		.space	3
 2112              	.LC12:
 2113 00b8 206C6F63 		.ascii	" lock+unlock/S\000"
 2113      6B2B756E 
 2113      6C6F636B 
 2113      2F5300
 2114 00c7 00       		.space	1
 2115              	.LC13:
 2116 00c8 20776169 		.ascii	" wait+signal/S\000"
 2116      742B7369 
 2116      676E616C 
 2116      2F5300
 2117 00d7 00       		.space	1
 2118              	.LC14:
 2119 00d8 2074696D 		.ascii	" timers/S\000"
 2119      6572732F 
 2119      5300
 2120 00e2 0000     		.space	2
 2121              	.LC15:
 2122 00e4 20627974 		.ascii	" bytes/S\000"
 2122      65732F53 
 2122      00
 2123 00ed 000000   		.space	3
 2124              	.LC16:
 2125 00f0 20746872 		.ascii	" threads/S\000"
 2125      65616473 
 2125      2F5300
 2126 00fb 00       		.space	1
 2127              	.LC17:
 2128 00fc 20637478 		.ascii	" ctxswc/S\000"
 2128      7377632F 
 2128      5300
 2129 0106 0000     		.space	2
 2130              	.LC18:
 2131 0108 20726573 		.ascii	" reschedules/S, \000"
 2131      63686564 
 2131      756C6573 
 2131      2F532C20 
 2131      00
 2132 0119 000000   		.space	3
 2133              	.LC19:
 2134 011c 206D7367 		.ascii	" msgs/S, \000"
 2134      732F532C 
 2134      2000
 2135 0126 0000     		.space	2
 2136              	.LC20:
 2137 0128 42656E63 		.ascii	"Benchmark, RAM footprint\000"
 2137      686D6172 
ARM GAS  /tmp/cczr1qYK.s 			page 40


 2137      6B2C2052 
 2137      414D2066 
 2137      6F6F7470 
 2138 0141 000000   		.space	3
 2139              	.LC21:
 2140 0144 42656E63 		.ascii	"Benchmark, mutexes lock/unlock\000"
 2140      686D6172 
 2140      6B2C206D 
 2140      75746578 
 2140      6573206C 
 2141 0163 00       		.space	1
 2142              	.LC22:
 2143 0164 42656E63 		.ascii	"Benchmark, semaphores wait/signal\000"
 2143      686D6172 
 2143      6B2C2073 
 2143      656D6170 
 2143      686F7265 
 2144 0186 0000     		.space	2
 2145              	.LC23:
 2146 0188 42656E63 		.ascii	"Benchmark, virtual timers set/reset\000"
 2146      686D6172 
 2146      6B2C2076 
 2146      69727475 
 2146      616C2074 
 2147              	.LC24:
 2148 01ac 42656E63 		.ascii	"Benchmark, I/O Queues throughput\000"
 2148      686D6172 
 2148      6B2C2049 
 2148      2F4F2051 
 2148      75657565 
 2149 01cd 000000   		.space	3
 2150              	.LC25:
 2151 01d0 42656E63 		.ascii	"Benchmark, round robin context switching\000"
 2151      686D6172 
 2151      6B2C2072 
 2151      6F756E64 
 2151      20726F62 
 2152 01f9 000000   		.space	3
 2153              	.LC26:
 2154 01fc 42656E63 		.ascii	"Benchmark, mass reschedule, 5 threads\000"
 2154      686D6172 
 2154      6B2C206D 
 2154      61737320 
 2154      72657363 
 2155 0222 0000     		.space	2
 2156              	.LC27:
 2157 0224 42656E63 		.ascii	"Benchmark, threads, create only\000"
 2157      686D6172 
 2157      6B2C2074 
 2157      68726561 
 2157      64732C20 
 2158              	.LC28:
 2159 0244 42656E63 		.ascii	"Benchmark, threads, full cycle\000"
 2159      686D6172 
 2159      6B2C2074 
 2159      68726561 
 2159      64732C20 
ARM GAS  /tmp/cczr1qYK.s 			page 41


 2160 0263 00       		.space	1
 2161              	.LC29:
 2162 0264 42656E63 		.ascii	"Benchmark, context switch\000"
 2162      686D6172 
 2162      6B2C2063 
 2162      6F6E7465 
 2162      78742073 
 2163 027e 0000     		.space	2
 2164              	.LC30:
 2165 0280 42656E63 		.ascii	"Benchmark, messages #3\000"
 2165      686D6172 
 2165      6B2C206D 
 2165      65737361 
 2165      67657320 
 2166 0297 00       		.space	1
 2167              	.LC31:
 2168 0298 42656E63 		.ascii	"Benchmark, messages #2\000"
 2168      686D6172 
 2168      6B2C206D 
 2168      65737361 
 2168      67657320 
 2169 02af 00       		.space	1
 2170              	.LC32:
 2171 02b0 42656E63 		.ascii	"Benchmark, messages #1\000"
 2171      686D6172 
 2171      6B2C206D 
 2171      65737361 
 2171      67657320 
 2172 02c7 00       		.section	.rodata.testbmk9,"a",%progbits
 2173              		.align	2
 2174              		.type	testbmk9, %object
 2175              		.size	testbmk9, 16
 2176              	testbmk9:
 2177 0000 AC010000 		.word	.LC24
 2178 0004 00000000 		.word	0
 2179 0008 00000000 		.word	0
 2180 000c 00000000 		.word	bmk9_execute
 2181              		.section	.bss.sem1,"aw",%nobits
 2182              		.align	2
 2183              		.set	.LANCHOR1,. + 0
 2184              		.type	sem1, %object
 2185              		.size	sem1, 12
 2186              	sem1:
 2187 0000 00000000 		.space	12
 2187      00000000 
 2187      00000000 
 2188              		.section	.bss.vt2.4933,"aw",%nobits
 2189              		.align	2
 2190              		.set	.LANCHOR3,. + 0
 2191              		.type	vt2.4933, %object
 2192              		.size	vt2.4933, 20
 2193              	vt2.4933:
 2194 0000 00000000 		.space	20
 2194      00000000 
 2194      00000000 
 2194      00000000 
 2194      00000000 
ARM GAS  /tmp/cczr1qYK.s 			page 42


 2195              		.section	.rodata.testbmk1,"a",%progbits
 2196              		.align	2
 2197              		.type	testbmk1, %object
 2198              		.size	testbmk1, 16
 2199              	testbmk1:
 2200 0000 B0020000 		.word	.LC32
 2201 0004 00000000 		.word	0
 2202 0008 00000000 		.word	0
 2203 000c 00000000 		.word	bmk1_execute
 2204              		.section	.bss.ib.4919,"aw",%nobits
 2205              		.align	2
 2206              		.set	.LANCHOR5,. + 0
 2207              		.type	ib.4919, %object
 2208              		.size	ib.4919, 16
 2209              	ib.4919:
 2210 0000 00000000 		.space	16
 2210      00000000 
 2210      00000000 
 2210      00000000 
 2211              		.section	.rodata.testbmk12,"a",%progbits
 2212              		.align	2
 2213              		.type	testbmk12, %object
 2214              		.size	testbmk12, 16
 2215              	testbmk12:
 2216 0000 44010000 		.word	.LC21
 2217 0004 00000000 		.word	bmk12_setup
 2218 0008 00000000 		.word	0
 2219 000c 00000000 		.word	bmk12_execute
 2220              		.section	.bss.vt1.4932,"aw",%nobits
 2221              		.align	2
 2222              		.set	.LANCHOR2,. + 0
 2223              		.type	vt1.4932, %object
 2224              		.size	vt1.4932, 20
 2225              	vt1.4932:
 2226 0000 00000000 		.space	20
 2226      00000000 
 2226      00000000 
 2226      00000000 
 2226      00000000 
 2227              		.section	.rodata.testbmk5,"a",%progbits
 2228              		.align	2
 2229              		.type	testbmk5, %object
 2230              		.size	testbmk5, 16
 2231              	testbmk5:
 2232 0000 44020000 		.word	.LC28
 2233 0004 00000000 		.word	0
 2234 0008 00000000 		.word	0
 2235 000c 00000000 		.word	bmk5_execute
 2236              		.section	.rodata.testbmk6,"a",%progbits
 2237              		.align	2
 2238              		.type	testbmk6, %object
 2239              		.size	testbmk6, 16
 2240              	testbmk6:
 2241 0000 24020000 		.word	.LC27
 2242 0004 00000000 		.word	0
 2243 0008 00000000 		.word	0
 2244 000c 00000000 		.word	bmk6_execute
ARM GAS  /tmp/cczr1qYK.s 			page 43


 2245              		.section	.rodata.testbmk7,"a",%progbits
 2246              		.align	2
 2247              		.type	testbmk7, %object
 2248              		.size	testbmk7, 16
 2249              	testbmk7:
 2250 0000 FC010000 		.word	.LC26
 2251 0004 00000000 		.word	bmk7_setup
 2252 0008 00000000 		.word	0
 2253 000c 00000000 		.word	bmk7_execute
 2254              		.text
 2255              	.Letext0:
 2256              		.file 2 "/opt/tools_arm/lib/gcc/arm-none-eabi/4.7.3/include/stddef.h"
 2257              		.file 3 "/opt/tools_arm/lib/gcc/arm-none-eabi/4.7.3/../../../../arm-none-eabi/include/stdint.h"
 2258              		.file 4 "/home/felix/Documents/ChibiOS/os/ports/GCC/ARMCMx/chtypes.h"
 2259              		.file 5 "/home/felix/Documents/ChibiOS/os/kernel/include/chlists.h"
 2260              		.file 6 "/home/felix/Documents/ChibiOS/os/kernel/include/chthreads.h"
 2261              		.file 7 "/home/felix/Documents/ChibiOS/os/ports/GCC/ARMCMx/chcore_v7m.h"
 2262              		.file 8 "/home/felix/Documents/ChibiOS/os/kernel/include/chvt.h"
 2263              		.file 9 "/home/felix/Documents/ChibiOS/os/kernel/include/chschd.h"
 2264              		.file 10 "/home/felix/Documents/ChibiOS/os/kernel/include/chsem.h"
 2265              		.file 11 "/home/felix/Documents/ChibiOS/os/kernel/include/chmtx.h"
 2266              		.file 12 "/home/felix/Documents/ChibiOS/os/kernel/include/chqueues.h"
 2267              		.file 13 "/home/felix/Documents/ChibiOS/test/test.h"
 2268              		.file 14 "/home/felix/Documents/ChibiOS/os/kernel/include/chmsg.h"