ARM GAS  /tmp/ccgWG4Mc.s 			page 1


   1              		.syntax unified
   2              		.cpu cortex-m4
   3              		.fpu softvfp
   4              		.eabi_attribute 20, 1
   5              		.eabi_attribute 21, 1
   6              		.eabi_attribute 23, 3
   7              		.eabi_attribute 24, 1
   8              		.eabi_attribute 25, 1
   9              		.eabi_attribute 26, 1
  10              		.eabi_attribute 30, 2
  11              		.eabi_attribute 34, 1
  12              		.eabi_attribute 18, 4
  13              		.thumb
  14              		.file	"testmbox.c"
  15              		.text
  16              	.Ltext0:
  17              		.cfi_sections	.debug_frame
  18              		.section	.text.mbox1_execute,"ax",%progbits
  19              		.align	2
  20              		.p2align 4,,15
  21              		.thumb
  22              		.thumb_func
  23              		.type	mbox1_execute, %function
  24              	mbox1_execute:
  25              	.LFB8:
  26              		.file 1 "/home/felix/Documents/ChibiOS/test/testmbox.c"
  27              		.loc 1 76 0
  28              		.cfi_startproc
  29              		@ args = 0, pretend = 0, frame = 8
  30              		@ frame_needed = 0, uses_anonymous_args = 0
  31 0000 F0B5     		push	{r4, r5, r6, r7, lr}
  32              	.LCFI0:
  33              		.cfi_def_cfa_offset 20
  34              		.cfi_offset 4, -20
  35              		.cfi_offset 5, -16
  36              		.cfi_offset 6, -12
  37              		.cfi_offset 7, -8
  38              		.cfi_offset 14, -4
  39              		.loc 1 83 0
  40 0002 AC4E     		ldr	r6, .L32
  41 0004 716A     		ldr	r1, [r6, #36]
  42 0006 4B1F     		subs	r3, r1, #5
  43 0008 5942     		rsbs	r1, r3, #0
  44              		.loc 1 76 0
  45 000a 83B0     		sub	sp, sp, #12
  46              	.LCFI1:
  47              		.cfi_def_cfa_offset 32
  48              		.loc 1 83 0
  49 000c 5941     		adcs	r1, r1, r3
  50 000e 0120     		movs	r0, #1
  51 0010 FFF7FEFF 		bl	_test_assert
  52              	.LVL0:
  53 0014 00BB     		cbnz	r0, .L1
  54 0016 4224     		movs	r4, #66
  55              	.L3:
  56              		.loc 1 89 0
  57 0018 A64D     		ldr	r5, .L32
ARM GAS  /tmp/ccgWG4Mc.s 			page 2


  58 001a 2146     		mov	r1, r4
  59 001c 2846     		mov	r0, r5
  60 001e 4FF0FF32 		mov	r2, #-1
  61 0022 FFF7FEFF 		bl	chMBPost
  62              	.LVL1:
  63              		.loc 1 90 0
  64 0026 D0F10101 		rsbs	r1, r0, #1
  65 002a 38BF     		it	cc
  66 002c 0021     		movcc	r1, #0
  67 002e 0220     		movs	r0, #2
  68              	.LVL2:
  69 0030 0134     		adds	r4, r4, #1
  70 0032 FFF7FEFF 		bl	_test_assert
  71              	.LVL3:
  72 0036 78B9     		cbnz	r0, .L1
  73              		.loc 1 88 0
  74 0038 462C     		cmp	r4, #70
  75 003a EDD1     		bne	.L3
  76              		.loc 1 92 0
  77 003c 4121     		movs	r1, #65
  78 003e 2846     		mov	r0, r5
  79 0040 4FF0FF32 		mov	r2, #-1
  80 0044 FFF7FEFF 		bl	chMBPostAhead
  81              	.LVL4:
  82              		.loc 1 93 0
  83 0048 D0F10101 		rsbs	r1, r0, #1
  84 004c 38BF     		it	cc
  85 004e 0021     		movcc	r1, #0
  86 0050 0320     		movs	r0, #3
  87              	.LVL5:
  88 0052 FFF7FEFF 		bl	_test_assert
  89              	.LVL6:
  90 0056 08B1     		cbz	r0, .L29
  91              	.LVL7:
  92              	.L1:
  93              		.loc 1 220 0
  94 0058 03B0     		add	sp, sp, #12
  95 005a F0BD     		pop	{r4, r5, r6, r7, pc}
  96              	.LVL8:
  97              	.L29:
  98              		.loc 1 98 0
  99 005c 5821     		movs	r1, #88
 100 005e 0122     		movs	r2, #1
 101 0060 2846     		mov	r0, r5
 102 0062 FFF7FEFF 		bl	chMBPost
 103              	.LVL9:
 104              		.loc 1 99 0
 105 0066 B0F1FF3C 		subs	ip, r0, #-1
 106 006a DCF10001 		rsbs	r1, ip, #0
 107 006e 51EB0C01 		adcs	r1, r1, ip
 108 0072 0420     		movs	r0, #4
 109              	.LVL10:
 110 0074 FFF7FEFF 		bl	_test_assert
 111              	.LVL11:
 112 0078 0446     		mov	r4, r0
 113 007a 0028     		cmp	r0, #0
 114 007c ECD1     		bne	.L1
ARM GAS  /tmp/ccgWG4Mc.s 			page 3


 115              	.LBB2:
 116              		.loc 1 100 0
 117 007e 2023     		movs	r3, #32
 118              	.LVL12:
 119              	@ 100 "/home/felix/Documents/ChibiOS/test/testmbox.c" 1
 120 0080 83F31188 		msr     BASEPRI, r3
 121              	@ 0 "" 2
 122              	.LVL13:
 123              		.thumb
 124              	.LBE2:
 125              		.loc 1 101 0
 126 0084 5821     		movs	r1, #88
 127 0086 2846     		mov	r0, r5
 128 0088 FFF7FEFF 		bl	chMBPostI
 129              	.LVL14:
 130              	.LBB3:
 131              		.loc 1 102 0
 132 008c 2346     		mov	r3, r4
 133              	.LVL15:
 134              	.LBE3:
 135              		.loc 1 101 0
 136 008e 0146     		mov	r1, r0
 137              	.LVL16:
 138              	.LBB4:
 139              		.loc 1 102 0
 140              	@ 102 "/home/felix/Documents/ChibiOS/test/testmbox.c" 1
 141 0090 83F31188 		msr     BASEPRI, r3
 142              	@ 0 "" 2
 143              	.LVL17:
 144              		.thumb
 145              	.LBE4:
 146              		.loc 1 103 0
 147 0094 B1F1FF3E 		subs	lr, r1, #-1
 148 0098 DEF10001 		rsbs	r1, lr, #0
 149 009c 51EB0E01 		adcs	r1, r1, lr
 150 00a0 0520     		movs	r0, #5
 151              	.LVL18:
 152 00a2 FFF7FEFF 		bl	_test_assert
 153              	.LVL19:
 154 00a6 0028     		cmp	r0, #0
 155 00a8 D6D1     		bne	.L1
 156              		.loc 1 104 0
 157 00aa 5821     		movs	r1, #88
 158 00ac 0122     		movs	r2, #1
 159 00ae 2846     		mov	r0, r5
 160 00b0 FFF7FEFF 		bl	chMBPostAhead
 161              	.LVL20:
 162              		.loc 1 105 0
 163 00b4 B0F1FF32 		subs	r2, r0, #-1
 164 00b8 5142     		rsbs	r1, r2, #0
 165 00ba 5141     		adcs	r1, r1, r2
 166 00bc 0620     		movs	r0, #6
 167              	.LVL21:
 168 00be FFF7FEFF 		bl	_test_assert
 169              	.LVL22:
 170 00c2 0446     		mov	r4, r0
 171 00c4 0028     		cmp	r0, #0
ARM GAS  /tmp/ccgWG4Mc.s 			page 4


 172 00c6 C7D1     		bne	.L1
 173              	.LBB5:
 174              		.loc 1 106 0
 175 00c8 2023     		movs	r3, #32
 176              	.LVL23:
 177              	@ 106 "/home/felix/Documents/ChibiOS/test/testmbox.c" 1
 178 00ca 83F31188 		msr     BASEPRI, r3
 179              	@ 0 "" 2
 180              	.LVL24:
 181              		.thumb
 182              	.LBE5:
 183              		.loc 1 107 0
 184 00ce 5821     		movs	r1, #88
 185 00d0 2846     		mov	r0, r5
 186 00d2 FFF7FEFF 		bl	chMBPostAheadI
 187              	.LVL25:
 188              	.LBB6:
 189              		.loc 1 108 0
 190 00d6 2346     		mov	r3, r4
 191              	.LVL26:
 192              	.LBE6:
 193              		.loc 1 107 0
 194 00d8 0146     		mov	r1, r0
 195              	.LVL27:
 196              	.LBB7:
 197              		.loc 1 108 0
 198              	@ 108 "/home/felix/Documents/ChibiOS/test/testmbox.c" 1
 199 00da 83F31188 		msr     BASEPRI, r3
 200              	@ 0 "" 2
 201              	.LVL28:
 202              		.thumb
 203              	.LBE7:
 204              		.loc 1 109 0
 205 00de B1F1FF33 		subs	r3, r1, #-1
 206              	.LVL29:
 207 00e2 5942     		rsbs	r1, r3, #0
 208 00e4 4FF00700 		mov	r0, #7
 209              	.LVL30:
 210 00e8 5941     		adcs	r1, r1, r3
 211 00ea FFF7FEFF 		bl	_test_assert
 212              	.LVL31:
 213 00ee 0746     		mov	r7, r0
 214 00f0 0028     		cmp	r0, #0
 215 00f2 B1D1     		bne	.L1
 216              	.LBB8:
 217              		.loc 1 114 0
 218 00f4 2023     		movs	r3, #32
 219              	.LVL32:
 220              	@ 114 "/home/felix/Documents/ChibiOS/test/testmbox.c" 1
 221 00f6 83F31188 		msr     BASEPRI, r3
 222              	@ 0 "" 2
 223              	.LVL33:
 224              		.thumb
 225              	.LBE8:
 226 00fa 696A     		ldr	r1, [r5, #36]
 227 00fc D1F10101 		rsbs	r1, r1, #1
 228 0100 4FF00800 		mov	r0, #8
ARM GAS  /tmp/ccgWG4Mc.s 			page 5


 229 0104 38BF     		it	cc
 230 0106 0021     		movcc	r1, #0
 231 0108 FFF7FEFF 		bl	_test_assert
 232              	.LVL34:
 233 010c 0446     		mov	r4, r0
 234 010e 18B1     		cbz	r0, .L4
 235              	.LBB9:
 236              		.loc 1 114 0 is_stmt 0 discriminator 1
 237 0110 3B46     		mov	r3, r7
 238              	@ 114 "/home/felix/Documents/ChibiOS/test/testmbox.c" 1
 239 0112 83F31188 		msr     BASEPRI, r3
 240              	@ 0 "" 2
 241              	.LVL35:
 242              		.thumb
 243 0116 9FE7     		b	.L1
 244              	.LVL36:
 245              	.L4:
 246              	.LBE9:
 247              	.LBB10:
 248              		.loc 1 114 0 discriminator 2
 249 0118 0346     		mov	r3, r0
 250              	.LVL37:
 251              	@ 114 "/home/felix/Documents/ChibiOS/test/testmbox.c" 1
 252 011a 83F31188 		msr     BASEPRI, r3
 253              	@ 0 "" 2
 254              	.LVL38:
 255              		.thumb
 256              	.LBE10:
 257              	.LBB11:
 258              		.loc 1 115 0 is_stmt 1 discriminator 2
 259 011e 2023     		movs	r3, #32
 260              	.LVL39:
 261              	@ 115 "/home/felix/Documents/ChibiOS/test/testmbox.c" 1
 262 0120 83F31188 		msr     BASEPRI, r3
 263              	@ 0 "" 2
 264              	.LVL40:
 265              		.thumb
 266              	.LBE11:
 267 0124 A969     		ldr	r1, [r5, #24]
 268 0126 B1F1050C 		subs	ip, r1, #5
 269 012a DCF10001 		rsbs	r1, ip, #0
 270 012e 4FF00900 		mov	r0, #9
 271 0132 51EB0C01 		adcs	r1, r1, ip
 272 0136 FFF7FEFF 		bl	_test_assert
 273              	.LVL41:
 274 013a 0346     		mov	r3, r0
 275 013c 18B1     		cbz	r0, .L6
 276              	.LBB12:
 277              		.loc 1 115 0 is_stmt 0 discriminator 1
 278 013e 2346     		mov	r3, r4
 279              	@ 115 "/home/felix/Documents/ChibiOS/test/testmbox.c" 1
 280 0140 83F31188 		msr     BASEPRI, r3
 281              	@ 0 "" 2
 282              	.LVL42:
 283              		.thumb
 284 0144 88E7     		b	.L1
 285              	.LVL43:
ARM GAS  /tmp/ccgWG4Mc.s 			page 6


 286              	.L6:
 287              	.LBE12:
 288              	.LBB13:
 289              		.loc 1 115 0 discriminator 2
 290              	@ 115 "/home/felix/Documents/ChibiOS/test/testmbox.c" 1
 291 0146 83F31188 		msr     BASEPRI, r3
 292              	@ 0 "" 2
 293              	.LVL44:
 294              		.thumb
 295              	.LBE13:
 296              	.LBB14:
 297              		.loc 1 116 0 is_stmt 1 discriminator 2
 298 014a 2023     		movs	r3, #32
 299              	.LVL45:
 300              	@ 116 "/home/felix/Documents/ChibiOS/test/testmbox.c" 1
 301 014c 83F31188 		msr     BASEPRI, r3
 302              	@ 0 "" 2
 303              	.LVL46:
 304              		.thumb
 305              	.LBE14:
 306 0150 E968     		ldr	r1, [r5, #12]
 307 0152 AB68     		ldr	r3, [r5, #8]
 308              	.LVL47:
 309 0154 B1EB030E 		subs	lr, r1, r3
 310 0158 DEF10001 		rsbs	r1, lr, #0
 311 015c 51EB0E01 		adcs	r1, r1, lr
 312 0160 0A20     		movs	r0, #10
 313 0162 FFF7FEFF 		bl	_test_assert
 314              	.LVL48:
 315              	.LBB15:
 316 0166 0023     		movs	r3, #0
 317              	@ 116 "/home/felix/Documents/ChibiOS/test/testmbox.c" 1
 318 0168 83F31188 		msr     BASEPRI, r3
 319              	@ 0 "" 2
 320              	.LVL49:
 321              		.thumb
 322              	.LBE15:
 323 016c 0028     		cmp	r0, #0
 324 016e 7FF473AF 		bne	.L1
 325              	.LVL50:
 326              	.LBB16:
 327 0172 0525     		movs	r5, #5
 328 0174 05E0     		b	.L8
 329              	.LVL51:
 330              	.L31:
 331              	.LBE16:
 332              		.loc 1 124 0
 333 0176 9DF80400 		ldrb	r0, [sp, #4]	@ zero_extendqisi2
 334 017a FFF7FEFF 		bl	test_emit_token
 335              	.LVL52:
 336              		.loc 1 121 0
 337 017e 013D     		subs	r5, r5, #1
 338 0180 10D0     		beq	.L30
 339              	.LVL53:
 340              	.L8:
 341              		.loc 1 122 0
 342 0182 4C4C     		ldr	r4, .L32
ARM GAS  /tmp/ccgWG4Mc.s 			page 7


 343 0184 01A9     		add	r1, sp, #4
 344 0186 2046     		mov	r0, r4
 345 0188 4FF0FF32 		mov	r2, #-1
 346 018c FFF7FEFF 		bl	chMBFetch
 347              	.LVL54:
 348              		.loc 1 123 0
 349 0190 D0F10101 		rsbs	r1, r0, #1
 350 0194 38BF     		it	cc
 351 0196 0021     		movcc	r1, #0
 352 0198 0B20     		movs	r0, #11
 353              	.LVL55:
 354 019a FFF7FEFF 		bl	_test_assert
 355              	.LVL56:
 356 019e 0028     		cmp	r0, #0
 357 01a0 E9D0     		beq	.L31
 358 01a2 59E7     		b	.L1
 359              	.L30:
 360              		.loc 1 126 0
 361 01a4 0C20     		movs	r0, #12
 362 01a6 4449     		ldr	r1, .L32+4
 363 01a8 FFF7FEFF 		bl	_test_assert_sequence
 364              	.LVL57:
 365 01ac 0028     		cmp	r0, #0
 366 01ae 7FF453AF 		bne	.L1
 367              		.loc 1 131 0
 368 01b2 4721     		movs	r1, #71
 369 01b4 2046     		mov	r0, r4
 370 01b6 4FF0FF32 		mov	r2, #-1
 371 01ba FFF7FEFF 		bl	chMBPost
 372              	.LVL58:
 373              		.loc 1 132 0
 374 01be D0F10101 		rsbs	r1, r0, #1
 375 01c2 38BF     		it	cc
 376 01c4 0021     		movcc	r1, #0
 377 01c6 0D20     		movs	r0, #13
 378              	.LVL59:
 379 01c8 FFF7FEFF 		bl	_test_assert
 380              	.LVL60:
 381 01cc 0028     		cmp	r0, #0
 382 01ce 7FF443AF 		bne	.L1
 383              		.loc 1 133 0
 384 01d2 01A9     		add	r1, sp, #4
 385 01d4 2046     		mov	r0, r4
 386 01d6 4FF0FF32 		mov	r2, #-1
 387 01da FFF7FEFF 		bl	chMBFetch
 388              	.LVL61:
 389              		.loc 1 134 0
 390 01de D0F10101 		rsbs	r1, r0, #1
 391 01e2 38BF     		it	cc
 392 01e4 0021     		movcc	r1, #0
 393 01e6 0E20     		movs	r0, #14
 394              	.LVL62:
 395 01e8 FFF7FEFF 		bl	_test_assert
 396              	.LVL63:
 397 01ec 0028     		cmp	r0, #0
 398 01ee 7FF433AF 		bne	.L1
 399              		.loc 1 135 0
ARM GAS  /tmp/ccgWG4Mc.s 			page 8


 400 01f2 2168     		ldr	r1, [r4, #0]
 401 01f4 A368     		ldr	r3, [r4, #8]
 402 01f6 CA1A     		subs	r2, r1, r3
 403 01f8 5142     		rsbs	r1, r2, #0
 404 01fa 5141     		adcs	r1, r1, r2
 405 01fc 0F20     		movs	r0, #15
 406 01fe FFF7FEFF 		bl	_test_assert
 407              	.LVL64:
 408 0202 0028     		cmp	r0, #0
 409 0204 7FF428AF 		bne	.L1
 410              		.loc 1 136 0
 411 0208 2168     		ldr	r1, [r4, #0]
 412 020a E368     		ldr	r3, [r4, #12]
 413 020c CB1A     		subs	r3, r1, r3
 414 020e 5942     		rsbs	r1, r3, #0
 415 0210 5941     		adcs	r1, r1, r3
 416 0212 1020     		movs	r0, #16
 417 0214 FFF7FEFF 		bl	_test_assert
 418              	.LVL65:
 419 0218 0028     		cmp	r0, #0
 420 021a 7FF41DAF 		bne	.L1
 421              		.loc 1 141 0
 422 021e 01A9     		add	r1, sp, #4
 423 0220 2046     		mov	r0, r4
 424 0222 0122     		movs	r2, #1
 425 0224 FFF7FEFF 		bl	chMBFetch
 426              	.LVL66:
 427              		.loc 1 142 0
 428 0228 B0F1FF3C 		subs	ip, r0, #-1
 429 022c DCF10001 		rsbs	r1, ip, #0
 430 0230 51EB0C01 		adcs	r1, r1, ip
 431 0234 1120     		movs	r0, #17
 432              	.LVL67:
 433 0236 FFF7FEFF 		bl	_test_assert
 434              	.LVL68:
 435 023a 0028     		cmp	r0, #0
 436 023c 7FF40CAF 		bne	.L1
 437              	.LBB17:
 438              		.loc 1 143 0
 439 0240 2023     		movs	r3, #32
 440              	.LVL69:
 441              	@ 143 "/home/felix/Documents/ChibiOS/test/testmbox.c" 1
 442 0242 83F31188 		msr     BASEPRI, r3
 443              	@ 0 "" 2
 444              	.LVL70:
 445              		.thumb
 446              	.LBE17:
 447              		.loc 1 144 0
 448 0246 01A9     		add	r1, sp, #4
 449 0248 2046     		mov	r0, r4
 450 024a FFF7FEFF 		bl	chMBFetchI
 451              	.LVL71:
 452              	.LBB18:
 453              		.loc 1 145 0
 454 024e 2B46     		mov	r3, r5
 455              	.LVL72:
 456              	.LBE18:
ARM GAS  /tmp/ccgWG4Mc.s 			page 9


 457              		.loc 1 144 0
 458 0250 0146     		mov	r1, r0
 459              	.LVL73:
 460              	.LBB19:
 461              		.loc 1 145 0
 462              	@ 145 "/home/felix/Documents/ChibiOS/test/testmbox.c" 1
 463 0252 83F31188 		msr     BASEPRI, r3
 464              	@ 0 "" 2
 465              	.LVL74:
 466              		.thumb
 467              	.LBE19:
 468              		.loc 1 146 0
 469 0256 B1F1FF3E 		subs	lr, r1, #-1
 470 025a DEF10001 		rsbs	r1, lr, #0
 471 025e 51EB0E01 		adcs	r1, r1, lr
 472 0262 1220     		movs	r0, #18
 473              	.LVL75:
 474 0264 FFF7FEFF 		bl	_test_assert
 475              	.LVL76:
 476 0268 0028     		cmp	r0, #0
 477 026a 7FF4F5AE 		bne	.L1
 478              	.LBB20:
 479              		.loc 1 151 0
 480 026e 2023     		movs	r3, #32
 481              	.LVL77:
 482              	@ 151 "/home/felix/Documents/ChibiOS/test/testmbox.c" 1
 483 0270 83F31188 		msr     BASEPRI, r3
 484              	@ 0 "" 2
 485              	.LVL78:
 486              		.thumb
 487              	.LBE20:
 488 0274 616A     		ldr	r1, [r4, #36]
 489 0276 4A1F     		subs	r2, r1, #5
 490 0278 5142     		rsbs	r1, r2, #0
 491 027a 5141     		adcs	r1, r1, r2
 492 027c 1320     		movs	r0, #19
 493 027e FFF7FEFF 		bl	_test_assert
 494              	.LVL79:
 495              	.LBB21:
 496 0282 0023     		movs	r3, #0
 497              	@ 151 "/home/felix/Documents/ChibiOS/test/testmbox.c" 1
 498 0284 83F31188 		msr     BASEPRI, r3
 499              	@ 0 "" 2
 500              	.LVL80:
 501              		.thumb
 502              	.LBE21:
 503 0288 0028     		cmp	r0, #0
 504 028a 7FF4E5AE 		bne	.L1
 505              	.LBB22:
 506              		.loc 1 152 0 discriminator 2
 507 028e 2023     		movs	r3, #32
 508              	.LVL81:
 509              	@ 152 "/home/felix/Documents/ChibiOS/test/testmbox.c" 1
 510 0290 83F31188 		msr     BASEPRI, r3
 511              	@ 0 "" 2
 512              	.LVL82:
 513              		.thumb
ARM GAS  /tmp/ccgWG4Mc.s 			page 10


 514              	.LBE22:
 515 0294 B169     		ldr	r1, [r6, #24]
 516 0296 074C     		ldr	r4, .L32
 517 0298 D1F10101 		rsbs	r1, r1, #1
 518 029c 38BF     		it	cc
 519 029e 0021     		movcc	r1, #0
 520 02a0 1420     		movs	r0, #20
 521 02a2 FFF7FEFF 		bl	_test_assert
 522              	.LVL83:
 523 02a6 0546     		mov	r5, r0
 524 02a8 40B1     		cbz	r0, .L10
 525              	.L27:
 526              	.LBB23:
 527              		.loc 1 219 0 discriminator 2
 528 02aa 0023     		movs	r3, #0
 529              	@ 219 "/home/felix/Documents/ChibiOS/test/testmbox.c" 1
 530 02ac 83F31188 		msr     BASEPRI, r3
 531              	@ 0 "" 2
 532              	.LVL84:
 533              		.thumb
 534 02b0 D2E6     		b	.L1
 535              	.L33:
 536 02b2 00BF     		.align	2
 537              	.L32:
 538 02b4 00000000 		.word	.LANCHOR0
 539 02b8 00000000 		.word	.LC0
 540              	.LVL85:
 541              	.L10:
 542              	.LBE23:
 543              	.LBB24:
 544              		.loc 1 152 0 discriminator 2
 545 02bc 0346     		mov	r3, r0
 546              	.LVL86:
 547              	@ 152 "/home/felix/Documents/ChibiOS/test/testmbox.c" 1
 548 02be 83F31188 		msr     BASEPRI, r3
 549              	@ 0 "" 2
 550              	.LVL87:
 551              		.thumb
 552              	.LBE24:
 553              	.LBB25:
 554              		.loc 1 153 0 discriminator 2
 555 02c2 2023     		movs	r3, #32
 556              	.LVL88:
 557              	@ 153 "/home/felix/Documents/ChibiOS/test/testmbox.c" 1
 558 02c4 83F31188 		msr     BASEPRI, r3
 559              	@ 0 "" 2
 560              	.LVL89:
 561              		.thumb
 562              	.LBE25:
 563 02c8 E168     		ldr	r1, [r4, #12]
 564 02ca A368     		ldr	r3, [r4, #8]
 565              	.LVL90:
 566 02cc CB1A     		subs	r3, r1, r3
 567 02ce 5942     		rsbs	r1, r3, #0
 568 02d0 5941     		adcs	r1, r1, r3
 569 02d2 1520     		movs	r0, #21
 570 02d4 FFF7FEFF 		bl	_test_assert
ARM GAS  /tmp/ccgWG4Mc.s 			page 11


 571              	.LVL91:
 572 02d8 0346     		mov	r3, r0
 573 02da 18B1     		cbz	r0, .L11
 574              	.LBB26:
 575              		.loc 1 153 0 is_stmt 0 discriminator 1
 576 02dc 2B46     		mov	r3, r5
 577              	@ 153 "/home/felix/Documents/ChibiOS/test/testmbox.c" 1
 578 02de 83F31188 		msr     BASEPRI, r3
 579              	@ 0 "" 2
 580              	.LVL92:
 581              		.thumb
 582 02e2 B9E6     		b	.L1
 583              	.LVL93:
 584              	.L11:
 585              	.LBE26:
 586              	.LBB27:
 587              		.loc 1 153 0 discriminator 2
 588              	@ 153 "/home/felix/Documents/ChibiOS/test/testmbox.c" 1
 589 02e4 83F31188 		msr     BASEPRI, r3
 590              	@ 0 "" 2
 591              	.LVL94:
 592              		.thumb
 593              	.LBE27:
 594              	.LBB28:
 595              		.loc 1 158 0 is_stmt 1 discriminator 2
 596 02e8 2023     		movs	r3, #32
 597              	.LVL95:
 598              	@ 158 "/home/felix/Documents/ChibiOS/test/testmbox.c" 1
 599 02ea 83F31188 		msr     BASEPRI, r3
 600              	@ 0 "" 2
 601              	.LVL96:
 602              		.thumb
 603              	.LBE28:
 604              		.loc 1 159 0 discriminator 2
 605 02ee 4121     		movs	r1, #65
 606 02f0 2046     		mov	r0, r4
 607 02f2 FFF7FEFF 		bl	chMBPostI
 608              	.LVL97:
 609              		.loc 1 160 0 discriminator 2
 610 02f6 D0F10101 		rsbs	r1, r0, #1
 611 02fa 38BF     		it	cc
 612 02fc 0021     		movcc	r1, #0
 613 02fe 1620     		movs	r0, #22
 614              	.LVL98:
 615 0300 FFF7FEFF 		bl	_test_assert
 616              	.LVL99:
 617 0304 0028     		cmp	r0, #0
 618 0306 7FF4A7AE 		bne	.L1
 619              		.loc 1 161 0
 620 030a 4221     		movs	r1, #66
 621 030c 2046     		mov	r0, r4
 622 030e FFF7FEFF 		bl	chMBPostI
 623              	.LVL100:
 624              		.loc 1 162 0
 625 0312 D0F10101 		rsbs	r1, r0, #1
 626 0316 38BF     		it	cc
 627 0318 0021     		movcc	r1, #0
ARM GAS  /tmp/ccgWG4Mc.s 			page 12


 628 031a 1720     		movs	r0, #23
 629              	.LVL101:
 630 031c FFF7FEFF 		bl	_test_assert
 631              	.LVL102:
 632 0320 0028     		cmp	r0, #0
 633 0322 7FF499AE 		bne	.L1
 634              		.loc 1 163 0
 635 0326 4321     		movs	r1, #67
 636 0328 2046     		mov	r0, r4
 637 032a FFF7FEFF 		bl	chMBPostI
 638              	.LVL103:
 639              		.loc 1 164 0
 640 032e D0F10101 		rsbs	r1, r0, #1
 641 0332 38BF     		it	cc
 642 0334 0021     		movcc	r1, #0
 643 0336 1820     		movs	r0, #24
 644              	.LVL104:
 645 0338 FFF7FEFF 		bl	_test_assert
 646              	.LVL105:
 647 033c 0028     		cmp	r0, #0
 648 033e 7FF48BAE 		bne	.L1
 649              		.loc 1 165 0
 650 0342 4421     		movs	r1, #68
 651 0344 2046     		mov	r0, r4
 652 0346 FFF7FEFF 		bl	chMBPostI
 653              	.LVL106:
 654              		.loc 1 166 0
 655 034a D0F10101 		rsbs	r1, r0, #1
 656 034e 38BF     		it	cc
 657 0350 0021     		movcc	r1, #0
 658 0352 1920     		movs	r0, #25
 659              	.LVL107:
 660 0354 FFF7FEFF 		bl	_test_assert
 661              	.LVL108:
 662 0358 0546     		mov	r5, r0
 663 035a 0028     		cmp	r0, #0
 664 035c 7FF47CAE 		bne	.L1
 665              		.loc 1 167 0
 666 0360 2046     		mov	r0, r4
 667 0362 4521     		movs	r1, #69
 668 0364 FFF7FEFF 		bl	chMBPostI
 669              	.LVL109:
 670              	.LBB29:
 671              		.loc 1 168 0
 672 0368 2B46     		mov	r3, r5
 673              	.LVL110:
 674              	.LBE29:
 675              		.loc 1 167 0
 676 036a 0146     		mov	r1, r0
 677              	.LVL111:
 678              	.LBB30:
 679              		.loc 1 168 0
 680              	@ 168 "/home/felix/Documents/ChibiOS/test/testmbox.c" 1
 681 036c 83F31188 		msr     BASEPRI, r3
 682              	@ 0 "" 2
 683              	.LVL112:
 684              		.thumb
ARM GAS  /tmp/ccgWG4Mc.s 			page 13


 685              	.LBE30:
 686              		.loc 1 169 0
 687 0370 D1F10101 		rsbs	r1, r1, #1
 688 0374 38BF     		it	cc
 689 0376 0021     		movcc	r1, #0
 690 0378 1A20     		movs	r0, #26
 691              	.LVL113:
 692 037a FFF7FEFF 		bl	_test_assert
 693              	.LVL114:
 694 037e 0028     		cmp	r0, #0
 695 0380 7FF46AAE 		bne	.L1
 696              		.loc 1 170 0
 697 0384 E168     		ldr	r1, [r4, #12]
 698 0386 A368     		ldr	r3, [r4, #8]
 699 0388 B1EB030C 		subs	ip, r1, r3
 700 038c DCF10001 		rsbs	r1, ip, #0
 701 0390 51EB0C01 		adcs	r1, r1, ip
 702 0394 1B20     		movs	r0, #27
 703 0396 FFF7FEFF 		bl	_test_assert
 704              	.LVL115:
 705 039a 0028     		cmp	r0, #0
 706 039c 7FF45CAE 		bne	.L1
 707 03a0 0525     		movs	r5, #5
 708              	.L12:
 709              	.LBB31:
 710              		.loc 1 172 0
 711 03a2 2023     		movs	r3, #32
 712              	.LVL116:
 713              	@ 172 "/home/felix/Documents/ChibiOS/test/testmbox.c" 1
 714 03a4 83F31188 		msr     BASEPRI, r3
 715              	@ 0 "" 2
 716              	.LVL117:
 717              		.thumb
 718              	.LBE31:
 719              		.loc 1 173 0
 720 03a8 A04C     		ldr	r4, .L34
 721 03aa 01A9     		add	r1, sp, #4
 722 03ac 2046     		mov	r0, r4
 723 03ae FFF7FEFF 		bl	chMBFetchI
 724              	.LVL118:
 725              	.LBB32:
 726              		.loc 1 174 0
 727 03b2 0023     		movs	r3, #0
 728              	.LVL119:
 729              	.LBE32:
 730              		.loc 1 173 0
 731 03b4 0146     		mov	r1, r0
 732              	.LVL120:
 733              	.LBB33:
 734              		.loc 1 174 0
 735              	@ 174 "/home/felix/Documents/ChibiOS/test/testmbox.c" 1
 736 03b6 83F31188 		msr     BASEPRI, r3
 737              	@ 0 "" 2
 738              	.LVL121:
 739              		.thumb
 740              	.LBE33:
 741              		.loc 1 175 0
ARM GAS  /tmp/ccgWG4Mc.s 			page 14


 742 03ba B1EB030E 		subs	lr, r1, r3
 743              	.LVL122:
 744 03be DEF10001 		rsbs	r1, lr, #0
 745 03c2 51EB0E01 		adcs	r1, r1, lr
 746 03c6 1C20     		movs	r0, #28
 747              	.LVL123:
 748 03c8 FFF7FEFF 		bl	_test_assert
 749              	.LVL124:
 750 03cc 0028     		cmp	r0, #0
 751 03ce 7FF443AE 		bne	.L1
 752              		.loc 1 176 0
 753 03d2 9DF80400 		ldrb	r0, [sp, #4]	@ zero_extendqisi2
 754 03d6 FFF7FEFF 		bl	test_emit_token
 755              	.LVL125:
 756              		.loc 1 171 0
 757 03da 013D     		subs	r5, r5, #1
 758 03dc E1D1     		bne	.L12
 759              		.loc 1 178 0
 760 03de 1D20     		movs	r0, #29
 761 03e0 9349     		ldr	r1, .L34+4
 762 03e2 FFF7FEFF 		bl	_test_assert_sequence
 763              	.LVL126:
 764 03e6 0028     		cmp	r0, #0
 765 03e8 7FF436AE 		bne	.L1
 766              	.LBB34:
 767              		.loc 1 179 0
 768 03ec 2023     		movs	r3, #32
 769              	.LVL127:
 770              	@ 179 "/home/felix/Documents/ChibiOS/test/testmbox.c" 1
 771 03ee 83F31188 		msr     BASEPRI, r3
 772              	@ 0 "" 2
 773              	.LVL128:
 774              		.thumb
 775              	.LBE34:
 776 03f2 616A     		ldr	r1, [r4, #36]
 777 03f4 4A1F     		subs	r2, r1, #5
 778 03f6 5142     		rsbs	r1, r2, #0
 779 03f8 5141     		adcs	r1, r1, r2
 780 03fa 1E20     		movs	r0, #30
 781 03fc FFF7FEFF 		bl	_test_assert
 782              	.LVL129:
 783              	.LBB35:
 784 0400 2B46     		mov	r3, r5
 785              	@ 179 "/home/felix/Documents/ChibiOS/test/testmbox.c" 1
 786 0402 83F31188 		msr     BASEPRI, r3
 787              	@ 0 "" 2
 788              	.LVL130:
 789              		.thumb
 790              	.LBE35:
 791 0406 0028     		cmp	r0, #0
 792 0408 7FF426AE 		bne	.L1
 793              	.LBB36:
 794              		.loc 1 180 0 discriminator 2
 795 040c 2023     		movs	r3, #32
 796              	.LVL131:
 797              	@ 180 "/home/felix/Documents/ChibiOS/test/testmbox.c" 1
 798 040e 83F31188 		msr     BASEPRI, r3
ARM GAS  /tmp/ccgWG4Mc.s 			page 15


 799              	@ 0 "" 2
 800              	.LVL132:
 801              		.thumb
 802              	.LBE36:
 803 0412 A169     		ldr	r1, [r4, #24]
 804 0414 D1F10101 		rsbs	r1, r1, #1
 805 0418 38BF     		it	cc
 806 041a 0021     		movcc	r1, #0
 807 041c 1F20     		movs	r0, #31
 808 041e FFF7FEFF 		bl	_test_assert
 809              	.LVL133:
 810              	.LBB37:
 811 0422 2B46     		mov	r3, r5
 812              	@ 180 "/home/felix/Documents/ChibiOS/test/testmbox.c" 1
 813 0424 83F31188 		msr     BASEPRI, r3
 814              	@ 0 "" 2
 815              	.LVL134:
 816              		.thumb
 817              	.LBE37:
 818 0428 0028     		cmp	r0, #0
 819 042a 7FF415AE 		bne	.L1
 820              		.loc 1 181 0 discriminator 2
 821 042e E168     		ldr	r1, [r4, #12]
 822 0430 A368     		ldr	r3, [r4, #8]
 823              	.LVL135:
 824 0432 CB1A     		subs	r3, r1, r3
 825 0434 5942     		rsbs	r1, r3, #0
 826 0436 5941     		adcs	r1, r1, r3
 827 0438 2020     		movs	r0, #32
 828 043a FFF7FEFF 		bl	_test_assert
 829              	.LVL136:
 830 043e 0028     		cmp	r0, #0
 831 0440 7FF40AAE 		bne	.L1
 832              	.LBB38:
 833              		.loc 1 183 0
 834 0444 2023     		movs	r3, #32
 835              	.LVL137:
 836              	@ 183 "/home/felix/Documents/ChibiOS/test/testmbox.c" 1
 837 0446 83F31188 		msr     BASEPRI, r3
 838              	@ 0 "" 2
 839              	.LVL138:
 840              		.thumb
 841              	.LBE38:
 842              		.loc 1 184 0
 843 044a 4521     		movs	r1, #69
 844 044c 2046     		mov	r0, r4
 845 044e FFF7FEFF 		bl	chMBPostAheadI
 846              	.LVL139:
 847              		.loc 1 185 0
 848 0452 D0F10101 		rsbs	r1, r0, #1
 849 0456 38BF     		it	cc
 850 0458 0021     		movcc	r1, #0
 851 045a 2120     		movs	r0, #33
 852              	.LVL140:
 853 045c FFF7FEFF 		bl	_test_assert
 854              	.LVL141:
 855 0460 0028     		cmp	r0, #0
ARM GAS  /tmp/ccgWG4Mc.s 			page 16


 856 0462 7FF4F9AD 		bne	.L1
 857              		.loc 1 186 0
 858 0466 4421     		movs	r1, #68
 859 0468 2046     		mov	r0, r4
 860 046a FFF7FEFF 		bl	chMBPostAheadI
 861              	.LVL142:
 862              		.loc 1 187 0
 863 046e D0F10101 		rsbs	r1, r0, #1
 864 0472 38BF     		it	cc
 865 0474 0021     		movcc	r1, #0
 866 0476 2220     		movs	r0, #34
 867              	.LVL143:
 868 0478 FFF7FEFF 		bl	_test_assert
 869              	.LVL144:
 870 047c 0028     		cmp	r0, #0
 871 047e 7FF4EBAD 		bne	.L1
 872              		.loc 1 188 0
 873 0482 4321     		movs	r1, #67
 874 0484 2046     		mov	r0, r4
 875 0486 FFF7FEFF 		bl	chMBPostAheadI
 876              	.LVL145:
 877              		.loc 1 189 0
 878 048a D0F10101 		rsbs	r1, r0, #1
 879 048e 38BF     		it	cc
 880 0490 0021     		movcc	r1, #0
 881 0492 2320     		movs	r0, #35
 882              	.LVL146:
 883 0494 FFF7FEFF 		bl	_test_assert
 884              	.LVL147:
 885 0498 0028     		cmp	r0, #0
 886 049a 7FF4DDAD 		bne	.L1
 887              		.loc 1 190 0
 888 049e 4221     		movs	r1, #66
 889 04a0 2046     		mov	r0, r4
 890 04a2 FFF7FEFF 		bl	chMBPostAheadI
 891              	.LVL148:
 892              		.loc 1 191 0
 893 04a6 D0F10101 		rsbs	r1, r0, #1
 894 04aa 38BF     		it	cc
 895 04ac 0021     		movcc	r1, #0
 896 04ae 2420     		movs	r0, #36
 897              	.LVL149:
 898 04b0 FFF7FEFF 		bl	_test_assert
 899              	.LVL150:
 900 04b4 0028     		cmp	r0, #0
 901 04b6 7FF4CFAD 		bne	.L1
 902              		.loc 1 192 0
 903 04ba 5C4C     		ldr	r4, .L34
 904 04bc 4121     		movs	r1, #65
 905 04be 2046     		mov	r0, r4
 906 04c0 FFF7FEFF 		bl	chMBPostAheadI
 907              	.LVL151:
 908              	.LBB39:
 909              		.loc 1 193 0
 910 04c4 0023     		movs	r3, #0
 911              	.LVL152:
 912              	.LBE39:
ARM GAS  /tmp/ccgWG4Mc.s 			page 17


 913              		.loc 1 192 0
 914 04c6 0146     		mov	r1, r0
 915              	.LVL153:
 916              	.LBB40:
 917              		.loc 1 193 0
 918              	@ 193 "/home/felix/Documents/ChibiOS/test/testmbox.c" 1
 919 04c8 83F31188 		msr     BASEPRI, r3
 920              	@ 0 "" 2
 921              	.LVL154:
 922              		.thumb
 923              	.LBE40:
 924              		.loc 1 194 0
 925 04cc B1EB030C 		subs	ip, r1, r3
 926              	.LVL155:
 927 04d0 DCF10001 		rsbs	r1, ip, #0
 928 04d4 51EB0C01 		adcs	r1, r1, ip
 929 04d8 2520     		movs	r0, #37
 930              	.LVL156:
 931 04da FFF7FEFF 		bl	_test_assert
 932              	.LVL157:
 933 04de 0028     		cmp	r0, #0
 934 04e0 7FF4BAAD 		bne	.L1
 935              		.loc 1 195 0
 936 04e4 E168     		ldr	r1, [r4, #12]
 937 04e6 A368     		ldr	r3, [r4, #8]
 938 04e8 B1EB030E 		subs	lr, r1, r3
 939 04ec DEF10001 		rsbs	r1, lr, #0
 940 04f0 51EB0E01 		adcs	r1, r1, lr
 941 04f4 2620     		movs	r0, #38
 942 04f6 FFF7FEFF 		bl	_test_assert
 943              	.LVL158:
 944 04fa 0028     		cmp	r0, #0
 945 04fc 7FF4ACAD 		bne	.L1
 946 0500 0524     		movs	r4, #5
 947              	.L15:
 948              	.LBB41:
 949              		.loc 1 197 0
 950 0502 2023     		movs	r3, #32
 951              	.LVL159:
 952              	@ 197 "/home/felix/Documents/ChibiOS/test/testmbox.c" 1
 953 0504 83F31188 		msr     BASEPRI, r3
 954              	@ 0 "" 2
 955              	.LVL160:
 956              		.thumb
 957              	.LBE41:
 958              		.loc 1 198 0
 959 0508 484D     		ldr	r5, .L34
 960 050a 01A9     		add	r1, sp, #4
 961 050c 2846     		mov	r0, r5
 962 050e FFF7FEFF 		bl	chMBFetchI
 963              	.LVL161:
 964              	.LBB42:
 965              		.loc 1 199 0
 966 0512 0023     		movs	r3, #0
 967              	.LVL162:
 968              	.LBE42:
 969              		.loc 1 198 0
ARM GAS  /tmp/ccgWG4Mc.s 			page 18


 970 0514 0146     		mov	r1, r0
 971              	.LVL163:
 972              	.LBB43:
 973              		.loc 1 199 0
 974              	@ 199 "/home/felix/Documents/ChibiOS/test/testmbox.c" 1
 975 0516 83F31188 		msr     BASEPRI, r3
 976              	@ 0 "" 2
 977              	.LVL164:
 978              		.thumb
 979              	.LBE43:
 980              		.loc 1 200 0
 981 051a CA1A     		subs	r2, r1, r3
 982              	.LVL165:
 983 051c 5142     		rsbs	r1, r2, #0
 984 051e 5141     		adcs	r1, r1, r2
 985 0520 2720     		movs	r0, #39
 986              	.LVL166:
 987 0522 FFF7FEFF 		bl	_test_assert
 988              	.LVL167:
 989 0526 0028     		cmp	r0, #0
 990 0528 7FF496AD 		bne	.L1
 991              		.loc 1 201 0
 992 052c 9DF80400 		ldrb	r0, [sp, #4]	@ zero_extendqisi2
 993 0530 FFF7FEFF 		bl	test_emit_token
 994              	.LVL168:
 995              		.loc 1 196 0
 996 0534 013C     		subs	r4, r4, #1
 997 0536 E4D1     		bne	.L15
 998              		.loc 1 203 0
 999 0538 2820     		movs	r0, #40
 1000 053a 3D49     		ldr	r1, .L34+4
 1001 053c FFF7FEFF 		bl	_test_assert_sequence
 1002              	.LVL169:
 1003 0540 0028     		cmp	r0, #0
 1004 0542 7FF489AD 		bne	.L1
 1005              	.LBB44:
 1006              		.loc 1 204 0
 1007 0546 2023     		movs	r3, #32
 1008              	.LVL170:
 1009              	@ 204 "/home/felix/Documents/ChibiOS/test/testmbox.c" 1
 1010 0548 83F31188 		msr     BASEPRI, r3
 1011              	@ 0 "" 2
 1012              	.LVL171:
 1013              		.thumb
 1014              	.LBE44:
 1015 054c 696A     		ldr	r1, [r5, #36]
 1016 054e 4B1F     		subs	r3, r1, #5
 1017              	.LVL172:
 1018 0550 5942     		rsbs	r1, r3, #0
 1019 0552 5941     		adcs	r1, r1, r3
 1020 0554 2920     		movs	r0, #41
 1021 0556 FFF7FEFF 		bl	_test_assert
 1022              	.LVL173:
 1023              	.LBB45:
 1024 055a 2346     		mov	r3, r4
 1025              	@ 204 "/home/felix/Documents/ChibiOS/test/testmbox.c" 1
 1026 055c 83F31188 		msr     BASEPRI, r3
ARM GAS  /tmp/ccgWG4Mc.s 			page 19


 1027              	@ 0 "" 2
 1028              	.LVL174:
 1029              		.thumb
 1030              	.LBE45:
 1031 0560 0028     		cmp	r0, #0
 1032 0562 7FF479AD 		bne	.L1
 1033              	.LBB46:
 1034              		.loc 1 205 0 discriminator 2
 1035 0566 2023     		movs	r3, #32
 1036              	.LVL175:
 1037              	@ 205 "/home/felix/Documents/ChibiOS/test/testmbox.c" 1
 1038 0568 83F31188 		msr     BASEPRI, r3
 1039              	@ 0 "" 2
 1040              	.LVL176:
 1041              		.thumb
 1042              	.LBE46:
 1043 056c A969     		ldr	r1, [r5, #24]
 1044 056e D1F10101 		rsbs	r1, r1, #1
 1045 0572 38BF     		it	cc
 1046 0574 0021     		movcc	r1, #0
 1047 0576 2A20     		movs	r0, #42
 1048 0578 FFF7FEFF 		bl	_test_assert
 1049              	.LVL177:
 1050              	.LBB47:
 1051 057c 2346     		mov	r3, r4
 1052              	@ 205 "/home/felix/Documents/ChibiOS/test/testmbox.c" 1
 1053 057e 83F31188 		msr     BASEPRI, r3
 1054              	@ 0 "" 2
 1055              	.LVL178:
 1056              		.thumb
 1057              	.LBE47:
 1058 0582 0028     		cmp	r0, #0
 1059 0584 7FF468AD 		bne	.L1
 1060              		.loc 1 206 0 discriminator 2
 1061 0588 E968     		ldr	r1, [r5, #12]
 1062 058a AB68     		ldr	r3, [r5, #8]
 1063              	.LVL179:
 1064 058c B1EB030C 		subs	ip, r1, r3
 1065 0590 DCF10001 		rsbs	r1, ip, #0
 1066 0594 51EB0C01 		adcs	r1, r1, ip
 1067 0598 2B20     		movs	r0, #43
 1068 059a FFF7FEFF 		bl	_test_assert
 1069              	.LVL180:
 1070 059e 0028     		cmp	r0, #0
 1071 05a0 7FF45AAD 		bne	.L1
 1072              		.loc 1 211 0
 1073 05a4 2846     		mov	r0, r5
 1074 05a6 FFF7FEFF 		bl	chMBReset
 1075              	.LVL181:
 1076              	.LBB48:
 1077              		.loc 1 216 0
 1078 05aa 2023     		movs	r3, #32
 1079              	.LVL182:
 1080              	@ 216 "/home/felix/Documents/ChibiOS/test/testmbox.c" 1
 1081 05ac 83F31188 		msr     BASEPRI, r3
 1082              	@ 0 "" 2
 1083              	.LVL183:
ARM GAS  /tmp/ccgWG4Mc.s 			page 20


 1084              		.thumb
 1085              	.LBE48:
 1086 05b0 696A     		ldr	r1, [r5, #36]
 1087 05b2 B1F1050E 		subs	lr, r1, #5
 1088 05b6 DEF10001 		rsbs	r1, lr, #0
 1089 05ba 51EB0E01 		adcs	r1, r1, lr
 1090 05be 2C20     		movs	r0, #44
 1091 05c0 FFF7FEFF 		bl	_test_assert
 1092              	.LVL184:
 1093              	.LBB49:
 1094 05c4 2346     		mov	r3, r4
 1095              	@ 216 "/home/felix/Documents/ChibiOS/test/testmbox.c" 1
 1096 05c6 83F31188 		msr     BASEPRI, r3
 1097              	@ 0 "" 2
 1098              	.LVL185:
 1099              		.thumb
 1100              	.LBE49:
 1101 05ca 0028     		cmp	r0, #0
 1102 05cc 7FF444AD 		bne	.L1
 1103              	.LBB50:
 1104              		.loc 1 217 0 discriminator 2
 1105 05d0 2023     		movs	r3, #32
 1106              	.LVL186:
 1107              	@ 217 "/home/felix/Documents/ChibiOS/test/testmbox.c" 1
 1108 05d2 83F31188 		msr     BASEPRI, r3
 1109              	@ 0 "" 2
 1110              	.LVL187:
 1111              		.thumb
 1112              	.LBE50:
 1113 05d6 A969     		ldr	r1, [r5, #24]
 1114 05d8 D1F10101 		rsbs	r1, r1, #1
 1115 05dc 38BF     		it	cc
 1116 05de 0021     		movcc	r1, #0
 1117 05e0 2D20     		movs	r0, #45
 1118 05e2 FFF7FEFF 		bl	_test_assert
 1119              	.LVL188:
 1120              	.LBB51:
 1121 05e6 2346     		mov	r3, r4
 1122              	@ 217 "/home/felix/Documents/ChibiOS/test/testmbox.c" 1
 1123 05e8 83F31188 		msr     BASEPRI, r3
 1124              	@ 0 "" 2
 1125              	.LVL189:
 1126              		.thumb
 1127              	.LBE51:
 1128 05ec 0028     		cmp	r0, #0
 1129 05ee 7FF433AD 		bne	.L1
 1130              	.LBB52:
 1131              		.loc 1 218 0 discriminator 2
 1132 05f2 2023     		movs	r3, #32
 1133              	.LVL190:
 1134              	@ 218 "/home/felix/Documents/ChibiOS/test/testmbox.c" 1
 1135 05f4 83F31188 		msr     BASEPRI, r3
 1136              	@ 0 "" 2
 1137              	.LVL191:
 1138              		.thumb
 1139              	.LBE52:
 1140 05f8 2968     		ldr	r1, [r5, #0]
ARM GAS  /tmp/ccgWG4Mc.s 			page 21


 1141 05fa AB68     		ldr	r3, [r5, #8]
 1142              	.LVL192:
 1143 05fc CA1A     		subs	r2, r1, r3
 1144 05fe 5142     		rsbs	r1, r2, #0
 1145 0600 5141     		adcs	r1, r1, r2
 1146 0602 2E20     		movs	r0, #46
 1147 0604 FFF7FEFF 		bl	_test_assert
 1148              	.LVL193:
 1149              	.LBB53:
 1150 0608 2346     		mov	r3, r4
 1151              	@ 218 "/home/felix/Documents/ChibiOS/test/testmbox.c" 1
 1152 060a 83F31188 		msr     BASEPRI, r3
 1153              	@ 0 "" 2
 1154              	.LVL194:
 1155              		.thumb
 1156              	.LBE53:
 1157 060e 0028     		cmp	r0, #0
 1158 0610 7FF422AD 		bne	.L1
 1159              	.LBB54:
 1160              		.loc 1 219 0 discriminator 2
 1161 0614 2023     		movs	r3, #32
 1162              	.LVL195:
 1163              	@ 219 "/home/felix/Documents/ChibiOS/test/testmbox.c" 1
 1164 0616 83F31188 		msr     BASEPRI, r3
 1165              	@ 0 "" 2
 1166              	.LVL196:
 1167              		.thumb
 1168              	.LBE54:
 1169 061a 2968     		ldr	r1, [r5, #0]
 1170 061c EB68     		ldr	r3, [r5, #12]
 1171              	.LVL197:
 1172 061e CB1A     		subs	r3, r1, r3
 1173 0620 5942     		rsbs	r1, r3, #0
 1174 0622 5941     		adcs	r1, r1, r3
 1175 0624 2F20     		movs	r0, #47
 1176 0626 FFF7FEFF 		bl	_test_assert
 1177              	.LVL198:
 1178 062a 3EE6     		b	.L27
 1179              	.L35:
 1180              		.align	2
 1181              	.L34:
 1182 062c 00000000 		.word	.LANCHOR0
 1183 0630 00000000 		.word	.LC0
 1184              		.cfi_endproc
 1185              	.LFE8:
 1186              		.size	mbox1_execute, .-mbox1_execute
 1187 0634 AFF30080 		.section	.text.mbox1_setup,"ax",%progbits
 1187      AFF30080 
 1187      AFF30080 
 1188              		.align	2
 1189              		.p2align 4,,15
 1190              		.thumb
 1191              		.thumb_func
 1192              		.type	mbox1_setup, %function
 1193              	mbox1_setup:
 1194              	.LFB7:
 1195              		.loc 1 71 0
ARM GAS  /tmp/ccgWG4Mc.s 			page 22


 1196              		.cfi_startproc
 1197              		@ args = 0, pretend = 0, frame = 0
 1198              		@ frame_needed = 0, uses_anonymous_args = 0
 1199              		@ link register save eliminated.
 1200              		.loc 1 73 0
 1201 0000 40F20000 		movw	r0, #:lower16:.LANCHOR0
 1202 0004 40F20001 		movw	r1, #:lower16:test
 1203 0008 C0F20000 		movt	r0, #:upper16:.LANCHOR0
 1204 000c C0F20001 		movt	r1, #:upper16:test
 1205 0010 0522     		movs	r2, #5
 1206              		.loc 1 74 0
 1207              		.loc 1 73 0
 1208 0012 FFF7FEBF 		b	chMBInit
 1209              	.LVL199:
 1210              		.cfi_endproc
 1211              	.LFE7:
 1212              		.size	mbox1_setup, .-mbox1_setup
 1213              		.global	patternmbox
 1214              		.global	testmbox1
 1215 0016 00BFAFF3 		.section	.data.mb1,"aw",%progbits
 1215      0080AFF3 
 1215      0080
 1216              		.align	2
 1217              		.set	.LANCHOR0,. + 0
 1218              		.type	mb1, %object
 1219              		.size	mb1, 40
 1220              	mb1:
 1221 0000 00000000 		.word	test
 1222 0004 14000000 		.word	test+20
 1223 0008 00000000 		.word	test
 1224 000c 00000000 		.word	test
 1225 0010 10000000 		.word	mb1+16
 1226 0014 10000000 		.word	mb1+16
 1227 0018 00000000 		.word	0
 1228 001c 1C000000 		.word	mb1+28
 1229 0020 1C000000 		.word	mb1+28
 1230 0024 05000000 		.word	5
 1231              		.section	.rodata.patternmbox,"a",%progbits
 1232              		.align	2
 1233              		.type	patternmbox, %object
 1234              		.size	patternmbox, 8
 1235              	patternmbox:
 1236 0000 00000000 		.word	testmbox1
 1237 0004 00000000 		.word	0
 1238              		.section	.rodata.str1.4,"aMS",%progbits,1
 1239              		.align	2
 1240              	.LC0:
 1241 0000 41424344 		.ascii	"ABCDE\000"
 1241      4500
 1242 0006 0000     		.space	2
 1243              	.LC1:
 1244 0008 4D61696C 		.ascii	"Mailboxes, queuing and timeouts\000"
 1244      626F7865 
 1244      732C2071 
 1244      75657569 
 1244      6E672061 
 1245              		.section	.rodata.testmbox1,"a",%progbits
ARM GAS  /tmp/ccgWG4Mc.s 			page 23


 1246              		.align	2
 1247              		.type	testmbox1, %object
 1248              		.size	testmbox1, 16
 1249              	testmbox1:
 1250 0000 08000000 		.word	.LC1
 1251 0004 00000000 		.word	mbox1_setup
 1252 0008 00000000 		.word	0
 1253 000c 00000000 		.word	mbox1_execute
 1254              		.text
 1255              	.Letext0:
 1256              		.file 2 "/opt/tools_arm/lib/gcc/arm-none-eabi/4.7.3/../../../../arm-none-eabi/include/stdint.h"
 1257              		.file 3 "/home/felix/Documents/ChibiOS/os/ports/GCC/ARMCMx/chtypes.h"
 1258              		.file 4 "/home/felix/Documents/ChibiOS/os/kernel/include/chlists.h"
 1259              		.file 5 "/home/felix/Documents/ChibiOS/os/kernel/include/chthreads.h"
 1260              		.file 6 "/home/felix/Documents/ChibiOS/os/ports/GCC/ARMCMx/chcore_v7m.h"
 1261              		.file 7 "/home/felix/Documents/ChibiOS/os/kernel/include/chsem.h"
 1262              		.file 8 "/home/felix/Documents/ChibiOS/os/kernel/include/chmtx.h"
 1263              		.file 9 "/home/felix/Documents/ChibiOS/os/kernel/include/chmboxes.h"
 1264              		.file 10 "/home/felix/Documents/ChibiOS/test/test.h"