ARM GAS  /tmp/ccf6u3gI.s 			page 1


   1              		.syntax unified
   2              		.cpu cortex-m4
   3              		.fpu softvfp
   4              		.eabi_attribute 20, 1
   5              		.eabi_attribute 21, 1
   6              		.eabi_attribute 23, 3
   7              		.eabi_attribute 24, 1
   8              		.eabi_attribute 25, 1
   9              		.eabi_attribute 26, 1
  10              		.eabi_attribute 30, 2
  11              		.eabi_attribute 34, 1
  12              		.eabi_attribute 18, 4
  13              		.thumb
  14              		.file	"testsem.c"
  15              		.text
  16              	.Ltext0:
  17              		.cfi_sections	.debug_frame
  18              		.section	.text.sem3_setup,"ax",%progbits
  19              		.align	2
  20              		.p2align 4,,15
  21              		.thumb
  22              		.thumb_func
  23              		.type	sem3_setup, %function
  24              	sem3_setup:
  25              	.LFB13:
  26              		.file 1 "/home/felix/Documents/ChibiOS/test/testsem.c"
  27              		.loc 1 204 0
  28              		.cfi_startproc
  29              		@ args = 0, pretend = 0, frame = 0
  30              		@ frame_needed = 0, uses_anonymous_args = 0
  31              		@ link register save eliminated.
  32              		.loc 1 206 0
  33 0000 40F20000 		movw	r0, #:lower16:.LANCHOR0
  34 0004 C0F20000 		movt	r0, #:upper16:.LANCHOR0
  35 0008 0021     		movs	r1, #0
  36              		.loc 1 207 0
  37              		.loc 1 206 0
  38 000a FFF7FEBF 		b	chSemInit
  39              	.LVL0:
  40              		.cfi_endproc
  41              	.LFE13:
  42              		.size	sem3_setup, .-sem3_setup
  43 000e 00BF     		.section	.text.sem2_setup,"ax",%progbits
  44              		.align	2
  45              		.p2align 4,,15
  46              		.thumb
  47              		.thumb_func
  48              		.type	sem2_setup, %function
  49              	sem2_setup:
  50              	.LFB10:
  51              		.loc 1 128 0
  52              		.cfi_startproc
  53              		@ args = 0, pretend = 0, frame = 0
  54              		@ frame_needed = 0, uses_anonymous_args = 0
  55              		@ link register save eliminated.
  56              		.loc 1 130 0
  57 0000 40F20000 		movw	r0, #:lower16:.LANCHOR0
ARM GAS  /tmp/ccf6u3gI.s 			page 2


  58 0004 C0F20000 		movt	r0, #:upper16:.LANCHOR0
  59 0008 0021     		movs	r1, #0
  60              		.loc 1 131 0
  61              		.loc 1 130 0
  62 000a FFF7FEBF 		b	chSemInit
  63              	.LVL1:
  64              		.cfi_endproc
  65              	.LFE10:
  66              		.size	sem2_setup, .-sem2_setup
  67              		.section	.text.sem1_setup,"ax",%progbits
  68              		.align	2
  69              		.p2align 4,,15
  70              		.thumb
  71              		.thumb_func
  72              		.type	sem1_setup, %function
  73              	sem1_setup:
  74              	.LFB7:
  75              		.loc 1 72 0
  76              		.cfi_startproc
  77              		@ args = 0, pretend = 0, frame = 0
  78              		@ frame_needed = 0, uses_anonymous_args = 0
  79              		@ link register save eliminated.
  80              		.loc 1 74 0
  81 0000 40F20000 		movw	r0, #:lower16:.LANCHOR0
  82 0004 C0F20000 		movt	r0, #:upper16:.LANCHOR0
  83 0008 0021     		movs	r1, #0
  84              		.loc 1 75 0
  85              		.loc 1 74 0
  86 000a FFF7FEBF 		b	chSemInit
  87              	.LVL2:
  88              		.cfi_endproc
  89              	.LFE7:
  90              		.size	sem1_setup, .-sem1_setup
  91              		.section	.text.sem4_execute,"ax",%progbits
  92              		.align	2
  93              		.p2align 4,,15
  94              		.thumb
  95              		.thumb_func
  96              		.type	sem4_execute, %function
  97              	sem4_execute:
  98              	.LFB17:
  99              		.loc 1 251 0
 100              		.cfi_startproc
 101              		@ args = 0, pretend = 0, frame = 16
 102              		@ frame_needed = 0, uses_anonymous_args = 0
 103 0000 00B5     		push	{lr}
 104              	.LCFI0:
 105              		.cfi_def_cfa_offset 4
 106              		.cfi_offset 14, -4
 107 0002 87B0     		sub	sp, sp, #28
 108              	.LCFI1:
 109              		.cfi_def_cfa_offset 32
 110              		.loc 1 255 0
 111 0004 03A8     		add	r0, sp, #12
 112 0006 0021     		movs	r1, #0
 113 0008 FFF7FEFF 		bl	chSemInit
 114              	.LVL3:
ARM GAS  /tmp/ccf6u3gI.s 			page 3


 115              		.loc 1 256 0
 116 000c 03A8     		add	r0, sp, #12
 117 000e 0021     		movs	r1, #0
 118 0010 FFF7FEFF 		bl	chSemReset
 119              	.LVL4:
 120              		.loc 1 257 0
 121 0014 0599     		ldr	r1, [sp, #20]
 122 0016 0029     		cmp	r1, #0
 123 0018 CCBF     		ite	gt
 124 001a 0021     		movgt	r1, #0
 125 001c 0121     		movle	r1, #1
 126 001e 0120     		movs	r0, #1
 127 0020 FFF7FEFF 		bl	_test_assert
 128              	.LVL5:
 129 0024 08B1     		cbz	r0, .L10
 130              	.L4:
 131              		.loc 1 279 0
 132 0026 07B0     		add	sp, sp, #28
 133 0028 00BD     		pop	{pc}
 134              	.L10:
 135              		.loc 1 261 0
 136 002a 2F4B     		ldr	r3, .L13
 137              		.loc 1 260 0
 138 002c 2F4A     		ldr	r2, .L13+4
 139              		.loc 1 261 0
 140 002e 9B69     		ldr	r3, [r3, #24]
 141              		.loc 1 260 0
 142 0030 1068     		ldr	r0, [r2, #0]
 143 0032 9A68     		ldr	r2, [r3, #8]
 144 0034 2E4B     		ldr	r3, .L13+8
 145 0036 03A9     		add	r1, sp, #12
 146 0038 0091     		str	r1, [sp, #0]
 147 003a 013A     		subs	r2, r2, #1
 148 003c 4FF49871 		mov	r1, #304
 149 0040 FFF7FEFF 		bl	chThdCreateStatic
 150              	.LVL6:
 151 0044 2B4B     		ldr	r3, .L13+12
 152 0046 1860     		str	r0, [r3, #0]
 153              		.loc 1 264 0
 154 0048 03A8     		add	r0, sp, #12
 155 004a FFF7FEFF 		bl	chSemWait
 156              	.LVL7:
 157              		.loc 1 267 0
 158 004e 0599     		ldr	r1, [sp, #20]
 159 0050 0029     		cmp	r1, #0
 160 0052 CCBF     		ite	gt
 161 0054 0021     		movgt	r1, #0
 162 0056 0121     		movle	r1, #1
 163 0058 0220     		movs	r0, #2
 164 005a FFF7FEFF 		bl	_test_assert
 165              	.LVL8:
 166 005e 0028     		cmp	r0, #0
 167 0060 E1D1     		bne	.L4
 168              	.LBB2:
 169              		.loc 1 271 0
 170 0062 2023     		movs	r3, #32
 171              	.LVL9:
ARM GAS  /tmp/ccf6u3gI.s 			page 4


 172              	@ 271 "/home/felix/Documents/ChibiOS/test/testsem.c" 1
 173 0064 83F31188 		msr     BASEPRI, r3
 174              	@ 0 "" 2
 175              	.LVL10:
 176              		.thumb
 177              	.LBE2:
 178 0068 059B     		ldr	r3, [sp, #20]
 179              	.LVL11:
 180 006a 002B     		cmp	r3, #0
 181 006c 34DD     		ble	.L11
 182              	.L6:
 183              		.loc 1 271 0 is_stmt 0 discriminator 2
 184 006e FFF7FEFF 		bl	chSchRescheduleS
 185              	.LVL12:
 186              	.LBB3:
 187 0072 0023     		movs	r3, #0
 188              	.LVL13:
 189              	@ 271 "/home/felix/Documents/ChibiOS/test/testsem.c" 1
 190 0074 83F31188 		msr     BASEPRI, r3
 191              	@ 0 "" 2
 192              	.LVL14:
 193              		.thumb
 194              	.LBE3:
 195              		.loc 1 272 0 is_stmt 1 discriminator 2
 196 0078 0599     		ldr	r1, [sp, #20]
 197 007a 9942     		cmp	r1, r3
 198              	.LVL15:
 199 007c D4BF     		ite	le
 200 007e 0021     		movle	r1, #0
 201 0080 0121     		movgt	r1, #1
 202 0082 0320     		movs	r0, #3
 203 0084 FFF7FEFF 		bl	_test_assert
 204              	.LVL16:
 205 0088 0028     		cmp	r0, #0
 206 008a CCD1     		bne	.L4
 207              		.loc 1 273 0
 208 008c 0599     		ldr	r1, [sp, #20]
 209 008e 4A1E     		subs	r2, r1, #1
 210 0090 5142     		rsbs	r1, r2, #0
 211 0092 5141     		adcs	r1, r1, r2
 212 0094 0420     		movs	r0, #4
 213 0096 FFF7FEFF 		bl	_test_assert
 214              	.LVL17:
 215 009a 0028     		cmp	r0, #0
 216 009c C3D1     		bne	.L4
 217              	.LBB4:
 218              		.loc 1 276 0
 219 009e 2023     		movs	r3, #32
 220              	.LVL18:
 221              	@ 276 "/home/felix/Documents/ChibiOS/test/testsem.c" 1
 222 00a0 83F31188 		msr     BASEPRI, r3
 223              	@ 0 "" 2
 224              	.LVL19:
 225              		.thumb
 226              	.LBE4:
 227 00a4 059B     		ldr	r3, [sp, #20]
 228              	.LVL20:
ARM GAS  /tmp/ccf6u3gI.s 			page 5


 229 00a6 002B     		cmp	r3, #0
 230 00a8 1ADD     		ble	.L12
 231              	.L7:
 232              		.loc 1 276 0 is_stmt 0 discriminator 2
 233 00aa FFF7FEFF 		bl	chSchRescheduleS
 234              	.LVL21:
 235              	.LBB5:
 236 00ae 0023     		movs	r3, #0
 237              	.LVL22:
 238              	@ 276 "/home/felix/Documents/ChibiOS/test/testsem.c" 1
 239 00b0 83F31188 		msr     BASEPRI, r3
 240              	@ 0 "" 2
 241              	.LVL23:
 242              		.thumb
 243              	.LBE5:
 244              		.loc 1 277 0 is_stmt 1 discriminator 2
 245 00b4 0599     		ldr	r1, [sp, #20]
 246 00b6 9942     		cmp	r1, r3
 247              	.LVL24:
 248 00b8 D4BF     		ite	le
 249 00ba 0021     		movle	r1, #0
 250 00bc 0121     		movgt	r1, #1
 251 00be 0320     		movs	r0, #3
 252 00c0 FFF7FEFF 		bl	_test_assert
 253              	.LVL25:
 254 00c4 0028     		cmp	r0, #0
 255 00c6 AED1     		bne	.L4
 256              		.loc 1 278 0
 257 00c8 0599     		ldr	r1, [sp, #20]
 258 00ca 4B1E     		subs	r3, r1, #1
 259 00cc 5942     		rsbs	r1, r3, #0
 260 00ce 5941     		adcs	r1, r1, r3
 261 00d0 0520     		movs	r0, #5
 262 00d2 FFF7FEFF 		bl	_test_assert
 263              	.LVL26:
 264 00d6 A6E7     		b	.L4
 265              	.L11:
 266              		.loc 1 271 0 discriminator 1
 267 00d8 03A8     		add	r0, sp, #12
 268 00da FFF7FEFF 		bl	chSemSignalI
 269              	.LVL27:
 270 00de C6E7     		b	.L6
 271              	.L12:
 272              		.loc 1 276 0 discriminator 1
 273 00e0 03A8     		add	r0, sp, #12
 274 00e2 FFF7FEFF 		bl	chSemSignalI
 275              	.LVL28:
 276 00e6 E0E7     		b	.L7
 277              	.L14:
 278              		.align	2
 279              	.L13:
 280 00e8 00000000 		.word	rlist
 281 00ec 00000000 		.word	wa
 282 00f0 00000000 		.word	thread4
 283 00f4 00000000 		.word	threads
 284              		.cfi_endproc
 285              	.LFE17:
ARM GAS  /tmp/ccf6u3gI.s 			page 6


 286              		.size	sem4_execute, .-sem4_execute
 287 00f8 AFF30080 		.section	.text.thread4,"ax",%progbits
 287      AFF30080 
 288              		.align	2
 289              		.p2align 4,,15
 290              		.thumb
 291              		.thumb_func
 292              		.type	thread4, %function
 293              	thread4:
 294              	.LFB16:
 295              		.loc 1 245 0
 296              		.cfi_startproc
 297              		@ args = 0, pretend = 0, frame = 0
 298              		@ frame_needed = 0, uses_anonymous_args = 0
 299              	.LVL29:
 300 0000 08B5     		push	{r3, lr}
 301              	.LCFI2:
 302              		.cfi_def_cfa_offset 8
 303              		.cfi_offset 3, -8
 304              		.cfi_offset 14, -4
 305              	.LBB6:
 306              		.loc 1 247 0
 307 0002 2023     		movs	r3, #32
 308              	.LVL30:
 309              	@ 247 "/home/felix/Documents/ChibiOS/test/testsem.c" 1
 310 0004 83F31188 		msr     BASEPRI, r3
 311              	@ 0 "" 2
 312              	.LVL31:
 313              		.thumb
 314              	.LBE6:
 315 0008 8368     		ldr	r3, [r0, #8]
 316              	.LVL32:
 317 000a 002B     		cmp	r3, #0
 318 000c 06DD     		ble	.L17
 319              	.LVL33:
 320              	.L16:
 321              		.loc 1 247 0 is_stmt 0 discriminator 2
 322 000e FFF7FEFF 		bl	chSchRescheduleS
 323              	.LVL34:
 324              	.LBB7:
 325 0012 0023     		movs	r3, #0
 326              	.LVL35:
 327              	@ 247 "/home/felix/Documents/ChibiOS/test/testsem.c" 1
 328 0014 83F31188 		msr     BASEPRI, r3
 329              	@ 0 "" 2
 330              	.LVL36:
 331              		.thumb
 332              	.LBE7:
 333              		.loc 1 249 0 is_stmt 1 discriminator 2
 334 0018 1846     		mov	r0, r3
 335 001a 08BD     		pop	{r3, pc}
 336              	.LVL37:
 337              	.L17:
 338              		.loc 1 247 0 discriminator 1
 339 001c FFF7FEFF 		bl	chSemSignalI
 340              	.LVL38:
 341 0020 F5E7     		b	.L16
ARM GAS  /tmp/ccf6u3gI.s 			page 7


 342              		.cfi_endproc
 343              	.LFE16:
 344              		.size	thread4, .-thread4
 345 0022 00BFAFF3 		.section	.text.thread3,"ax",%progbits
 345      0080AFF3 
 345      0080AFF3 
 345      0080
 346              		.align	2
 347              		.p2align 4,,15
 348              		.thumb
 349              		.thumb_func
 350              		.type	thread3, %function
 351              	thread3:
 352              	.LFB14:
 353              		.loc 1 209 0
 354              		.cfi_startproc
 355              		@ args = 0, pretend = 0, frame = 0
 356              		@ frame_needed = 0, uses_anonymous_args = 0
 357              	.LVL39:
 358 0000 10B5     		push	{r4, lr}
 359              	.LCFI3:
 360              		.cfi_def_cfa_offset 8
 361              		.cfi_offset 4, -8
 362              		.cfi_offset 14, -4
 363              		.loc 1 212 0
 364 0002 40F20004 		movw	r4, #:lower16:.LANCHOR0
 365 0006 C0F20004 		movt	r4, #:upper16:.LANCHOR0
 366 000a 2046     		mov	r0, r4
 367              	.LVL40:
 368 000c FFF7FEFF 		bl	chSemWait
 369              	.LVL41:
 370              		.loc 1 213 0
 371 0010 2046     		mov	r0, r4
 372 0012 FFF7FEFF 		bl	chSemSignal
 373              	.LVL42:
 374              		.loc 1 215 0
 375 0016 0020     		movs	r0, #0
 376 0018 10BD     		pop	{r4, pc}
 377              		.cfi_endproc
 378              	.LFE14:
 379              		.size	thread3, .-thread3
 380 001a 00BFAFF3 		.section	.text.thread1,"ax",%progbits
 380      0080
 381              		.align	2
 382              		.p2align 4,,15
 383              		.thumb
 384              		.thumb_func
 385              		.type	thread1, %function
 386              	thread1:
 387              	.LFB8:
 388              		.loc 1 77 0
 389              		.cfi_startproc
 390              		@ args = 0, pretend = 0, frame = 0
 391              		@ frame_needed = 0, uses_anonymous_args = 0
 392              	.LVL43:
 393 0000 10B5     		push	{r4, lr}
 394              	.LCFI4:
ARM GAS  /tmp/ccf6u3gI.s 			page 8


 395              		.cfi_def_cfa_offset 8
 396              		.cfi_offset 4, -8
 397              		.cfi_offset 14, -4
 398              		.loc 1 77 0
 399 0002 0446     		mov	r4, r0
 400              		.loc 1 79 0
 401 0004 40F20000 		movw	r0, #:lower16:.LANCHOR0
 402              	.LVL44:
 403 0008 C0F20000 		movt	r0, #:upper16:.LANCHOR0
 404 000c FFF7FEFF 		bl	chSemWait
 405              	.LVL45:
 406              		.loc 1 80 0
 407 0010 2078     		ldrb	r0, [r4, #0]	@ zero_extendqisi2
 408 0012 FFF7FEFF 		bl	test_emit_token
 409              	.LVL46:
 410              		.loc 1 82 0
 411 0016 0020     		movs	r0, #0
 412 0018 10BD     		pop	{r4, pc}
 413              		.cfi_endproc
 414              	.LFE8:
 415              		.size	thread1, .-thread1
 416 001a 00BFAFF3 		.section	.text.thread2,"ax",%progbits
 416      0080
 417              		.align	2
 418              		.p2align 4,,15
 419              		.thumb
 420              		.thumb_func
 421              		.type	thread2, %function
 422              	thread2:
 423              	.LFB11:
 424              		.loc 1 133 0
 425              		.cfi_startproc
 426              		@ args = 0, pretend = 0, frame = 0
 427              		@ frame_needed = 0, uses_anonymous_args = 0
 428              	.LVL47:
 429 0000 08B5     		push	{r3, lr}
 430              	.LCFI5:
 431              		.cfi_def_cfa_offset 8
 432              		.cfi_offset 3, -8
 433              		.cfi_offset 14, -4
 434              		.loc 1 136 0
 435 0002 3220     		movs	r0, #50
 436              	.LVL48:
 437 0004 FFF7FEFF 		bl	chThdSleep
 438              	.LVL49:
 439              	.LBB8:
 440              		.loc 1 137 0
 441 0008 2023     		movs	r3, #32
 442              	.LVL50:
 443              	@ 137 "/home/felix/Documents/ChibiOS/test/testsem.c" 1
 444 000a 83F31188 		msr     BASEPRI, r3
 445              	@ 0 "" 2
 446              	.LVL51:
 447              		.thumb
 448              	.LBE8:
 449              		.loc 1 138 0
 450 000e 40F20000 		movw	r0, #:lower16:.LANCHOR0
ARM GAS  /tmp/ccf6u3gI.s 			page 9


 451 0012 C0F20000 		movt	r0, #:upper16:.LANCHOR0
 452 0016 FFF7FEFF 		bl	chSemSignalI
 453              	.LVL52:
 454              		.loc 1 139 0
 455 001a FFF7FEFF 		bl	chSchRescheduleS
 456              	.LVL53:
 457              	.LBB9:
 458              		.loc 1 140 0
 459 001e 0023     		movs	r3, #0
 460              	.LVL54:
 461              	@ 140 "/home/felix/Documents/ChibiOS/test/testsem.c" 1
 462 0020 83F31188 		msr     BASEPRI, r3
 463              	@ 0 "" 2
 464              	.LVL55:
 465              		.thumb
 466              	.LBE9:
 467              		.loc 1 142 0
 468 0024 1846     		mov	r0, r3
 469 0026 08BD     		pop	{r3, pc}
 470              		.cfi_endproc
 471              	.LFE11:
 472              		.size	thread2, .-thread2
 473 0028 AFF30080 		.section	.text.sem1_execute,"ax",%progbits
 473      AFF30080 
 474              		.align	2
 475              		.p2align 4,,15
 476              		.thumb
 477              		.thumb_func
 478              		.type	sem1_execute, %function
 479              	sem1_execute:
 480              	.LFB9:
 481              		.loc 1 84 0
 482              		.cfi_startproc
 483              		@ args = 0, pretend = 0, frame = 0
 484              		@ frame_needed = 0, uses_anonymous_args = 0
 485 0000 2DE9F043 		push	{r4, r5, r6, r7, r8, r9, lr}
 486              	.LCFI6:
 487              		.cfi_def_cfa_offset 28
 488              		.cfi_offset 4, -28
 489              		.cfi_offset 5, -24
 490              		.cfi_offset 6, -20
 491              		.cfi_offset 7, -16
 492              		.cfi_offset 8, -12
 493              		.cfi_offset 9, -8
 494              		.cfi_offset 14, -4
 495              		.loc 1 86 0
 496 0004 444E     		ldr	r6, .L24
 497 0006 454F     		ldr	r7, .L24+4
 498 0008 B369     		ldr	r3, [r6, #24]
 499 000a D7F80080 		ldr	r8, [r7, #0]
 500 000e 9A68     		ldr	r2, [r3, #8]
 501 0010 DFF82C91 		ldr	r9, .L24+40
 502 0014 424B     		ldr	r3, .L24+8
 503 0016 434D     		ldr	r5, .L24+12
 504              		.loc 1 91 0
 505 0018 434C     		ldr	r4, .L24+16
 506              		.loc 1 84 0
ARM GAS  /tmp/ccf6u3gI.s 			page 10


 507 001a 83B0     		sub	sp, sp, #12
 508              	.LCFI7:
 509              		.cfi_def_cfa_offset 40
 510              		.loc 1 86 0
 511 001c 0532     		adds	r2, r2, #5
 512 001e 4FF49871 		mov	r1, #304
 513 0022 CDF80090 		str	r9, [sp, #0]
 514 0026 4046     		mov	r0, r8
 515 0028 FFF7FEFF 		bl	chThdCreateStatic
 516              	.LVL56:
 517              		.loc 1 87 0
 518 002c B369     		ldr	r3, [r6, #24]
 519 002e 3F49     		ldr	r1, .L24+20
 520 0030 9A68     		ldr	r2, [r3, #8]
 521 0032 7B68     		ldr	r3, [r7, #4]
 522              		.loc 1 86 0
 523 0034 2860     		str	r0, [r5, #0]
 524              		.loc 1 87 0
 525 0036 0132     		adds	r2, r2, #1
 526 0038 1846     		mov	r0, r3
 527 003a 0091     		str	r1, [sp, #0]
 528 003c 384B     		ldr	r3, .L24+8
 529 003e 4FF49871 		mov	r1, #304
 530 0042 FFF7FEFF 		bl	chThdCreateStatic
 531              	.LVL57:
 532              		.loc 1 88 0
 533 0046 B269     		ldr	r2, [r6, #24]
 534 0048 BB68     		ldr	r3, [r7, #8]
 535 004a 9268     		ldr	r2, [r2, #8]
 536 004c 3849     		ldr	r1, .L24+24
 537              		.loc 1 87 0
 538 004e 6860     		str	r0, [r5, #4]
 539              		.loc 1 88 0
 540 0050 0332     		adds	r2, r2, #3
 541 0052 1846     		mov	r0, r3
 542 0054 0091     		str	r1, [sp, #0]
 543 0056 324B     		ldr	r3, .L24+8
 544 0058 4FF49871 		mov	r1, #304
 545 005c FFF7FEFF 		bl	chThdCreateStatic
 546              	.LVL58:
 547              		.loc 1 89 0
 548 0060 B269     		ldr	r2, [r6, #24]
 549 0062 FB68     		ldr	r3, [r7, #12]
 550 0064 9268     		ldr	r2, [r2, #8]
 551 0066 3349     		ldr	r1, .L24+28
 552              		.loc 1 88 0
 553 0068 A860     		str	r0, [r5, #8]
 554              		.loc 1 89 0
 555 006a 0432     		adds	r2, r2, #4
 556 006c 1846     		mov	r0, r3
 557 006e 0091     		str	r1, [sp, #0]
 558 0070 2B4B     		ldr	r3, .L24+8
 559 0072 4FF49871 		mov	r1, #304
 560 0076 FFF7FEFF 		bl	chThdCreateStatic
 561              	.LVL59:
 562              		.loc 1 90 0
 563 007a B269     		ldr	r2, [r6, #24]
ARM GAS  /tmp/ccf6u3gI.s 			page 11


 564 007c 3B69     		ldr	r3, [r7, #16]
 565 007e 9268     		ldr	r2, [r2, #8]
 566 0080 2D49     		ldr	r1, .L24+32
 567              		.loc 1 89 0
 568 0082 E860     		str	r0, [r5, #12]
 569              		.loc 1 90 0
 570 0084 0232     		adds	r2, r2, #2
 571 0086 1846     		mov	r0, r3
 572 0088 0091     		str	r1, [sp, #0]
 573 008a 254B     		ldr	r3, .L24+8
 574 008c 4FF49871 		mov	r1, #304
 575 0090 FFF7FEFF 		bl	chThdCreateStatic
 576              	.LVL60:
 577 0094 2861     		str	r0, [r5, #16]
 578              		.loc 1 91 0
 579 0096 2046     		mov	r0, r4
 580 0098 FFF7FEFF 		bl	chSemSignal
 581              	.LVL61:
 582              		.loc 1 92 0
 583 009c 2046     		mov	r0, r4
 584 009e FFF7FEFF 		bl	chSemSignal
 585              	.LVL62:
 586              		.loc 1 93 0
 587 00a2 2046     		mov	r0, r4
 588 00a4 FFF7FEFF 		bl	chSemSignal
 589              	.LVL63:
 590              		.loc 1 94 0
 591 00a8 2046     		mov	r0, r4
 592 00aa FFF7FEFF 		bl	chSemSignal
 593              	.LVL64:
 594              		.loc 1 95 0
 595 00ae 2046     		mov	r0, r4
 596 00b0 FFF7FEFF 		bl	chSemSignal
 597              	.LVL65:
 598              		.loc 1 96 0
 599 00b4 FFF7FEFF 		bl	test_wait_threads
 600              	.LVL66:
 601              		.loc 1 100 0
 602 00b8 0120     		movs	r0, #1
 603 00ba 2049     		ldr	r1, .L24+36
 604 00bc FFF7FEFF 		bl	_test_assert_sequence
 605              	.LVL67:
 606 00c0 0746     		mov	r7, r0
 607 00c2 10B1     		cbz	r0, .L23
 608              		.loc 1 108 0
 609 00c4 03B0     		add	sp, sp, #12
 610 00c6 BDE8F083 		pop	{r4, r5, r6, r7, r8, r9, pc}
 611              	.L23:
 612              		.loc 1 102 0
 613 00ca B269     		ldr	r2, [r6, #24]
 614 00cc 144B     		ldr	r3, .L24+8
 615 00ce 9268     		ldr	r2, [r2, #8]
 616 00d0 CDF80090 		str	r9, [sp, #0]
 617 00d4 0532     		adds	r2, r2, #5
 618 00d6 4046     		mov	r0, r8
 619 00d8 4FF49871 		mov	r1, #304
 620 00dc FFF7FEFF 		bl	chThdCreateStatic
ARM GAS  /tmp/ccf6u3gI.s 			page 12


 621              	.LVL68:
 622              	.LBB10:
 623              		.loc 1 103 0
 624 00e0 2023     		movs	r3, #32
 625              	.LVL69:
 626              	.LBE10:
 627              		.loc 1 102 0
 628 00e2 2860     		str	r0, [r5, #0]
 629              	.LBB11:
 630              		.loc 1 103 0
 631              	@ 103 "/home/felix/Documents/ChibiOS/test/testsem.c" 1
 632 00e4 83F31188 		msr     BASEPRI, r3
 633              	@ 0 "" 2
 634              	.LVL70:
 635              		.thumb
 636              	.LBE11:
 637              		.loc 1 104 0
 638 00e8 0221     		movs	r1, #2
 639 00ea 2046     		mov	r0, r4
 640 00ec FFF7FEFF 		bl	chSemAddCounterI
 641              	.LVL71:
 642              	.LBB12:
 643              		.loc 1 105 0
 644 00f0 3B46     		mov	r3, r7
 645              	.LVL72:
 646              	@ 105 "/home/felix/Documents/ChibiOS/test/testsem.c" 1
 647 00f2 83F31188 		msr     BASEPRI, r3
 648              	@ 0 "" 2
 649              	.LVL73:
 650              		.thumb
 651              	.LBE12:
 652              		.loc 1 106 0
 653 00f6 FFF7FEFF 		bl	test_wait_threads
 654              	.LVL74:
 655              		.loc 1 107 0
 656 00fa A168     		ldr	r1, [r4, #8]
 657 00fc B1F1010E 		subs	lr, r1, #1
 658 0100 DEF10001 		rsbs	r1, lr, #0
 659 0104 4FF00200 		mov	r0, #2
 660 0108 51EB0E01 		adcs	r1, r1, lr
 661              		.loc 1 108 0
 662 010c 03B0     		add	sp, sp, #12
 663 010e BDE8F043 		pop	{r4, r5, r6, r7, r8, r9, lr}
 664              		.loc 1 107 0
 665 0112 FFF7FEBF 		b	_test_assert
 666              	.LVL75:
 667              	.L25:
 668 0116 00BF     		.align	2
 669              	.L24:
 670 0118 00000000 		.word	rlist
 671 011c 00000000 		.word	wa
 672 0120 00000000 		.word	thread1
 673 0124 00000000 		.word	threads
 674 0128 00000000 		.word	.LANCHOR0
 675 012c 04000000 		.word	.LC1
 676 0130 08000000 		.word	.LC2
 677 0134 0C000000 		.word	.LC3
ARM GAS  /tmp/ccf6u3gI.s 			page 13


 678 0138 10000000 		.word	.LC4
 679 013c 14000000 		.word	.LC5
 680 0140 00000000 		.word	.LC0
 681              		.cfi_endproc
 682              	.LFE9:
 683              		.size	sem1_execute, .-sem1_execute
 684 0144 AFF30080 		.section	.text.sem3_execute,"ax",%progbits
 684      AFF30080 
 684      AFF30080 
 685              		.align	2
 686              		.p2align 4,,15
 687              		.thumb
 688              		.thumb_func
 689              		.type	sem3_execute, %function
 690              	sem3_execute:
 691              	.LFB15:
 692              		.loc 1 217 0
 693              		.cfi_startproc
 694              		@ args = 0, pretend = 0, frame = 0
 695              		@ frame_needed = 0, uses_anonymous_args = 0
 696 0000 10B5     		push	{r4, lr}
 697              	.LCFI8:
 698              		.cfi_def_cfa_offset 8
 699              		.cfi_offset 4, -8
 700              		.cfi_offset 14, -4
 701              		.loc 1 219 0
 702 0002 224B     		ldr	r3, .L31
 703 0004 224A     		ldr	r2, .L31+4
 704 0006 9B69     		ldr	r3, [r3, #24]
 705 0008 1068     		ldr	r0, [r2, #0]
 706 000a 9A68     		ldr	r2, [r3, #8]
 707 000c 214B     		ldr	r3, .L31+8
 708              		.loc 1 220 0
 709 000e 224C     		ldr	r4, .L31+12
 710              		.loc 1 217 0
 711 0010 82B0     		sub	sp, sp, #8
 712              	.LCFI9:
 713              		.cfi_def_cfa_offset 16
 714              		.loc 1 219 0
 715 0012 0021     		movs	r1, #0
 716 0014 0132     		adds	r2, r2, #1
 717 0016 0091     		str	r1, [sp, #0]
 718 0018 4FF49871 		mov	r1, #304
 719 001c FFF7FEFF 		bl	chThdCreateStatic
 720              	.LVL76:
 721 0020 1E4B     		ldr	r3, .L31+16
 722              		.loc 1 220 0
 723 0022 2146     		mov	r1, r4
 724              		.loc 1 219 0
 725 0024 1860     		str	r0, [r3, #0]
 726              		.loc 1 220 0
 727 0026 2046     		mov	r0, r4
 728 0028 FFF7FEFF 		bl	chSemSignalWait
 729              	.LVL77:
 730              		.loc 1 221 0
 731 002c 2168     		ldr	r1, [r4, #0]
 732 002e 0B1B     		subs	r3, r1, r4
ARM GAS  /tmp/ccf6u3gI.s 			page 14


 733 0030 5942     		rsbs	r1, r3, #0
 734 0032 5941     		adcs	r1, r1, r3
 735 0034 0120     		movs	r0, #1
 736 0036 FFF7FEFF 		bl	_test_assert
 737              	.LVL78:
 738 003a 08B1     		cbz	r0, .L30
 739              	.L26:
 740              		.loc 1 227 0
 741 003c 02B0     		add	sp, sp, #8
 742 003e 10BD     		pop	{r4, pc}
 743              	.L30:
 744              		.loc 1 222 0
 745 0040 A168     		ldr	r1, [r4, #8]
 746 0042 D1F10101 		rsbs	r1, r1, #1
 747 0046 38BF     		it	cc
 748 0048 0021     		movcc	r1, #0
 749 004a 0220     		movs	r0, #2
 750 004c FFF7FEFF 		bl	_test_assert
 751              	.LVL79:
 752 0050 0028     		cmp	r0, #0
 753 0052 F3D1     		bne	.L26
 754              	.LBB15:
 755              	.LBB16:
 756              		.loc 1 224 0
 757 0054 2146     		mov	r1, r4
 758 0056 2046     		mov	r0, r4
 759 0058 FFF7FEFF 		bl	chSemSignalWait
 760              	.LVL80:
 761              		.loc 1 225 0
 762 005c 2168     		ldr	r1, [r4, #0]
 763 005e B1EB040C 		subs	ip, r1, r4
 764 0062 DCF10001 		rsbs	r1, ip, #0
 765 0066 51EB0C01 		adcs	r1, r1, ip
 766 006a 0320     		movs	r0, #3
 767 006c FFF7FEFF 		bl	_test_assert
 768              	.LVL81:
 769 0070 0028     		cmp	r0, #0
 770 0072 E3D1     		bne	.L26
 771              		.loc 1 226 0
 772 0074 A168     		ldr	r1, [r4, #8]
 773 0076 D1F10101 		rsbs	r1, r1, #1
 774 007a 4FF00400 		mov	r0, #4
 775 007e 38BF     		it	cc
 776 0080 0021     		movcc	r1, #0
 777              	.LBE16:
 778              	.LBE15:
 779              		.loc 1 227 0
 780 0082 02B0     		add	sp, sp, #8
 781 0084 BDE81040 		pop	{r4, lr}
 782              	.LBB18:
 783              	.LBB17:
 784              		.loc 1 226 0
 785 0088 FFF7FEBF 		b	_test_assert
 786              	.LVL82:
 787              	.L32:
 788              		.align	2
 789              	.L31:
ARM GAS  /tmp/ccf6u3gI.s 			page 15


 790 008c 00000000 		.word	rlist
 791 0090 00000000 		.word	wa
 792 0094 00000000 		.word	thread3
 793 0098 00000000 		.word	.LANCHOR0
 794 009c 00000000 		.word	threads
 795              	.LBE17:
 796              	.LBE18:
 797              		.cfi_endproc
 798              	.LFE15:
 799              		.size	sem3_execute, .-sem3_execute
 800              		.section	.text.sem2_execute,"ax",%progbits
 801              		.align	2
 802              		.p2align 4,,15
 803              		.thumb
 804              		.thumb_func
 805              		.type	sem2_execute, %function
 806              	sem2_execute:
 807              	.LFB12:
 808              		.loc 1 144 0
 809              		.cfi_startproc
 810              		@ args = 0, pretend = 0, frame = 0
 811              		@ frame_needed = 0, uses_anonymous_args = 0
 812 0000 70B5     		push	{r4, r5, r6, lr}
 813              	.LCFI10:
 814              		.cfi_def_cfa_offset 16
 815              		.cfi_offset 4, -16
 816              		.cfi_offset 5, -12
 817              		.cfi_offset 6, -8
 818              		.cfi_offset 14, -4
 819              		.loc 1 152 0
 820 0002 4D4C     		ldr	r4, .L40
 821              		.loc 1 144 0
 822 0004 82B0     		sub	sp, sp, #8
 823              	.LCFI11:
 824              		.cfi_def_cfa_offset 24
 825              		.loc 1 152 0
 826 0006 0021     		movs	r1, #0
 827 0008 2046     		mov	r0, r4
 828 000a FFF7FEFF 		bl	chSemWaitTimeout
 829              	.LVL83:
 830              		.loc 1 153 0
 831 000e B0F1FF33 		subs	r3, r0, #-1
 832 0012 5942     		rsbs	r1, r3, #0
 833 0014 5941     		adcs	r1, r1, r3
 834 0016 0120     		movs	r0, #1
 835              	.LVL84:
 836 0018 FFF7FEFF 		bl	_test_assert
 837              	.LVL85:
 838 001c 08B1     		cbz	r0, .L39
 839              	.L33:
 840              		.loc 1 182 0
 841 001e 02B0     		add	sp, sp, #8
 842 0020 70BD     		pop	{r4, r5, r6, pc}
 843              	.L39:
 844              		.loc 1 154 0
 845 0022 2168     		ldr	r1, [r4, #0]
 846 0024 B1EB040C 		subs	ip, r1, r4
ARM GAS  /tmp/ccf6u3gI.s 			page 16


 847 0028 DCF10001 		rsbs	r1, ip, #0
 848 002c 51EB0C01 		adcs	r1, r1, ip
 849 0030 0220     		movs	r0, #2
 850 0032 FFF7FEFF 		bl	_test_assert
 851              	.LVL86:
 852 0036 0028     		cmp	r0, #0
 853 0038 F1D1     		bne	.L33
 854              		.loc 1 155 0
 855 003a A168     		ldr	r1, [r4, #8]
 856 003c D1F10101 		rsbs	r1, r1, #1
 857 0040 38BF     		it	cc
 858 0042 0021     		movcc	r1, #0
 859 0044 0320     		movs	r0, #3
 860 0046 FFF7FEFF 		bl	_test_assert
 861              	.LVL87:
 862 004a 0028     		cmp	r0, #0
 863 004c E7D1     		bne	.L33
 864              	.LBB21:
 865              	.LBB22:
 866              		.loc 1 160 0
 867 004e 3B4B     		ldr	r3, .L40+4
 868 0050 3B4A     		ldr	r2, .L40+8
 869 0052 9B69     		ldr	r3, [r3, #24]
 870 0054 1168     		ldr	r1, [r2, #0]
 871 0056 9A68     		ldr	r2, [r3, #8]
 872 0058 3A4B     		ldr	r3, .L40+12
 873 005a 0090     		str	r0, [sp, #0]
 874 005c 013A     		subs	r2, r2, #1
 875 005e 0846     		mov	r0, r1
 876 0060 4FF49871 		mov	r1, #304
 877 0064 FFF7FEFF 		bl	chThdCreateStatic
 878              	.LVL88:
 879 0068 374B     		ldr	r3, .L40+16
 880              		.loc 1 162 0
 881 006a 4FF4FA71 		mov	r1, #500
 882              		.loc 1 160 0
 883 006e 1860     		str	r0, [r3, #0]
 884              		.loc 1 162 0
 885 0070 2046     		mov	r0, r4
 886 0072 FFF7FEFF 		bl	chSemWaitTimeout
 887              	.LVL89:
 888 0076 0546     		mov	r5, r0
 889              	.LVL90:
 890              		.loc 1 163 0
 891 0078 FFF7FEFF 		bl	test_wait_threads
 892              	.LVL91:
 893              		.loc 1 164 0
 894 007c D5F10101 		rsbs	r1, r5, #1
 895 0080 38BF     		it	cc
 896 0082 0021     		movcc	r1, #0
 897 0084 0420     		movs	r0, #4
 898 0086 FFF7FEFF 		bl	_test_assert
 899              	.LVL92:
 900 008a 0028     		cmp	r0, #0
 901 008c C7D1     		bne	.L33
 902              		.loc 1 165 0
 903 008e 2168     		ldr	r1, [r4, #0]
ARM GAS  /tmp/ccf6u3gI.s 			page 17


 904 0090 B1EB040E 		subs	lr, r1, r4
 905 0094 DEF10001 		rsbs	r1, lr, #0
 906 0098 51EB0E01 		adcs	r1, r1, lr
 907 009c 0520     		movs	r0, #5
 908 009e FFF7FEFF 		bl	_test_assert
 909              	.LVL93:
 910 00a2 0028     		cmp	r0, #0
 911 00a4 BBD1     		bne	.L33
 912              		.loc 1 166 0
 913 00a6 A168     		ldr	r1, [r4, #8]
 914 00a8 D1F10101 		rsbs	r1, r1, #1
 915 00ac 38BF     		it	cc
 916 00ae 0021     		movcc	r1, #0
 917 00b0 0620     		movs	r0, #6
 918 00b2 FFF7FEFF 		bl	_test_assert
 919              	.LVL94:
 920 00b6 0028     		cmp	r0, #0
 921 00b8 B1D1     		bne	.L33
 922              		.loc 1 171 0
 923 00ba FFF7FEFF 		bl	test_wait_tick
 924              	.LVL95:
 925              		.loc 1 172 0
 926 00be 234B     		ldr	r3, .L40+20
 927 00c0 DE68     		ldr	r6, [r3, #12]
 928              	.LVL96:
 929 00c2 4125     		movs	r5, #65
 930              	.LVL97:
 931              	.L37:
 932              		.loc 1 174 0
 933 00c4 2846     		mov	r0, r5
 934 00c6 FFF7FEFF 		bl	test_emit_token
 935              	.LVL98:
 936              		.loc 1 175 0
 937 00ca 4FF4FA71 		mov	r1, #500
 938 00ce 1A48     		ldr	r0, .L40
 939 00d0 FFF7FEFF 		bl	chSemWaitTimeout
 940              	.LVL99:
 941              		.loc 1 176 0
 942 00d4 B0F1FF30 		subs	r0, r0, #-1
 943              	.LVL100:
 944 00d8 4142     		rsbs	r1, r0, #0
 945 00da 4141     		adcs	r1, r1, r0
 946 00dc 0720     		movs	r0, #7
 947              	.LVL101:
 948 00de FFF7FEFF 		bl	_test_assert
 949              	.LVL102:
 950 00e2 0028     		cmp	r0, #0
 951 00e4 9BD1     		bne	.L33
 952              		.loc 1 177 0
 953 00e6 2168     		ldr	r1, [r4, #0]
 954 00e8 0A1B     		subs	r2, r1, r4
 955 00ea 5142     		rsbs	r1, r2, #0
 956 00ec 5141     		adcs	r1, r1, r2
 957 00ee 0820     		movs	r0, #8
 958 00f0 FFF7FEFF 		bl	_test_assert
 959              	.LVL103:
 960 00f4 0028     		cmp	r0, #0
ARM GAS  /tmp/ccf6u3gI.s 			page 18


 961 00f6 92D1     		bne	.L33
 962              		.loc 1 178 0
 963 00f8 A168     		ldr	r1, [r4, #8]
 964 00fa D1F10101 		rsbs	r1, r1, #1
 965 00fe 4FF00900 		mov	r0, #9
 966 0102 38BF     		it	cc
 967 0104 0021     		movcc	r1, #0
 968 0106 FFF7FEFF 		bl	_test_assert
 969              	.LVL104:
 970 010a 0135     		adds	r5, r5, #1
 971 010c EDB2     		uxtb	r5, r5
 972 010e 0028     		cmp	r0, #0
 973 0110 85D1     		bne	.L33
 974              		.loc 1 173 0
 975 0112 462D     		cmp	r5, #70
 976 0114 D6D1     		bne	.L37
 977              		.loc 1 180 0
 978 0116 0A20     		movs	r0, #10
 979 0118 0D49     		ldr	r1, .L40+24
 980 011a FFF7FEFF 		bl	_test_assert_sequence
 981              	.LVL105:
 982 011e 0028     		cmp	r0, #0
 983 0120 7FF47DAF 		bne	.L33
 984              		.loc 1 181 0
 985 0124 0B20     		movs	r0, #11
 986 0126 06F6C411 		addw	r1, r6, #2500
 987 012a 06F6C912 		addw	r2, r6, #2505
 988              	.LBE22:
 989              	.LBE21:
 990              		.loc 1 182 0
 991 012e 02B0     		add	sp, sp, #8
 992 0130 BDE87040 		pop	{r4, r5, r6, lr}
 993              	.LBB24:
 994              	.LBB23:
 995              		.loc 1 181 0
 996 0134 FFF7FEBF 		b	_test_assert_time_window
 997              	.LVL106:
 998              	.L41:
 999              		.align	2
 1000              	.L40:
 1001 0138 00000000 		.word	.LANCHOR0
 1002 013c 00000000 		.word	rlist
 1003 0140 00000000 		.word	wa
 1004 0144 00000000 		.word	thread2
 1005 0148 00000000 		.word	threads
 1006 014c 00000000 		.word	vtlist
 1007 0150 14000000 		.word	.LC5
 1008              	.LBE23:
 1009              	.LBE24:
 1010              		.cfi_endproc
 1011              	.LFE12:
 1012              		.size	sem2_execute, .-sem2_execute
 1013              		.global	patternsem
 1014              		.global	testsem4
 1015              		.global	testsem3
 1016              		.global	testsem2
 1017              		.global	testsem1
ARM GAS  /tmp/ccf6u3gI.s 			page 19


 1018 0154 AFF30080 		.section	.rodata.testsem1,"a",%progbits
 1018      AFF30080 
 1018      AFF30080 
 1019              		.align	2
 1020              		.type	testsem1, %object
 1021              		.size	testsem1, 16
 1022              	testsem1:
 1023 0000 74000000 		.word	.LC9
 1024 0004 00000000 		.word	sem1_setup
 1025 0008 00000000 		.word	0
 1026 000c 00000000 		.word	sem1_execute
 1027              		.section	.rodata.testsem2,"a",%progbits
 1028              		.align	2
 1029              		.type	testsem2, %object
 1030              		.size	testsem2, 16
 1031              	testsem2:
 1032 0000 60000000 		.word	.LC8
 1033 0004 00000000 		.word	sem2_setup
 1034 0008 00000000 		.word	0
 1035 000c 00000000 		.word	sem2_execute
 1036              		.section	.rodata.testsem3,"a",%progbits
 1037              		.align	2
 1038              		.type	testsem3, %object
 1039              		.size	testsem3, 16
 1040              	testsem3:
 1041 0000 40000000 		.word	.LC7
 1042 0004 00000000 		.word	sem3_setup
 1043 0008 00000000 		.word	0
 1044 000c 00000000 		.word	sem3_execute
 1045              		.section	.rodata.testsem4,"a",%progbits
 1046              		.align	2
 1047              		.type	testsem4, %object
 1048              		.size	testsem4, 16
 1049              	testsem4:
 1050 0000 1C000000 		.word	.LC6
 1051 0004 00000000 		.word	0
 1052 0008 00000000 		.word	0
 1053 000c 00000000 		.word	sem4_execute
 1054              		.section	.data.sem1,"aw",%progbits
 1055              		.align	2
 1056              		.set	.LANCHOR0,. + 0
 1057              		.type	sem1, %object
 1058              		.size	sem1, 12
 1059              	sem1:
 1060 0000 00000000 		.word	sem1
 1061 0004 00000000 		.word	sem1
 1062 0008 00000000 		.word	0
 1063              		.section	.rodata.patternsem,"a",%progbits
 1064              		.align	2
 1065              		.type	patternsem, %object
 1066              		.size	patternsem, 20
 1067              	patternsem:
 1068 0000 00000000 		.word	testsem1
 1069 0004 00000000 		.word	testsem2
 1070 0008 00000000 		.word	testsem3
 1071 000c 00000000 		.word	testsem4
 1072 0010 00000000 		.word	0
ARM GAS  /tmp/ccf6u3gI.s 			page 20


 1073              		.section	.rodata.str1.4,"aMS",%progbits,1
 1074              		.align	2
 1075              	.LC0:
 1076 0000 4100     		.ascii	"A\000"
 1077 0002 0000     		.space	2
 1078              	.LC1:
 1079 0004 4200     		.ascii	"B\000"
 1080 0006 0000     		.space	2
 1081              	.LC2:
 1082 0008 4300     		.ascii	"C\000"
 1083 000a 0000     		.space	2
 1084              	.LC3:
 1085 000c 4400     		.ascii	"D\000"
 1086 000e 0000     		.space	2
 1087              	.LC4:
 1088 0010 4500     		.ascii	"E\000"
 1089 0012 0000     		.space	2
 1090              	.LC5:
 1091 0014 41424344 		.ascii	"ABCDE\000"
 1091      4500
 1092 001a 0000     		.space	2
 1093              	.LC6:
 1094 001c 42696E61 		.ascii	"Binary Semaphores, functionality\000"
 1094      72792053 
 1094      656D6170 
 1094      686F7265 
 1094      732C2066 
 1095 003d 000000   		.space	3
 1096              	.LC7:
 1097 0040 53656D61 		.ascii	"Semaphores, atomic signal-wait\000"
 1097      70686F72 
 1097      65732C20 
 1097      61746F6D 
 1097      69632073 
 1098 005f 00       		.space	1
 1099              	.LC8:
 1100 0060 53656D61 		.ascii	"Semaphores, timeout\000"
 1100      70686F72 
 1100      65732C20 
 1100      74696D65 
 1100      6F757400 
 1101              	.LC9:
 1102 0074 53656D61 		.ascii	"Semaphores, enqueuing\000"
 1102      70686F72 
 1102      65732C20 
 1102      656E7175 
 1102      6575696E 
 1103 008a 0000     		.text
 1104              	.Letext0:
 1105              		.file 2 "/opt/tools_arm/lib/gcc/arm-none-eabi/4.7.3/include/stddef.h"
 1106              		.file 3 "/opt/tools_arm/lib/gcc/arm-none-eabi/4.7.3/../../../../arm-none-eabi/include/stdint.h"
 1107              		.file 4 "/home/felix/Documents/ChibiOS/os/ports/GCC/ARMCMx/chtypes.h"
 1108              		.file 5 "/home/felix/Documents/ChibiOS/os/kernel/include/chlists.h"
 1109              		.file 6 "/home/felix/Documents/ChibiOS/os/kernel/include/chthreads.h"
 1110              		.file 7 "/home/felix/Documents/ChibiOS/os/ports/GCC/ARMCMx/chcore_v7m.h"
 1111              		.file 8 "/home/felix/Documents/ChibiOS/os/kernel/include/chvt.h"
 1112              		.file 9 "/home/felix/Documents/ChibiOS/os/kernel/include/chschd.h"
ARM GAS  /tmp/ccf6u3gI.s 			page 21


 1113              		.file 10 "/home/felix/Documents/ChibiOS/os/kernel/include/chsem.h"
 1114              		.file 11 "/home/felix/Documents/ChibiOS/os/kernel/include/chbsem.h"
 1115              		.file 12 "/home/felix/Documents/ChibiOS/os/kernel/include/chmtx.h"
 1116              		.file 13 "/home/felix/Documents/ChibiOS/test/test.h"