ARM GAS  /tmp/ccYiM4xv.s 			page 1


   1              		.syntax unified
   2              		.cpu cortex-m4
   3              		.fpu softvfp
   4              		.eabi_attribute 20, 1
   5              		.eabi_attribute 21, 1
   6              		.eabi_attribute 23, 3
   7              		.eabi_attribute 24, 1
   8              		.eabi_attribute 25, 1
   9              		.eabi_attribute 26, 1
  10              		.eabi_attribute 30, 2
  11              		.eabi_attribute 34, 1
  12              		.eabi_attribute 18, 4
  13              		.thumb
  14              		.file	"test.c"
  15              		.text
  16              	.Ltext0:
  17              		.cfi_sections	.debug_frame
  18              		.section	.text.tmr,"ax",%progbits
  19              		.align	2
  20              		.p2align 4,,15
  21              		.thumb
  22              		.thumb_func
  23              		.type	tmr, %function
  24              	tmr:
  25              	.LFB132:
  26              		.file 1 "/home/felix/Documents/ChibiOS/test/test.c"
  27              		.loc 1 261 0
  28              		.cfi_startproc
  29              		@ args = 0, pretend = 0, frame = 0
  30              		@ frame_needed = 0, uses_anonymous_args = 0
  31              		@ link register save eliminated.
  32              	.LVL0:
  33              		.loc 1 264 0
  34 0000 40F20003 		movw	r3, #:lower16:.LANCHOR0
  35 0004 C0F20003 		movt	r3, #:upper16:.LANCHOR0
  36 0008 0122     		movs	r2, #1
  37 000a 1A70     		strb	r2, [r3, #0]
  38 000c 7047     		bx	lr
  39              		.cfi_endproc
  40              	.LFE132:
  41              		.size	tmr, .-tmr
  42 000e 00BF     		.section	.text.print_line,"ax",%progbits
  43              		.align	2
  44              		.p2align 4,,15
  45              		.thumb
  46              		.thumb_func
  47              		.type	print_line, %function
  48              	print_line:
  49              	.LFB135:
  50              		.loc 1 300 0
  51              		.cfi_startproc
  52              		@ args = 0, pretend = 0, frame = 0
  53              		@ frame_needed = 0, uses_anonymous_args = 0
  54              	.LVL1:
  55 0000 70B5     		push	{r4, r5, r6, lr}
  56              	.LCFI0:
  57              		.cfi_def_cfa_offset 16
ARM GAS  /tmp/ccYiM4xv.s 			page 2


  58              		.cfi_offset 4, -16
  59              		.cfi_offset 5, -12
  60              		.cfi_offset 6, -8
  61              		.cfi_offset 14, -4
  62 0002 084E     		ldr	r6, .L6
  63              		.loc 1 300 0
  64 0004 4C24     		movs	r4, #76
  65              	.LVL2:
  66              	.L3:
  67              		.loc 1 304 0 discriminator 2
  68 0006 3068     		ldr	r0, [r6, #0]
  69 0008 064D     		ldr	r5, .L6
  70 000a 0368     		ldr	r3, [r0, #0]
  71 000c 2D21     		movs	r1, #45
  72 000e 9B68     		ldr	r3, [r3, #8]
  73 0010 9847     		blx	r3
  74              	.LVL3:
  75              		.loc 1 303 0 discriminator 2
  76 0012 013C     		subs	r4, r4, #1
  77 0014 F7D1     		bne	.L3
  78              		.loc 1 305 0
  79 0016 2868     		ldr	r0, [r5, #0]
  80 0018 0349     		ldr	r1, .L6+4
  81 001a 0368     		ldr	r3, [r0, #0]
  82 001c 0222     		movs	r2, #2
  83 001e 1B68     		ldr	r3, [r3, #0]
  84 0020 9847     		blx	r3
  85              	.LVL4:
  86 0022 70BD     		pop	{r4, r5, r6, pc}
  87              	.L7:
  88              		.align	2
  89              	.L6:
  90 0024 00000000 		.word	.LANCHOR1
  91 0028 00000000 		.word	.LC0
  92              		.cfi_endproc
  93              	.LFE135:
  94              		.size	print_line, .-print_line
  95 002c AFF30080 		.section	.text.test_printn,"ax",%progbits
  96              		.align	2
  97              		.p2align 4,,15
  98              		.global	test_printn
  99              		.thumb
 100              		.thumb_func
 101              		.type	test_printn, %function
 102              	test_printn:
 103              	.LFB118:
 104              		.loc 1 91 0
 105              		.cfi_startproc
 106              		@ args = 0, pretend = 0, frame = 16
 107              		@ frame_needed = 0, uses_anonymous_args = 0
 108              	.LVL5:
 109 0000 70B5     		push	{r4, r5, r6, lr}
 110              	.LCFI1:
 111              		.cfi_def_cfa_offset 16
 112              		.cfi_offset 4, -16
 113              		.cfi_offset 5, -12
 114              		.cfi_offset 6, -8
ARM GAS  /tmp/ccYiM4xv.s 			page 3


 115              		.cfi_offset 14, -4
 116 0002 84B0     		sub	sp, sp, #16
 117              	.LCFI2:
 118              		.cfi_def_cfa_offset 32
 119              		.loc 1 94 0
 120 0004 0028     		cmp	r0, #0
 121 0006 26D0     		beq	.L16
 122              	.LBB50:
 123              	.LBB51:
 124              		.loc 1 91 0
 125 0008 0DF10105 		add	r5, sp, #1
 126              	.LBE51:
 127              	.LBE50:
 128              		.loc 1 99 0
 129 000c 4CF6CD46 		movw	r6, #52429
 130              	.LBB54:
 131              	.LBB52:
 132              		.loc 1 91 0
 133 0010 2B46     		mov	r3, r5
 134              	.LBE52:
 135              	.LBE54:
 136              		.loc 1 99 0
 137 0012 CCF6CC46 		movt	r6, 52428
 138              	.LVL6:
 139              	.L11:
 140 0016 A6FB0012 		umull	r1, r2, r6, r0
 141 001a D208     		lsrs	r2, r2, #3
 142 001c 02EB8201 		add	r1, r2, r2, lsl #2
 143 0020 A0EB4101 		sub	r1, r0, r1, lsl #1
 144 0024 3031     		adds	r1, r1, #48
 145 0026 C9B2     		uxtb	r1, r1
 146 0028 03F8011C 		strb	r1, [r3, #-1]
 147              	.LVL7:
 148              		.loc 1 91 0
 149 002c 1C46     		mov	r4, r3
 150              		.loc 1 98 0
 151 002e 1046     		mov	r0, r2
 152 0030 0133     		adds	r3, r3, #1
 153              	.LVL8:
 154 0032 002A     		cmp	r2, #0
 155 0034 EFD1     		bne	.L11
 156              		.loc 1 100 0 discriminator 1
 157 0036 6B46     		mov	r3, sp
 158 0038 9C42     		cmp	r4, r3
 159 003a 0AD9     		bls	.L8
 160 003c 094E     		ldr	r6, .L18
 161 003e 02E0     		b	.L14
 162              	.LVL9:
 163              	.L17:
 164 0040 14F8021C 		ldrb	r1, [r4, #-2]	@ zero_extendqisi2
 165 0044 013C     		subs	r4, r4, #1
 166              	.L14:
 167              		.loc 1 101 0
 168 0046 3068     		ldr	r0, [r6, #0]
 169 0048 0368     		ldr	r3, [r0, #0]
 170 004a 9B68     		ldr	r3, [r3, #8]
 171 004c 9847     		blx	r3
ARM GAS  /tmp/ccYiM4xv.s 			page 4


 172              	.LVL10:
 173              		.loc 1 100 0
 174 004e AC42     		cmp	r4, r5
 175 0050 F6D1     		bne	.L17
 176              	.L8:
 177              		.loc 1 103 0
 178 0052 04B0     		add	sp, sp, #16
 179 0054 70BD     		pop	{r4, r5, r6, pc}
 180              	.LVL11:
 181              	.L16:
 182              	.LBB55:
 183              	.LBB53:
 184              		.loc 1 95 0
 185 0056 034B     		ldr	r3, .L18
 186 0058 1868     		ldr	r0, [r3, #0]
 187              	.LVL12:
 188 005a 0368     		ldr	r3, [r0, #0]
 189 005c 3021     		movs	r1, #48
 190 005e 9B68     		ldr	r3, [r3, #8]
 191 0060 9847     		blx	r3
 192              	.LVL13:
 193 0062 F6E7     		b	.L8
 194              	.L19:
 195              		.align	2
 196              	.L18:
 197 0064 00000000 		.word	.LANCHOR1
 198              	.LBE53:
 199              	.LBE55:
 200              		.cfi_endproc
 201              	.LFE118:
 202              		.size	test_printn, .-test_printn
 203 0068 AFF30080 		.section	.text.test_print,"ax",%progbits
 203      AFF30080 
 204              		.align	2
 205              		.p2align 4,,15
 206              		.global	test_print
 207              		.thumb
 208              		.thumb_func
 209              		.type	test_print, %function
 210              	test_print:
 211              	.LFB119:
 212              		.loc 1 110 0
 213              		.cfi_startproc
 214              		@ args = 0, pretend = 0, frame = 0
 215              		@ frame_needed = 0, uses_anonymous_args = 0
 216              	.LVL14:
 217 0000 38B5     		push	{r3, r4, r5, lr}
 218              	.LCFI3:
 219              		.cfi_def_cfa_offset 16
 220              		.cfi_offset 3, -16
 221              		.cfi_offset 4, -12
 222              		.cfi_offset 5, -8
 223              		.cfi_offset 14, -4
 224              		.loc 1 112 0
 225 0002 0178     		ldrb	r1, [r0, #0]	@ zero_extendqisi2
 226 0004 49B1     		cbz	r1, .L20
 227 0006 054D     		ldr	r5, .L25
ARM GAS  /tmp/ccYiM4xv.s 			page 5


 228 0008 0446     		mov	r4, r0
 229              	.LVL15:
 230              	.L22:
 231              		.loc 1 113 0
 232 000a 2868     		ldr	r0, [r5, #0]
 233 000c 0368     		ldr	r3, [r0, #0]
 234 000e 9B68     		ldr	r3, [r3, #8]
 235 0010 9847     		blx	r3
 236              	.LVL16:
 237              		.loc 1 112 0
 238 0012 14F8011F 		ldrb	r1, [r4, #1]!	@ zero_extendqisi2
 239 0016 0029     		cmp	r1, #0
 240 0018 F7D1     		bne	.L22
 241              	.L20:
 242 001a 38BD     		pop	{r3, r4, r5, pc}
 243              	.L26:
 244              		.align	2
 245              	.L25:
 246 001c 00000000 		.word	.LANCHOR1
 247              		.cfi_endproc
 248              	.LFE119:
 249              		.size	test_print, .-test_print
 250              		.section	.text.test_println,"ax",%progbits
 251              		.align	2
 252              		.p2align 4,,15
 253              		.global	test_println
 254              		.thumb
 255              		.thumb_func
 256              		.type	test_println, %function
 257              	test_println:
 258              	.LFB120:
 259              		.loc 1 121 0
 260              		.cfi_startproc
 261              		@ args = 0, pretend = 0, frame = 0
 262              		@ frame_needed = 0, uses_anonymous_args = 0
 263              	.LVL17:
 264 0000 38B5     		push	{r3, r4, r5, lr}
 265              	.LCFI4:
 266              		.cfi_def_cfa_offset 16
 267              		.cfi_offset 3, -16
 268              		.cfi_offset 4, -12
 269              		.cfi_offset 5, -8
 270              		.cfi_offset 14, -4
 271              	.LBB56:
 272              	.LBB57:
 273              		.loc 1 112 0
 274 0002 0178     		ldrb	r1, [r0, #0]	@ zero_extendqisi2
 275 0004 084D     		ldr	r5, .L33
 276 0006 41B1     		cbz	r1, .L30
 277 0008 0446     		mov	r4, r0
 278              	.LVL18:
 279              	.L29:
 280              		.loc 1 113 0
 281 000a 2868     		ldr	r0, [r5, #0]
 282 000c 0368     		ldr	r3, [r0, #0]
 283 000e 9B68     		ldr	r3, [r3, #8]
 284 0010 9847     		blx	r3
ARM GAS  /tmp/ccYiM4xv.s 			page 6


 285              	.LVL19:
 286              		.loc 1 112 0
 287 0012 14F8011F 		ldrb	r1, [r4, #1]!	@ zero_extendqisi2
 288 0016 0029     		cmp	r1, #0
 289 0018 F7D1     		bne	.L29
 290              	.L30:
 291              	.LBE57:
 292              	.LBE56:
 293              		.loc 1 124 0
 294 001a 2868     		ldr	r0, [r5, #0]
 295 001c 0349     		ldr	r1, .L33+4
 296 001e 0368     		ldr	r3, [r0, #0]
 297 0020 0222     		movs	r2, #2
 298 0022 1B68     		ldr	r3, [r3, #0]
 299 0024 9847     		blx	r3
 300              	.LVL20:
 301 0026 38BD     		pop	{r3, r4, r5, pc}
 302              	.L34:
 303              		.align	2
 304              	.L33:
 305 0028 00000000 		.word	.LANCHOR1
 306 002c 00000000 		.word	.LC0
 307              		.cfi_endproc
 308              	.LFE120:
 309              		.size	test_println, .-test_println
 310              		.section	.text.test_emit_token,"ax",%progbits
 311              		.align	2
 312              		.p2align 4,,15
 313              		.global	test_emit_token
 314              		.thumb
 315              		.thumb_func
 316              		.type	test_emit_token, %function
 317              	test_emit_token:
 318              	.LFB123:
 319              		.loc 1 147 0
 320              		.cfi_startproc
 321              		@ args = 0, pretend = 0, frame = 0
 322              		@ frame_needed = 0, uses_anonymous_args = 0
 323              		@ link register save eliminated.
 324              	.LVL21:
 325              	.LBB58:
 326              		.loc 1 149 0
 327 0000 2023     		movs	r3, #32
 328              	.LVL22:
 329              	@ 149 "/home/felix/Documents/ChibiOS/test/test.c" 1
 330 0002 83F31188 		msr     BASEPRI, r3
 331              	@ 0 "" 2
 332              	.LVL23:
 333              		.thumb
 334              	.LBE58:
 335              		.loc 1 150 0
 336 0006 40F20002 		movw	r2, #:lower16:.LANCHOR2
 337 000a C0F20002 		movt	r2, #:upper16:.LANCHOR2
 338              	.LBB59:
 339              		.loc 1 151 0
 340 000e 0023     		movs	r3, #0
 341              	.LVL24:
ARM GAS  /tmp/ccYiM4xv.s 			page 7


 342              	.LBE59:
 343              		.loc 1 150 0
 344 0010 1168     		ldr	r1, [r2, #0]
 345 0012 01F8010B 		strb	r0, [r1], #1
 346 0016 1160     		str	r1, [r2, #0]
 347              	.LBB60:
 348              		.loc 1 151 0
 349              	@ 151 "/home/felix/Documents/ChibiOS/test/test.c" 1
 350 0018 83F31188 		msr     BASEPRI, r3
 351              	@ 0 "" 2
 352              	.LVL25:
 353              		.thumb
 354 001c 7047     		bx	lr
 355              	.LBE60:
 356              		.cfi_endproc
 357              	.LFE123:
 358              		.size	test_emit_token, .-test_emit_token
 359 001e 00BF     		.section	.text._test_fail,"ax",%progbits
 360              		.align	2
 361              		.p2align 4,,15
 362              		.global	_test_fail
 363              		.thumb
 364              		.thumb_func
 365              		.type	_test_fail, %function
 366              	_test_fail:
 367              	.LFB124:
 368              		.loc 1 157 0
 369              		.cfi_startproc
 370              		@ args = 0, pretend = 0, frame = 0
 371              		@ frame_needed = 0, uses_anonymous_args = 0
 372              		@ link register save eliminated.
 373              	.LVL26:
 374 0000 10B4     		push	{r4}
 375              	.LCFI5:
 376              		.cfi_def_cfa_offset 4
 377              		.cfi_offset 4, -4
 378              		.loc 1 159 0
 379 0002 40F20001 		movw	r1, #:lower16:.LANCHOR3
 380              		.loc 1 161 0
 381 0006 40F20004 		movw	r4, #:lower16:.LANCHOR5
 382              		.loc 1 160 0
 383 000a 40F20002 		movw	r2, #:lower16:.LANCHOR4
 384              		.loc 1 161 0
 385 000e C0F20004 		movt	r4, #:upper16:.LANCHOR5
 386              		.loc 1 159 0
 387 0012 C0F20001 		movt	r1, #:upper16:.LANCHOR3
 388              		.loc 1 160 0
 389 0016 C0F20002 		movt	r2, #:upper16:.LANCHOR4
 390              		.loc 1 159 0
 391 001a 0123     		movs	r3, #1
 392              		.loc 1 161 0
 393 001c 2060     		str	r0, [r4, #0]
 394              		.loc 1 159 0
 395 001e 0B70     		strb	r3, [r1, #0]
 396              		.loc 1 160 0
 397 0020 1370     		strb	r3, [r2, #0]
 398              		.loc 1 163 0
ARM GAS  /tmp/ccYiM4xv.s 			page 8


 399 0022 1846     		mov	r0, r3
 400              	.LVL27:
 401 0024 10BC     		pop	{r4}
 402 0026 7047     		bx	lr
 403              		.cfi_endproc
 404              	.LFE124:
 405              		.size	_test_fail, .-_test_fail
 406 0028 AFF30080 		.section	.text._test_assert,"ax",%progbits
 406      AFF30080 
 407              		.align	2
 408              		.p2align 4,,15
 409              		.global	_test_assert
 410              		.thumb
 411              		.thumb_func
 412              		.type	_test_assert, %function
 413              	_test_assert:
 414              	.LFB125:
 415              		.loc 1 165 0
 416              		.cfi_startproc
 417              		@ args = 0, pretend = 0, frame = 0
 418              		@ frame_needed = 0, uses_anonymous_args = 0
 419              		@ link register save eliminated.
 420              	.LVL28:
 421 0000 10B4     		push	{r4}
 422              	.LCFI6:
 423              		.cfi_def_cfa_offset 4
 424              		.cfi_offset 4, -4
 425              		.loc 1 169 0
 426 0002 0023     		movs	r3, #0
 427              		.loc 1 167 0
 428 0004 31B9     		cbnz	r1, .L38
 429              	.LVL29:
 430              	.LBB61:
 431              	.LBB62:
 432              		.loc 1 159 0
 433 0006 054C     		ldr	r4, .L40
 434              		.loc 1 160 0
 435 0008 0549     		ldr	r1, .L40+4
 436              	.LVL30:
 437              		.loc 1 161 0
 438 000a 064A     		ldr	r2, .L40+8
 439              		.loc 1 159 0
 440 000c 0123     		movs	r3, #1
 441 000e 2370     		strb	r3, [r4, #0]
 442              		.loc 1 160 0
 443 0010 0B70     		strb	r3, [r1, #0]
 444              		.loc 1 161 0
 445 0012 1060     		str	r0, [r2, #0]
 446              	.LVL31:
 447              	.L38:
 448              	.LBE62:
 449              	.LBE61:
 450              		.loc 1 170 0
 451 0014 1846     		mov	r0, r3
 452              	.LVL32:
 453 0016 10BC     		pop	{r4}
 454 0018 7047     		bx	lr
ARM GAS  /tmp/ccYiM4xv.s 			page 9


 455              	.L41:
 456 001a 00BF     		.align	2
 457              	.L40:
 458 001c 00000000 		.word	.LANCHOR3
 459 0020 00000000 		.word	.LANCHOR4
 460 0024 00000000 		.word	.LANCHOR5
 461              		.cfi_endproc
 462              	.LFE125:
 463              		.size	_test_assert, .-_test_assert
 464 0028 AFF30080 		.section	.text._test_assert_sequence,"ax",%progbits
 464      AFF30080 
 465              		.align	2
 466              		.p2align 4,,15
 467              		.global	_test_assert_sequence
 468              		.thumb
 469              		.thumb_func
 470              		.type	_test_assert_sequence, %function
 471              	_test_assert_sequence:
 472              	.LFB126:
 473              		.loc 1 172 0
 474              		.cfi_startproc
 475              		@ args = 0, pretend = 0, frame = 0
 476              		@ frame_needed = 0, uses_anonymous_args = 0
 477              		@ link register save eliminated.
 478              	.LVL33:
 479 0000 F0B4     		push	{r4, r5, r6, r7}
 480              	.LCFI7:
 481              		.cfi_def_cfa_offset 16
 482              		.cfi_offset 4, -16
 483              		.cfi_offset 5, -12
 484              		.cfi_offset 6, -8
 485              		.cfi_offset 7, -4
 486 0002 144E     		ldr	r6, .L50
 487              		.loc 1 173 0
 488 0004 144F     		ldr	r7, .L50+4
 489 0006 3568     		ldr	r5, [r6, #0]
 490              		.loc 1 172 0
 491 0008 8446     		mov	ip, r0
 492              		.loc 1 173 0
 493 000a 3B46     		mov	r3, r7
 494              		.loc 1 174 0
 495 000c 04E0     		b	.L43
 496              	.LVL34:
 497              	.L45:
 498              		.loc 1 175 0
 499 000e 1478     		ldrb	r4, [r2, #0]	@ zero_extendqisi2
 500 0010 11F8012B 		ldrb	r2, [r1], #1	@ zero_extendqisi2
 501              	.LVL35:
 502 0014 9442     		cmp	r4, r2
 503 0016 09D1     		bne	.L48
 504              	.L43:
 505              		.loc 1 174 0 discriminator 1
 506 0018 9D42     		cmp	r5, r3
 507 001a 1A46     		mov	r2, r3
 508 001c 03F10103 		add	r3, r3, #1
 509 0020 F5D8     		bhi	.L45
 510              		.loc 1 178 0
ARM GAS  /tmp/ccYiM4xv.s 			page 10


 511 0022 0878     		ldrb	r0, [r1, #0]	@ zero_extendqisi2
 512              	.LVL36:
 513 0024 60B9     		cbnz	r0, .L49
 514              	.LBB63:
 515              	.LBB64:
 516              		.loc 1 132 0
 517 0026 3760     		str	r7, [r6, #0]
 518              	.LVL37:
 519              	.L44:
 520              	.LBE64:
 521              	.LBE63:
 522              		.loc 1 182 0
 523 0028 F0BC     		pop	{r4, r5, r6, r7}
 524 002a 7047     		bx	lr
 525              	.LVL38:
 526              	.L48:
 527              	.LBB65:
 528              	.LBB66:
 529              		.loc 1 159 0
 530 002c 0B48     		ldr	r0, .L50+8
 531              	.LVL39:
 532              		.loc 1 160 0
 533 002e 0C49     		ldr	r1, .L50+12
 534              	.LVL40:
 535              		.loc 1 161 0
 536 0030 0C4A     		ldr	r2, .L50+16
 537              		.loc 1 159 0
 538 0032 0123     		movs	r3, #1
 539 0034 0370     		strb	r3, [r0, #0]
 540              		.loc 1 160 0
 541 0036 0B70     		strb	r3, [r1, #0]
 542              	.LBE66:
 543              	.LBE65:
 544              		.loc 1 176 0
 545 0038 1846     		mov	r0, r3
 546              	.LBB68:
 547              	.LBB67:
 548              		.loc 1 161 0
 549 003a C2F800C0 		str	ip, [r2, #0]
 550              	.LBE67:
 551              	.LBE68:
 552              		.loc 1 176 0
 553 003e F3E7     		b	.L44
 554              	.LVL41:
 555              	.L49:
 556              	.LBB69:
 557              	.LBB70:
 558              		.loc 1 159 0
 559 0040 0649     		ldr	r1, .L50+8
 560              	.LVL42:
 561              		.loc 1 160 0
 562 0042 074A     		ldr	r2, .L50+12
 563              		.loc 1 161 0
 564 0044 074B     		ldr	r3, .L50+16
 565              		.loc 1 159 0
 566 0046 0120     		movs	r0, #1
 567 0048 0870     		strb	r0, [r1, #0]
ARM GAS  /tmp/ccYiM4xv.s 			page 11


 568              		.loc 1 160 0
 569 004a 1070     		strb	r0, [r2, #0]
 570              		.loc 1 161 0
 571 004c C3F800C0 		str	ip, [r3, #0]
 572              	.LBE70:
 573              	.LBE69:
 574              		.loc 1 179 0
 575 0050 EAE7     		b	.L44
 576              	.L51:
 577 0052 00BF     		.align	2
 578              	.L50:
 579 0054 00000000 		.word	.LANCHOR2
 580 0058 00000000 		.word	.LANCHOR6
 581 005c 00000000 		.word	.LANCHOR3
 582 0060 00000000 		.word	.LANCHOR4
 583 0064 00000000 		.word	.LANCHOR5
 584              		.cfi_endproc
 585              	.LFE126:
 586              		.size	_test_assert_sequence, .-_test_assert_sequence
 587 0068 AFF30080 		.section	.text._test_assert_time_window,"ax",%progbits
 587      AFF30080 
 588              		.align	2
 589              		.p2align 4,,15
 590              		.global	_test_assert_time_window
 591              		.thumb
 592              		.thumb_func
 593              		.type	_test_assert_time_window, %function
 594              	_test_assert_time_window:
 595              	.LFB127:
 596              		.loc 1 184 0
 597              		.cfi_startproc
 598              		@ args = 0, pretend = 0, frame = 0
 599              		@ frame_needed = 0, uses_anonymous_args = 0
 600              	.LVL43:
 601 0000 10B5     		push	{r4, lr}
 602              	.LCFI8:
 603              		.cfi_def_cfa_offset 8
 604              		.cfi_offset 4, -8
 605              		.cfi_offset 14, -4
 606              		.loc 1 184 0
 607 0002 0446     		mov	r4, r0
 608              		.loc 1 186 0
 609 0004 0846     		mov	r0, r1
 610              	.LVL44:
 611 0006 1146     		mov	r1, r2
 612              	.LVL45:
 613 0008 FFF7FEFF 		bl	chTimeIsWithin
 614              	.LVL46:
 615              	.LBB71:
 616              	.LBB72:
 617              		.loc 1 167 0
 618 000c 40B9     		cbnz	r0, .L54
 619              	.LVL47:
 620              	.LBB73:
 621              	.LBB74:
 622              		.loc 1 159 0
 623 000e 0548     		ldr	r0, .L55
ARM GAS  /tmp/ccYiM4xv.s 			page 12


 624              	.LVL48:
 625              		.loc 1 160 0
 626 0010 0549     		ldr	r1, .L55+4
 627              		.loc 1 161 0
 628 0012 064A     		ldr	r2, .L55+8
 629              		.loc 1 159 0
 630 0014 0123     		movs	r3, #1
 631 0016 0370     		strb	r3, [r0, #0]
 632              		.loc 1 160 0
 633 0018 0B70     		strb	r3, [r1, #0]
 634              		.loc 1 168 0
 635 001a 1846     		mov	r0, r3
 636              		.loc 1 161 0
 637 001c 1460     		str	r4, [r2, #0]
 638 001e 10BD     		pop	{r4, pc}
 639              	.LVL49:
 640              	.L54:
 641              	.LBE74:
 642              	.LBE73:
 643              		.loc 1 169 0
 644 0020 0020     		movs	r0, #0
 645              	.LVL50:
 646              	.LBE72:
 647              	.LBE71:
 648              		.loc 1 187 0
 649 0022 10BD     		pop	{r4, pc}
 650              	.L56:
 651              		.align	2
 652              	.L55:
 653 0024 00000000 		.word	.LANCHOR3
 654 0028 00000000 		.word	.LANCHOR4
 655 002c 00000000 		.word	.LANCHOR5
 656              		.cfi_endproc
 657              	.LFE127:
 658              		.size	_test_assert_time_window, .-_test_assert_time_window
 659              		.section	.text.test_terminate_threads,"ax",%progbits
 660              		.align	2
 661              		.p2align 4,,15
 662              		.global	test_terminate_threads
 663              		.thumb
 664              		.thumb_func
 665              		.type	test_terminate_threads, %function
 666              	test_terminate_threads:
 667              	.LFB128:
 668              		.loc 1 196 0
 669              		.cfi_startproc
 670              		@ args = 0, pretend = 0, frame = 0
 671              		@ frame_needed = 0, uses_anonymous_args = 0
 672              	.LVL51:
 673 0000 38B5     		push	{r3, r4, r5, lr}
 674              	.LCFI9:
 675              		.cfi_def_cfa_offset 16
 676              		.cfi_offset 3, -16
 677              		.cfi_offset 4, -12
 678              		.cfi_offset 5, -8
 679              		.cfi_offset 14, -4
 680              		.loc 1 196 0
ARM GAS  /tmp/ccYiM4xv.s 			page 13


 681 0002 064C     		ldr	r4, .L64
 682 0004 04F11405 		add	r5, r4, #20
 683              	.LVL52:
 684              	.L59:
 685              		.loc 1 200 0
 686 0008 54F8043F 		ldr	r3, [r4, #4]!
 687              		.loc 1 201 0
 688 000c 1846     		mov	r0, r3
 689              		.loc 1 200 0
 690 000e 0BB1     		cbz	r3, .L58
 691              		.loc 1 201 0
 692 0010 FFF7FEFF 		bl	chThdTerminate
 693              	.LVL53:
 694              	.L58:
 695              		.loc 1 199 0
 696 0014 AC42     		cmp	r4, r5
 697 0016 F7D1     		bne	.L59
 698              		.loc 1 202 0
 699 0018 38BD     		pop	{r3, r4, r5, pc}
 700              	.L65:
 701 001a 00BF     		.align	2
 702              	.L64:
 703 001c FCFFFFFF 		.word	.LANCHOR7-4
 704              		.cfi_endproc
 705              	.LFE128:
 706              		.size	test_terminate_threads, .-test_terminate_threads
 707              		.section	.text.test_wait_threads,"ax",%progbits
 708              		.align	2
 709              		.p2align 4,,15
 710              		.global	test_wait_threads
 711              		.thumb
 712              		.thumb_func
 713              		.type	test_wait_threads, %function
 714              	test_wait_threads:
 715              	.LFB129:
 716              		.loc 1 207 0
 717              		.cfi_startproc
 718              		@ args = 0, pretend = 0, frame = 0
 719              		@ frame_needed = 0, uses_anonymous_args = 0
 720              	.LVL54:
 721 0000 70B5     		push	{r4, r5, r6, lr}
 722              	.LCFI10:
 723              		.cfi_def_cfa_offset 16
 724              		.cfi_offset 4, -16
 725              		.cfi_offset 5, -12
 726              		.cfi_offset 6, -8
 727              		.cfi_offset 14, -4
 728 0002 074C     		ldr	r4, .L73
 729              		.loc 1 213 0
 730 0004 0026     		movs	r6, #0
 731              		.loc 1 207 0
 732 0006 04F11405 		add	r5, r4, #20
 733              	.LVL55:
 734              	.L68:
 735              		.loc 1 211 0
 736 000a 54F8043B 		ldr	r3, [r4], #4
 737              		.loc 1 212 0
ARM GAS  /tmp/ccYiM4xv.s 			page 14


 738 000e 1846     		mov	r0, r3
 739              		.loc 1 211 0
 740 0010 1BB1     		cbz	r3, .L67
 741              		.loc 1 212 0
 742 0012 FFF7FEFF 		bl	chThdWait
 743              	.LVL56:
 744              		.loc 1 213 0
 745 0016 44F8046C 		str	r6, [r4, #-4]
 746              	.L67:
 747              		.loc 1 210 0
 748 001a AC42     		cmp	r4, r5
 749 001c F5D1     		bne	.L68
 750              		.loc 1 215 0
 751 001e 70BD     		pop	{r4, r5, r6, pc}
 752              	.L74:
 753              		.align	2
 754              	.L73:
 755 0020 00000000 		.word	.LANCHOR7
 756              		.cfi_endproc
 757              	.LFE129:
 758              		.size	test_wait_threads, .-test_wait_threads
 759 0024 AFF30080 		.section	.text.test_cpu_pulse,"ax",%progbits
 759      AFF30080 
 759      AFF30080 
 760              		.align	2
 761              		.p2align 4,,15
 762              		.global	test_cpu_pulse
 763              		.thumb
 764              		.thumb_func
 765              		.type	test_cpu_pulse, %function
 766              	test_cpu_pulse:
 767              	.LFB130:
 768              		.loc 1 224 0
 769              		.cfi_startproc
 770              		@ args = 0, pretend = 0, frame = 0
 771              		@ frame_needed = 0, uses_anonymous_args = 0
 772              		@ link register save eliminated.
 773              	.LVL57:
 774              		.loc 1 227 0
 775 0000 154B     		ldr	r3, .L81
 776              		.loc 1 224 0
 777 0002 30B4     		push	{r4, r5}
 778              	.LCFI11:
 779              		.cfi_def_cfa_offset 8
 780              		.cfi_offset 4, -8
 781              		.cfi_offset 5, -4
 782              		.loc 1 227 0
 783 0004 9C69     		ldr	r4, [r3, #24]
 784              		.loc 1 228 0
 785 0006 4FF47A73 		mov	r3, #1000
 786 000a 03FB00F0 		mul	r0, r3, r0
 787              	.LVL58:
 788              		.loc 1 227 0
 789 000e 226A     		ldr	r2, [r4, #32]
 790              	.LVL59:
 791              		.loc 1 228 0
 792 0010 44F6D353 		movw	r3, #19923
ARM GAS  /tmp/ccYiM4xv.s 			page 15


 793 0014 A0F57A71 		sub	r1, r0, #1000
 794 0018 C1F26203 		movt	r3, 4194
 795 001c 501C     		adds	r0, r2, #1
 796 001e A3FB0153 		umull	r5, r3, r3, r1
 797 0022 00EB9311 		add	r1, r0, r3, lsr #6
 798              	.LVL60:
 799              	.L78:
 800              		.loc 1 235 0
 801 0026 8A42     		cmp	r2, r1
 802              		.loc 1 230 0
 803 0028 236A     		ldr	r3, [r4, #32]
 804              	.LVL61:
 805              		.loc 1 235 0
 806 002a 0AD2     		bcs	.L76
 807              		.loc 1 235 0 is_stmt 0 discriminator 1
 808 002c 8B42     		cmp	r3, r1
 809 002e 2CBF     		ite	cs
 810 0030 0020     		movcs	r0, #0
 811 0032 0120     		movcc	r0, #1
 812 0034 9342     		cmp	r3, r2
 813 0036 38BF     		it	cc
 814 0038 0020     		movcc	r0, #0
 815              		.loc 1 236 0 is_stmt 1 discriminator 1
 816 003a 0028     		cmp	r0, #0
 817 003c F3D1     		bne	.L78
 818              	.L80:
 819              		.loc 1 237 0
 820 003e 30BC     		pop	{r4, r5}
 821 0040 7047     		bx	lr
 822              	.L76:
 823              		.loc 1 236 0 discriminator 2
 824 0042 9342     		cmp	r3, r2
 825 0044 34BF     		ite	cc
 826 0046 0020     		movcc	r0, #0
 827 0048 0120     		movcs	r0, #1
 828 004a 8B42     		cmp	r3, r1
 829 004c 38BF     		it	cc
 830 004e 40F00100 		orrcc	r0, r0, #1
 831 0052 0028     		cmp	r0, #0
 832 0054 E7D1     		bne	.L78
 833 0056 F2E7     		b	.L80
 834              	.L82:
 835              		.align	2
 836              	.L81:
 837 0058 00000000 		.word	rlist
 838              		.cfi_endproc
 839              	.LFE130:
 840              		.size	test_cpu_pulse, .-test_cpu_pulse
 841 005c AFF30080 		.section	.text.test_wait_tick,"ax",%progbits
 842              		.align	2
 843              		.p2align 4,,15
 844              		.global	test_wait_tick
 845              		.thumb
 846              		.thumb_func
 847              		.type	test_wait_tick, %function
 848              	test_wait_tick:
 849              	.LFB131:
ARM GAS  /tmp/ccYiM4xv.s 			page 16


 850              		.loc 1 245 0
 851              		.cfi_startproc
 852              		@ args = 0, pretend = 0, frame = 0
 853              		@ frame_needed = 0, uses_anonymous_args = 0
 854 0000 08B5     		push	{r3, lr}
 855              	.LCFI12:
 856              		.cfi_def_cfa_offset 8
 857              		.cfi_offset 3, -8
 858              		.cfi_offset 14, -4
 859              		.loc 1 247 0
 860 0002 0120     		movs	r0, #1
 861 0004 FFF7FEFF 		bl	chThdSleep
 862              	.LVL62:
 863              		.loc 1 248 0
 864 0008 40F20003 		movw	r3, #:lower16:vtlist
 865 000c C0F20003 		movt	r3, #:upper16:vtlist
 866 0010 D868     		ldr	r0, [r3, #12]
 867              		.loc 1 249 0
 868 0012 08BD     		pop	{r3, pc}
 869              		.cfi_endproc
 870              	.LFE131:
 871              		.size	test_wait_tick, .-test_wait_tick
 872 0014 AFF30080 		.section	.text.test_start_timer,"ax",%progbits
 872      AFF30080 
 872      AFF30080 
 873              		.align	2
 874              		.p2align 4,,15
 875              		.global	test_start_timer
 876              		.thumb
 877              		.thumb_func
 878              		.type	test_start_timer, %function
 879              	test_start_timer:
 880              	.LFB133:
 881              		.loc 1 272 0
 882              		.cfi_startproc
 883              		@ args = 0, pretend = 0, frame = 0
 884              		@ frame_needed = 0, uses_anonymous_args = 0
 885              	.LVL63:
 886              		.loc 1 275 0
 887 0000 40F20003 		movw	r3, #:lower16:.LANCHOR0
 888 0004 C0F20003 		movt	r3, #:upper16:.LANCHOR0
 889              		.loc 1 272 0
 890 0008 10B5     		push	{r4, lr}
 891              	.LCFI13:
 892              		.cfi_def_cfa_offset 8
 893              		.cfi_offset 4, -8
 894              		.cfi_offset 14, -4
 895              		.loc 1 275 0
 896 000a 0024     		movs	r4, #0
 897              	.LVL64:
 898 000c 1C70     		strb	r4, [r3, #0]
 899              	.LBB75:
 900              		.loc 1 276 0
 901 000e 2023     		movs	r3, #32
 902              	.LVL65:
 903              	@ 276 "/home/felix/Documents/ChibiOS/test/test.c" 1
 904 0010 83F31188 		msr     BASEPRI, r3
ARM GAS  /tmp/ccYiM4xv.s 			page 17


 905              	@ 0 "" 2
 906              	.LVL66:
 907              		.thumb
 908              	.LBE75:
 909              		.loc 1 274 0
 910 0014 4FF47A73 		mov	r3, #1000
 911              	.LVL67:
 912 0018 03FB00F0 		mul	r0, r3, r0
 913              	.LVL68:
 914 001c 44F6D353 		movw	r3, #19923
 915 0020 A0F57A70 		sub	r0, r0, #1000
 916 0024 C1F26203 		movt	r3, 4194
 917 0028 A3FB0023 		umull	r2, r3, r3, r0
 918 002c 9909     		lsrs	r1, r3, #6
 919              		.loc 1 276 0
 920 002e 40F20000 		movw	r0, #:lower16:.LANCHOR8
 921 0032 40F20002 		movw	r2, #:lower16:tmr
 922 0036 2346     		mov	r3, r4
 923 0038 0131     		adds	r1, r1, #1
 924 003a C0F20000 		movt	r0, #:upper16:.LANCHOR8
 925 003e C0F20002 		movt	r2, #:upper16:tmr
 926 0042 FFF7FEFF 		bl	chVTSetI
 927              	.LVL69:
 928              	.LBB76:
 929 0046 2346     		mov	r3, r4
 930              	.LVL70:
 931              	@ 276 "/home/felix/Documents/ChibiOS/test/test.c" 1
 932 0048 83F31188 		msr     BASEPRI, r3
 933              	@ 0 "" 2
 934              	.LVL71:
 935              		.thumb
 936 004c 10BD     		pop	{r4, pc}
 937              	.LBE76:
 938              		.cfi_endproc
 939              	.LFE133:
 940              		.size	test_start_timer, .-test_start_timer
 941 004e 00BF     		.section	.text.TestThread,"ax",%progbits
 942              		.align	2
 943              		.p2align 4,,15
 944              		.global	TestThread
 945              		.thumb
 946              		.thumb_func
 947              		.type	TestThread, %function
 948              	TestThread:
 949              	.LFB136:
 950              		.loc 1 314 0
 951              		.cfi_startproc
 952              		@ args = 0, pretend = 0, frame = 8
 953              		@ frame_needed = 0, uses_anonymous_args = 0
 954              	.LVL72:
 955 0000 2DE9F04F 		push	{r4, r5, r6, r7, r8, r9, sl, fp, lr}
 956              	.LCFI14:
 957              		.cfi_def_cfa_offset 36
 958              		.cfi_offset 4, -36
 959              		.cfi_offset 5, -32
 960              		.cfi_offset 6, -28
 961              		.cfi_offset 7, -24
ARM GAS  /tmp/ccYiM4xv.s 			page 18


 962              		.cfi_offset 8, -20
 963              		.cfi_offset 9, -16
 964              		.cfi_offset 10, -12
 965              		.cfi_offset 11, -8
 966              		.cfi_offset 14, -4
 967              		.loc 1 317 0
 968 0004 994C     		ldr	r4, .L158
 969 0006 9A4D     		ldr	r5, .L158+4
 970 0008 2060     		str	r0, [r4, #0]
 971              		.loc 1 314 0
 972 000a 83B0     		sub	sp, sp, #12
 973              	.LCFI15:
 974              		.cfi_def_cfa_offset 48
 975              		.loc 1 318 0
 976 000c 9948     		ldr	r0, .L158+8
 977              	.LVL73:
 978 000e FFF7FEFF 		bl	test_println
 979              	.LVL74:
 980              		.loc 1 319 0
 981 0012 9948     		ldr	r0, .L158+12
 982 0014 FFF7FEFF 		bl	test_println
 983              	.LVL75:
 984              		.loc 1 320 0
 985 0018 9848     		ldr	r0, .L158+16
 986 001a FFF7FEFF 		bl	test_println
 987              	.LVL76:
 988              		.loc 1 112 0
 989 001e 2A21     		movs	r1, #42
 990              	.LVL77:
 991              	.L86:
 992              	.LBB113:
 993              	.LBB114:
 994              		.loc 1 113 0
 995 0020 2068     		ldr	r0, [r4, #0]
 996 0022 0368     		ldr	r3, [r0, #0]
 997 0024 9B68     		ldr	r3, [r3, #8]
 998 0026 9847     		blx	r3
 999              	.LVL78:
 1000              		.loc 1 112 0
 1001 0028 15F8011F 		ldrb	r1, [r5, #1]!	@ zero_extendqisi2
 1002 002c 0029     		cmp	r1, #0
 1003 002e F7D1     		bne	.L86
 1004              	.LBE114:
 1005              	.LBE113:
 1006              		.loc 1 322 0
 1007 0030 9348     		ldr	r0, .L158+20
 1008 0032 944D     		ldr	r5, .L158+24
 1009 0034 FFF7FEFF 		bl	test_println
 1010              	.LVL79:
 1011              		.loc 1 112 0
 1012 0038 2A21     		movs	r1, #42
 1013              	.LVL80:
 1014              	.L88:
 1015              	.LBB115:
 1016              	.LBB116:
 1017              		.loc 1 113 0
 1018 003a 2068     		ldr	r0, [r4, #0]
ARM GAS  /tmp/ccYiM4xv.s 			page 19


 1019 003c 0368     		ldr	r3, [r0, #0]
 1020 003e 9B68     		ldr	r3, [r3, #8]
 1021 0040 9847     		blx	r3
 1022              	.LVL81:
 1023              		.loc 1 112 0
 1024 0042 15F8011F 		ldrb	r1, [r5, #1]!	@ zero_extendqisi2
 1025 0046 0029     		cmp	r1, #0
 1026 0048 F7D1     		bne	.L88
 1027              	.LBE116:
 1028              	.LBE115:
 1029              		.loc 1 324 0
 1030 004a 8F48     		ldr	r0, .L158+28
 1031 004c 8F4D     		ldr	r5, .L158+32
 1032 004e FFF7FEFF 		bl	test_println
 1033              	.LVL82:
 1034              		.loc 1 112 0
 1035 0052 2A21     		movs	r1, #42
 1036              	.LVL83:
 1037              	.L90:
 1038              	.LBB117:
 1039              	.LBB118:
 1040              		.loc 1 113 0
 1041 0054 2068     		ldr	r0, [r4, #0]
 1042 0056 0368     		ldr	r3, [r0, #0]
 1043 0058 9B68     		ldr	r3, [r3, #8]
 1044 005a 9847     		blx	r3
 1045              	.LVL84:
 1046              		.loc 1 112 0
 1047 005c 15F8011F 		ldrb	r1, [r5, #1]!	@ zero_extendqisi2
 1048 0060 0029     		cmp	r1, #0
 1049 0062 F7D1     		bne	.L90
 1050              	.LBE118:
 1051              	.LBE117:
 1052              		.loc 1 327 0
 1053 0064 8A48     		ldr	r0, .L158+36
 1054 0066 8B4D     		ldr	r5, .L158+40
 1055 0068 FFF7FEFF 		bl	test_println
 1056              	.LVL85:
 1057              		.loc 1 112 0
 1058 006c 2A21     		movs	r1, #42
 1059              	.LVL86:
 1060              	.L92:
 1061              	.LBB119:
 1062              	.LBB120:
 1063              		.loc 1 113 0
 1064 006e 2068     		ldr	r0, [r4, #0]
 1065 0070 0368     		ldr	r3, [r0, #0]
 1066 0072 9B68     		ldr	r3, [r3, #8]
 1067 0074 9847     		blx	r3
 1068              	.LVL87:
 1069              		.loc 1 112 0
 1070 0076 15F8011F 		ldrb	r1, [r5, #1]!	@ zero_extendqisi2
 1071 007a 0029     		cmp	r1, #0
 1072 007c F7D1     		bne	.L92
 1073              	.LBE120:
 1074              	.LBE119:
 1075              		.loc 1 330 0
ARM GAS  /tmp/ccYiM4xv.s 			page 20


 1076 007e 8648     		ldr	r0, .L158+44
 1077 0080 864D     		ldr	r5, .L158+48
 1078 0082 FFF7FEFF 		bl	test_println
 1079              	.LVL88:
 1080              		.loc 1 112 0
 1081 0086 2A21     		movs	r1, #42
 1082              	.LVL89:
 1083              	.L94:
 1084              	.LBB121:
 1085              	.LBB122:
 1086              		.loc 1 113 0
 1087 0088 2068     		ldr	r0, [r4, #0]
 1088 008a 0368     		ldr	r3, [r0, #0]
 1089 008c 9B68     		ldr	r3, [r3, #8]
 1090 008e 9847     		blx	r3
 1091              	.LVL90:
 1092              		.loc 1 112 0
 1093 0090 15F8011F 		ldrb	r1, [r5, #1]!	@ zero_extendqisi2
 1094 0094 0029     		cmp	r1, #0
 1095 0096 F7D1     		bne	.L94
 1096              	.LBE122:
 1097              	.LBE121:
 1098              		.loc 1 333 0
 1099 0098 8148     		ldr	r0, .L158+52
 1100 009a 824D     		ldr	r5, .L158+56
 1101 009c FFF7FEFF 		bl	test_println
 1102              	.LVL91:
 1103              		.loc 1 112 0
 1104 00a0 2A21     		movs	r1, #42
 1105              	.LVL92:
 1106              	.L96:
 1107              	.LBB123:
 1108              	.LBB124:
 1109              		.loc 1 113 0
 1110 00a2 2068     		ldr	r0, [r4, #0]
 1111 00a4 0368     		ldr	r3, [r0, #0]
 1112 00a6 9B68     		ldr	r3, [r3, #8]
 1113 00a8 9847     		blx	r3
 1114              	.LVL93:
 1115              		.loc 1 112 0
 1116 00aa 15F8011F 		ldrb	r1, [r5, #1]!	@ zero_extendqisi2
 1117 00ae 0029     		cmp	r1, #0
 1118 00b0 F7D1     		bne	.L96
 1119              	.LBE124:
 1120              	.LBE123:
 1121              		.loc 1 337 0
 1122 00b2 7D48     		ldr	r0, .L158+60
 1123 00b4 7D4D     		ldr	r5, .L158+64
 1124 00b6 FFF7FEFF 		bl	test_println
 1125              	.LVL94:
 1126              		.loc 1 112 0
 1127 00ba 2A21     		movs	r1, #42
 1128              	.LVL95:
 1129              	.L98:
 1130              	.LBB125:
 1131              	.LBB126:
 1132              		.loc 1 113 0
ARM GAS  /tmp/ccYiM4xv.s 			page 21


 1133 00bc 2068     		ldr	r0, [r4, #0]
 1134 00be 0368     		ldr	r3, [r0, #0]
 1135 00c0 9B68     		ldr	r3, [r3, #8]
 1136 00c2 9847     		blx	r3
 1137              	.LVL96:
 1138              		.loc 1 112 0
 1139 00c4 15F8011F 		ldrb	r1, [r5, #1]!	@ zero_extendqisi2
 1140 00c8 0029     		cmp	r1, #0
 1141 00ca F7D1     		bne	.L98
 1142              	.LBE126:
 1143              	.LBE125:
 1144              		.loc 1 341 0
 1145 00cc 7848     		ldr	r0, .L158+68
 1146 00ce 794D     		ldr	r5, .L158+72
 1147 00d0 FFF7FEFF 		bl	test_println
 1148              	.LVL97:
 1149              		.loc 1 112 0
 1150 00d4 2A21     		movs	r1, #42
 1151              	.LVL98:
 1152              	.L100:
 1153              	.LBB127:
 1154              	.LBB128:
 1155              		.loc 1 113 0
 1156 00d6 2068     		ldr	r0, [r4, #0]
 1157 00d8 0368     		ldr	r3, [r0, #0]
 1158 00da 9B68     		ldr	r3, [r3, #8]
 1159 00dc 9847     		blx	r3
 1160              	.LVL99:
 1161              		.loc 1 112 0
 1162 00de 15F8011F 		ldrb	r1, [r5, #1]!	@ zero_extendqisi2
 1163 00e2 0029     		cmp	r1, #0
 1164 00e4 F7D1     		bne	.L100
 1165 00e6 744A     		ldr	r2, .L158+76
 1166              	.LBE128:
 1167              	.LBE127:
 1168              		.loc 1 345 0
 1169 00e8 7448     		ldr	r0, .L158+80
 1170 00ea 0091     		str	r1, [sp, #0]
 1171 00ec 0192     		str	r2, [sp, #4]
 1172 00ee FFF7FEFF 		bl	test_println
 1173              	.LVL100:
 1174              		.loc 1 347 0
 1175 00f2 6048     		ldr	r0, .L158+8
 1176              	.LBB129:
 1177              	.LBB130:
 1178              	.LBB131:
 1179              	.LBB132:
 1180              		.loc 1 132 0
 1181 00f4 724F     		ldr	r7, .L158+84
 1182 00f6 DFF800A2 		ldr	sl, .L158+140
 1183              	.LBE132:
 1184              	.LBE131:
 1185              	.LBE130:
 1186              	.LBE129:
 1187              		.loc 1 347 0
 1188 00fa FFF7FEFF 		bl	test_println
 1189              	.LVL101:
ARM GAS  /tmp/ccYiM4xv.s 			page 22


 1190              		.loc 1 349 0
 1191 00fe 40F20003 		movw	r3, #:lower16:.LANCHOR4
 1192              		.loc 1 350 0
 1193 0102 0099     		ldr	r1, [sp, #0]
 1194              		.loc 1 349 0
 1195 0104 C0F20003 		movt	r3, #:upper16:.LANCHOR4
 1196              		.loc 1 350 0
 1197 0108 8B46     		mov	fp, r1
 1198              		.loc 1 349 0
 1199 010a 1970     		strb	r1, [r3, #0]
 1200              	.LVL102:
 1201 010c 6D4B     		ldr	r3, .L158+88
 1202              	.LVL103:
 1203              	.L125:
 1204 010e 0BF1010B 		add	fp, fp, #1
 1205 0112 9846     		mov	r8, r3
 1206              		.loc 1 112 0 discriminator 1
 1207 0114 4FF00009 		mov	r9, #0
 1208              	.L154:
 1209              	.LVL104:
 1210              		.loc 1 353 0 discriminator 1
 1211 0118 58F8043B 		ldr	r3, [r8], #4
 1212 011c 002B     		cmp	r3, #0
 1213 011e 00F08380 		beq	.L156
 1214              	.L119:
 1215 0122 694D     		ldr	r5, .L158+92
 1216              		.loc 1 354 0
 1217 0124 FFF7FEFF 		bl	print_line
 1218              	.LVL105:
 1219              		.loc 1 112 0
 1220 0128 2D21     		movs	r1, #45
 1221              	.LVL106:
 1222              	.L102:
 1223              	.LBB138:
 1224              	.LBB139:
 1225              		.loc 1 113 0
 1226 012a 2068     		ldr	r0, [r4, #0]
 1227 012c 4F4E     		ldr	r6, .L158
 1228 012e 0368     		ldr	r3, [r0, #0]
 1229 0130 9B68     		ldr	r3, [r3, #8]
 1230 0132 9847     		blx	r3
 1231              	.LVL107:
 1232              		.loc 1 112 0
 1233 0134 15F8011F 		ldrb	r1, [r5, #1]!	@ zero_extendqisi2
 1234 0138 0029     		cmp	r1, #0
 1235 013a F6D1     		bne	.L102
 1236              	.LBE139:
 1237              	.LBE138:
 1238              		.loc 1 356 0
 1239 013c 5846     		mov	r0, fp
 1240 013e FFF7FEFF 		bl	test_printn
 1241              	.LVL108:
 1242              	.LBB140:
 1243              	.LBB141:
 1244              		.loc 1 113 0
 1245 0142 3068     		ldr	r0, [r6, #0]
 1246              	.LVL109:
ARM GAS  /tmp/ccYiM4xv.s 			page 23


 1247 0144 614D     		ldr	r5, .L158+96
 1248 0146 0368     		ldr	r3, [r0, #0]
 1249 0148 2E21     		movs	r1, #46
 1250 014a 9B68     		ldr	r3, [r3, #8]
 1251              	.LBE141:
 1252              	.LBE140:
 1253              		.loc 1 358 0
 1254 014c 09F10109 		add	r9, r9, #1
 1255              	.LVL110:
 1256              	.LBB143:
 1257              	.LBB142:
 1258              		.loc 1 113 0
 1259 0150 9847     		blx	r3
 1260              	.LVL111:
 1261              	.LBE142:
 1262              	.LBE143:
 1263              		.loc 1 358 0
 1264 0152 4846     		mov	r0, r9
 1265 0154 FFF7FEFF 		bl	test_printn
 1266              	.LVL112:
 1267              		.loc 1 112 0
 1268 0158 2021     		movs	r1, #32
 1269              	.LVL113:
 1270              	.L104:
 1271              	.LBB144:
 1272              	.LBB145:
 1273              		.loc 1 113 0
 1274 015a 2068     		ldr	r0, [r4, #0]
 1275 015c 0368     		ldr	r3, [r0, #0]
 1276 015e 9B68     		ldr	r3, [r3, #8]
 1277 0160 9847     		blx	r3
 1278              	.LVL114:
 1279              		.loc 1 112 0
 1280 0162 15F8011F 		ldrb	r1, [r5, #1]!	@ zero_extendqisi2
 1281 0166 0029     		cmp	r1, #0
 1282 0168 F7D1     		bne	.L104
 1283              	.LBE145:
 1284              	.LBE144:
 1285              		.loc 1 360 0
 1286 016a 58F8043C 		ldr	r3, [r8, #-4]
 1287 016e 1D68     		ldr	r5, [r3, #0]
 1288              	.LVL115:
 1289              	.LBB146:
 1290              	.LBB147:
 1291              		.loc 1 112 0
 1292 0170 2978     		ldrb	r1, [r5, #0]	@ zero_extendqisi2
 1293 0172 39B1     		cbz	r1, .L109
 1294              	.LVL116:
 1295              	.L108:
 1296              		.loc 1 113 0
 1297 0174 2068     		ldr	r0, [r4, #0]
 1298 0176 0368     		ldr	r3, [r0, #0]
 1299 0178 9B68     		ldr	r3, [r3, #8]
 1300 017a 9847     		blx	r3
 1301              	.LVL117:
 1302              		.loc 1 112 0
 1303 017c 15F8011F 		ldrb	r1, [r5, #1]!	@ zero_extendqisi2
ARM GAS  /tmp/ccYiM4xv.s 			page 24


 1304 0180 0029     		cmp	r1, #0
 1305 0182 F7D1     		bne	.L108
 1306              	.L109:
 1307              	.LBE147:
 1308              	.LBE146:
 1309              		.loc 1 361 0
 1310 0184 5248     		ldr	r0, .L158+100
 1311              	.LBB148:
 1312              	.LBB135:
 1313              		.loc 1 287 0
 1314 0186 534D     		ldr	r5, .L158+104
 1315              	.LBE135:
 1316              	.LBE148:
 1317              		.loc 1 361 0
 1318 0188 FFF7FEFF 		bl	test_println
 1319              	.LVL118:
 1320              		.loc 1 363 0
 1321 018c C820     		movs	r0, #200
 1322 018e FFF7FEFF 		bl	chThdSleep
 1323              	.LVL119:
 1324              	.LBB149:
 1325              	.LBB136:
 1326              		.loc 1 289 0
 1327 0192 514A     		ldr	r2, .L158+108
 1328              	.LBE136:
 1329              	.LBE149:
 1330              		.loc 1 365 0
 1331 0194 58F8046C 		ldr	r6, [r8, #-4]
 1332              	.LVL120:
 1333              	.LBB150:
 1334              	.LBB137:
 1335              	.LBB134:
 1336              	.LBB133:
 1337              		.loc 1 132 0
 1338 0198 C7F800A0 		str	sl, [r7, #0]
 1339              	.LBE133:
 1340              	.LBE134:
 1341              		.loc 1 287 0
 1342 019c 0023     		movs	r3, #0
 1343              		.loc 1 289 0
 1344 019e 1360     		str	r3, [r2, #0]
 1345 01a0 5360     		str	r3, [r2, #4]
 1346 01a2 9360     		str	r3, [r2, #8]
 1347 01a4 D360     		str	r3, [r2, #12]
 1348 01a6 1361     		str	r3, [r2, #16]
 1349              		.loc 1 291 0
 1350 01a8 7268     		ldr	r2, [r6, #4]
 1351              		.loc 1 287 0
 1352 01aa 2B70     		strb	r3, [r5, #0]
 1353              	.LVL121:
 1354              		.loc 1 291 0
 1355 01ac 02B1     		cbz	r2, .L107
 1356              		.loc 1 292 0
 1357 01ae 9047     		blx	r2
 1358              	.LVL122:
 1359              	.L107:
 1360              		.loc 1 293 0
ARM GAS  /tmp/ccYiM4xv.s 			page 25


 1361 01b0 F368     		ldr	r3, [r6, #12]
 1362 01b2 9847     		blx	r3
 1363              	.LVL123:
 1364              		.loc 1 294 0
 1365 01b4 B368     		ldr	r3, [r6, #8]
 1366 01b6 03B1     		cbz	r3, .L110
 1367              		.loc 1 295 0
 1368 01b8 9847     		blx	r3
 1369              	.LVL124:
 1370              	.L110:
 1371              		.loc 1 297 0
 1372 01ba FFF7FEFF 		bl	test_wait_threads
 1373              	.LVL125:
 1374              	.LBE137:
 1375              	.LBE150:
 1376              		.loc 1 366 0
 1377 01be 2B78     		ldrb	r3, [r5, #0]	@ zero_extendqisi2
 1378 01c0 002B     		cmp	r3, #0
 1379 01c2 00F0A380 		beq	.L111
 1380 01c6 454D     		ldr	r5, .L158+112
 1381              		.loc 1 112 0
 1382 01c8 2D21     		movs	r1, #45
 1383              	.L112:
 1384              	.LBB151:
 1385              	.LBB152:
 1386              		.loc 1 113 0
 1387 01ca 2068     		ldr	r0, [r4, #0]
 1388              	.LVL126:
 1389 01cc 0368     		ldr	r3, [r0, #0]
 1390 01ce 9B68     		ldr	r3, [r3, #8]
 1391 01d0 9847     		blx	r3
 1392              	.LVL127:
 1393              		.loc 1 112 0
 1394 01d2 15F8011F 		ldrb	r1, [r5, #1]!	@ zero_extendqisi2
 1395 01d6 0029     		cmp	r1, #0
 1396 01d8 F7D1     		bne	.L112
 1397              	.LBE152:
 1398              	.LBE151:
 1399              		.loc 1 368 0
 1400 01da 414B     		ldr	r3, .L158+116
 1401 01dc 414D     		ldr	r5, .L158+120
 1402 01de 1868     		ldr	r0, [r3, #0]
 1403 01e0 FFF7FEFF 		bl	test_printn
 1404              	.LVL128:
 1405              		.loc 1 112 0
 1406 01e4 2021     		movs	r1, #32
 1407              	.LVL129:
 1408              	.L114:
 1409              	.LBB153:
 1410              	.LBB154:
 1411              		.loc 1 113 0
 1412 01e6 2068     		ldr	r0, [r4, #0]
 1413 01e8 0368     		ldr	r3, [r0, #0]
 1414 01ea 9B68     		ldr	r3, [r3, #8]
 1415 01ec 9847     		blx	r3
 1416              	.LVL130:
 1417              		.loc 1 112 0
ARM GAS  /tmp/ccYiM4xv.s 			page 26


 1418 01ee 15F8011F 		ldrb	r1, [r5, #1]!	@ zero_extendqisi2
 1419 01f2 0029     		cmp	r1, #0
 1420 01f4 F7D1     		bne	.L114
 1421              	.LVL131:
 1422              	.LBE154:
 1423              	.LBE153:
 1424              	.LBB155:
 1425              	.LBB156:
 1426              		.loc 1 138 0
 1427 01f6 3B68     		ldr	r3, [r7, #0]
 1428 01f8 5345     		cmp	r3, sl
 1429              	.LBE156:
 1430              	.LBE155:
 1431              		.loc 1 314 0
 1432 01fa 88BF     		it	hi
 1433 01fc 3A4D     		ldrhi	r5, .L158+124
 1434              	.LBB158:
 1435              	.LBB157:
 1436              		.loc 1 138 0
 1437 01fe 0BD9     		bls	.L118
 1438              	.LVL132:
 1439              	.L117:
 1440              		.loc 1 139 0
 1441 0200 2068     		ldr	r0, [r4, #0]
 1442 0202 15F8011C 		ldrb	r1, [r5, #-1]	@ zero_extendqisi2
 1443 0206 0368     		ldr	r3, [r0, #0]
 1444 0208 9B68     		ldr	r3, [r3, #8]
 1445 020a 9847     		blx	r3
 1446              	.LVL133:
 1447              		.loc 1 138 0
 1448 020c 3B68     		ldr	r3, [r7, #0]
 1449              		.loc 1 314 0
 1450 020e 2A46     		mov	r2, r5
 1451              	.LVL134:
 1452              		.loc 1 138 0
 1453 0210 9A42     		cmp	r2, r3
 1454 0212 05F10105 		add	r5, r5, #1
 1455 0216 F3D3     		bcc	.L117
 1456              	.LVL135:
 1457              	.L118:
 1458              	.LBE157:
 1459              	.LBE158:
 1460              		.loc 1 371 0
 1461 0218 3448     		ldr	r0, .L158+128
 1462 021a FFF7FEFF 		bl	test_println
 1463              	.LVL136:
 1464              		.loc 1 353 0
 1465 021e 58F8043B 		ldr	r3, [r8], #4
 1466 0222 002B     		cmp	r3, #0
 1467 0224 7FF47DAF 		bne	.L119
 1468              	.LVL137:
 1469              	.L156:
 1470              		.loc 1 351 0
 1471 0228 019A     		ldr	r2, [sp, #4]
 1472 022a 52F8043F 		ldr	r3, [r2, #4]!
 1473 022e 0192     		str	r2, [sp, #4]
 1474 0230 002B     		cmp	r3, #0
ARM GAS  /tmp/ccYiM4xv.s 			page 27


 1475 0232 7FF46CAF 		bne	.L125
 1476              		.loc 1 379 0
 1477 0236 FFF7FEFF 		bl	print_line
 1478              	.LVL138:
 1479 023a 2D4D     		ldr	r5, .L158+132
 1480              		.loc 1 380 0
 1481 023c 0D48     		ldr	r0, .L158+8
 1482 023e FFF7FEFF 		bl	test_println
 1483              	.LVL139:
 1484              		.loc 1 112 0
 1485 0242 4621     		movs	r1, #70
 1486              	.LVL140:
 1487              	.L122:
 1488              	.LBB159:
 1489              	.LBB160:
 1490              		.loc 1 113 0
 1491 0244 2068     		ldr	r0, [r4, #0]
 1492 0246 0368     		ldr	r3, [r0, #0]
 1493 0248 9B68     		ldr	r3, [r3, #8]
 1494 024a 9847     		blx	r3
 1495              	.LVL141:
 1496              		.loc 1 112 0
 1497 024c 15F8011F 		ldrb	r1, [r5, #1]!	@ zero_extendqisi2
 1498 0250 0029     		cmp	r1, #0
 1499 0252 F7D1     		bne	.L122
 1500              	.LBE160:
 1501              	.LBE159:
 1502              		.loc 1 382 0
 1503 0254 40F20002 		movw	r2, #:lower16:.LANCHOR4
 1504 0258 C0F20002 		movt	r2, #:upper16:.LANCHOR4
 1505 025c 1378     		ldrb	r3, [r2, #0]	@ zero_extendqisi2
 1506 025e 002B     		cmp	r3, #0
 1507 0260 58D1     		bne	.L157
 1508              		.loc 1 385 0
 1509 0262 2448     		ldr	r0, .L158+136
 1510 0264 FFF7FEFF 		bl	test_println
 1511              	.LVL142:
 1512 0268 48E0     		b	.L159
 1513              	.L160:
 1514 026a 00BF     		.align	2
 1515              	.L158:
 1516 026c 00000000 		.word	.LANCHOR1
 1517 0270 28000000 		.word	.LC4
 1518 0274 04000000 		.word	.LC1
 1519 0278 08000000 		.word	.LC2
 1520 027c 24000000 		.word	.LC3
 1521 0280 90000000 		.word	.LC12
 1522 0284 98000000 		.word	.LC13
 1523 0288 AC000000 		.word	.LC14
 1524 028c C4000000 		.word	.LC15
 1525 0290 D8000000 		.word	.LC16
 1526 0294 F8000000 		.word	.LC17
 1527 0298 0C010000 		.word	.LC18
 1528 029c 18010000 		.word	.LC19
 1529 02a0 2C010000 		.word	.LC20
 1530 02a4 38010000 		.word	.LC21
 1531 02a8 4C010000 		.word	.LC22
ARM GAS  /tmp/ccYiM4xv.s 			page 28


 1532 02ac 64010000 		.word	.LC23
 1533 02b0 78010000 		.word	.LC24
 1534 02b4 94010000 		.word	.LC25
 1535 02b8 00000000 		.word	.LANCHOR9
 1536 02bc A8010000 		.word	.LC26
 1537 02c0 00000000 		.word	.LANCHOR2
 1538 02c4 00000000 		.word	patternthd
 1539 02c8 3C000000 		.word	.LC5
 1540 02cc D0010000 		.word	.LC27
 1541 02d0 4C000000 		.word	.LC6
 1542 02d4 00000000 		.word	.LANCHOR3
 1543 02d8 00000000 		.word	.LANCHOR7
 1544 02dc 50000000 		.word	.LC7
 1545 02e0 00000000 		.word	.LANCHOR5
 1546 02e4 D4010000 		.word	.LC28
 1547 02e8 01000000 		.word	.LANCHOR6+1
 1548 02ec 68000000 		.word	.LC8
 1549 02f0 D8010000 		.word	.LC29
 1550 02f4 88000000 		.word	.LC11
 1551 02f8 00000000 		.word	.LANCHOR6
 1552              	.L159:
 1553              	.L124:
 1554              		.loc 1 387 0
 1555 02fc 40F20003 		movw	r3, #:lower16:.LANCHOR4
 1556 0300 C0F20003 		movt	r3, #:upper16:.LANCHOR4
 1557 0304 1878     		ldrb	r0, [r3, #0]	@ zero_extendqisi2
 1558              		.loc 1 388 0
 1559 0306 03B0     		add	sp, sp, #12
 1560 0308 BDE8F08F 		pop	{r4, r5, r6, r7, r8, r9, sl, fp, pc}
 1561              	.LVL143:
 1562              	.L111:
 1563              		.loc 1 374 0
 1564 030c 0348     		ldr	r0, .L161
 1565 030e FFF7FEFF 		bl	test_println
 1566              	.LVL144:
 1567 0312 01E7     		b	.L154
 1568              	.LVL145:
 1569              	.L157:
 1570              		.loc 1 383 0
 1571 0314 0248     		ldr	r0, .L161+4
 1572 0316 FFF7FEFF 		bl	test_println
 1573              	.LVL146:
 1574 031a EFE7     		b	.L124
 1575              	.L162:
 1576              		.align	2
 1577              	.L161:
 1578 031c 6C000000 		.word	.LC9
 1579 0320 80000000 		.word	.LC10
 1580              		.cfi_endproc
 1581              	.LFE136:
 1582              		.size	TestThread, .-TestThread
 1583              		.global	test_timer_done
 1584              		.global	wa
 1585              		.global	threads
 1586              		.global	test
 1587 0324 AFF30080 		.section	.bss.test,"aw",%nobits
 1587      AFF30080 
ARM GAS  /tmp/ccYiM4xv.s 			page 29


 1587      AFF30080 
 1588              		.align	3
 1589              		.type	test, %object
 1590              		.size	test, 1520
 1591              	test:
 1592 0000 00000000 		.space	1520
 1592      00000000 
 1592      00000000 
 1592      00000000 
 1592      00000000 
 1593              		.section	.bss.failpoint,"aw",%nobits
 1594              		.align	2
 1595              		.set	.LANCHOR5,. + 0
 1596              		.type	failpoint, %object
 1597              		.size	failpoint, 4
 1598              	failpoint:
 1599 0000 00000000 		.space	4
 1600              		.section	.bss.local_fail,"aw",%nobits
 1601              		.set	.LANCHOR3,. + 0
 1602              		.type	local_fail, %object
 1603              		.size	local_fail, 1
 1604              	local_fail:
 1605 0000 00       		.space	1
 1606              		.section	.bss.test_timer_done,"aw",%nobits
 1607              		.set	.LANCHOR0,. + 0
 1608              		.type	test_timer_done, %object
 1609              		.size	test_timer_done, 1
 1610              	test_timer_done:
 1611 0000 00       		.space	1
 1612              		.section	.rodata.wa,"a",%progbits
 1613              		.align	2
 1614              		.type	wa, %object
 1615              		.size	wa, 20
 1616              	wa:
 1617 0000 00000000 		.word	test
 1618 0004 30010000 		.word	test+304
 1619 0008 60020000 		.word	test+608
 1620 000c 90030000 		.word	test+912
 1621 0010 C0040000 		.word	test+1216
 1622              		.section	.bss.tokp,"aw",%nobits
 1623              		.align	2
 1624              		.set	.LANCHOR2,. + 0
 1625              		.type	tokp, %object
 1626              		.size	tokp, 4
 1627              	tokp:
 1628 0000 00000000 		.space	4
 1629              		.section	.bss.global_fail,"aw",%nobits
 1630              		.set	.LANCHOR4,. + 0
 1631              		.type	global_fail, %object
 1632              		.size	global_fail, 1
 1633              	global_fail:
 1634 0000 00       		.space	1
 1635              		.section	.rodata.str1.4,"aMS",%progbits,1
 1636              		.align	2
 1637              	.LC0:
 1638 0000 0D0A00   		.ascii	"\015\012\000"
 1639 0003 00       		.space	1
ARM GAS  /tmp/ccYiM4xv.s 			page 30


 1640              	.LC1:
 1641 0004 00       		.ascii	"\000"
 1642 0005 000000   		.space	3
 1643              	.LC2:
 1644 0008 2A2A2A20 		.ascii	"*** ChibiOS/RT test suite\000"
 1644      43686962 
 1644      694F532F 
 1644      52542074 
 1644      65737420 
 1645 0022 0000     		.space	2
 1646              	.LC3:
 1647 0024 2A2A2A00 		.ascii	"***\000"
 1648              	.LC4:
 1649 0028 2A2A2A20 		.ascii	"*** Kernel:       \000"
 1649      4B65726E 
 1649      656C3A20 
 1649      20202020 
 1649      202000
 1650 003b 00       		.space	1
 1651              	.LC5:
 1652 003c 2D2D2D20 		.ascii	"--- Test Case \000"
 1652      54657374 
 1652      20436173 
 1652      652000
 1653 004b 00       		.space	1
 1654              	.LC6:
 1655 004c 2900     		.ascii	")\000"
 1656 004e 0000     		.space	2
 1657              	.LC7:
 1658 0050 2D2D2D20 		.ascii	"--- Result: FAILURE (#\000"
 1658      52657375 
 1658      6C743A20 
 1658      4641494C 
 1658      55524520 
 1659 0067 00       		.space	1
 1660              	.LC8:
 1661 0068 5D2900   		.ascii	"])\000"
 1662 006b 00       		.space	1
 1663              	.LC9:
 1664 006c 2D2D2D20 		.ascii	"--- Result: SUCCESS\000"
 1664      52657375 
 1664      6C743A20 
 1664      53554343 
 1664      45535300 
 1665              	.LC10:
 1666 0080 4641494C 		.ascii	"FAILURE\000"
 1666      55524500 
 1667              	.LC11:
 1668 0088 53554343 		.ascii	"SUCCESS\000"
 1668      45535300 
 1669              	.LC12:
 1670 0090 322E362E 		.ascii	"2.6.0\000"
 1670      3000
 1671 0096 0000     		.space	2
 1672              	.LC13:
 1673 0098 2A2A2A20 		.ascii	"*** Compiled:     \000"
 1673      436F6D70 
ARM GAS  /tmp/ccYiM4xv.s 			page 31


 1673      696C6564 
 1673      3A202020 
 1673      202000
 1674 00ab 00       		.space	1
 1675              	.LC14:
 1676 00ac 4F637420 		.ascii	"Oct  6 2013 - 21:31:44\000"
 1676      20362032 
 1676      30313320 
 1676      2D203231 
 1676      3A33313A 
 1677 00c3 00       		.space	1
 1678              	.LC15:
 1679 00c4 2A2A2A20 		.ascii	"*** Compiler:     \000"
 1679      436F6D70 
 1679      696C6572 
 1679      3A202020 
 1679      202000
 1680 00d7 00       		.space	1
 1681              	.LC16:
 1682 00d8 47434320 		.ascii	"GCC 4.7.3 20121205 (prerelease)\000"
 1682      342E372E 
 1682      33203230 
 1682      31323132 
 1682      30352028 
 1683              	.LC17:
 1684 00f8 2A2A2A20 		.ascii	"*** Architecture: \000"
 1684      41726368 
 1684      69746563 
 1684      74757265 
 1684      3A2000
 1685 010b 00       		.space	1
 1686              	.LC18:
 1687 010c 41524D76 		.ascii	"ARMv7-ME\000"
 1687      372D4D45 
 1687      00
 1688 0115 000000   		.space	3
 1689              	.LC19:
 1690 0118 2A2A2A20 		.ascii	"*** Core Variant: \000"
 1690      436F7265 
 1690      20566172 
 1690      69616E74 
 1690      3A2000
 1691 012b 00       		.space	1
 1692              	.LC20:
 1693 012c 436F7274 		.ascii	"Cortex-M4\000"
 1693      65782D4D 
 1693      3400
 1694 0136 0000     		.space	2
 1695              	.LC21:
 1696 0138 2A2A2A20 		.ascii	"*** Port Info:    \000"
 1696      506F7274 
 1696      20496E66 
 1696      6F3A2020 
 1696      202000
 1697 014b 00       		.space	1
 1698              	.LC22:
 1699 014c 41647661 		.ascii	"Advanced kernel mode\000"
ARM GAS  /tmp/ccYiM4xv.s 			page 32


 1699      6E636564 
 1699      206B6572 
 1699      6E656C20 
 1699      6D6F6465 
 1700 0161 000000   		.space	3
 1701              	.LC23:
 1702 0164 2A2A2A20 		.ascii	"*** Platform:     \000"
 1702      506C6174 
 1702      666F726D 
 1702      3A202020 
 1702      202000
 1703 0177 00       		.space	1
 1704              	.LC24:
 1705 0178 53544D33 		.ascii	"STM32F4xx High Performance\000"
 1705      32463478 
 1705      78204869 
 1705      67682050 
 1705      6572666F 
 1706 0193 00       		.space	1
 1707              	.LC25:
 1708 0194 2A2A2A20 		.ascii	"*** Test Board:   \000"
 1708      54657374 
 1708      20426F61 
 1708      72643A20 
 1708      202000
 1709 01a7 00       		.space	1
 1710              	.LC26:
 1711 01a8 53544D69 		.ascii	"STMicroelectronics STM32F4-Discovery\000"
 1711      63726F65 
 1711      6C656374 
 1711      726F6E69 
 1711      63732053 
 1712 01cd 000000   		.space	3
 1713              	.LC27:
 1714 01d0 202800   		.ascii	" (\000"
 1715 01d3 00       		.space	1
 1716              	.LC28:
 1717 01d4 205B00   		.ascii	" [\000"
 1718 01d7 00       		.space	1
 1719              	.LC29:
 1720 01d8 46696E61 		.ascii	"Final result: \000"
 1720      6C207265 
 1720      73756C74 
 1720      3A2000
 1721 01e7 00       		.section	.bss.vt,"aw",%nobits
 1722              		.align	2
 1723              		.set	.LANCHOR8,. + 0
 1724              		.type	vt, %object
 1725              		.size	vt, 20
 1726              	vt:
 1727 0000 00000000 		.space	20
 1727      00000000 
 1727      00000000 
 1727      00000000 
 1727      00000000 
 1728              		.section	.bss.threads,"aw",%nobits
 1729              		.align	2
ARM GAS  /tmp/ccYiM4xv.s 			page 33


 1730              		.set	.LANCHOR7,. + 0
 1731              		.type	threads, %object
 1732              		.size	threads, 20
 1733              	threads:
 1734 0000 00000000 		.space	20
 1734      00000000 
 1734      00000000 
 1734      00000000 
 1734      00000000 
 1735              		.section	.rodata.patterns,"a",%progbits
 1736              		.align	2
 1737              		.set	.LANCHOR9,. + 0
 1738              		.type	patterns, %object
 1739              		.size	patterns, 48
 1740              	patterns:
 1741 0000 00000000 		.word	patternthd
 1742 0004 00000000 		.word	patternsem
 1743 0008 00000000 		.word	patternmtx
 1744 000c 00000000 		.word	patternmsg
 1745 0010 00000000 		.word	patternmbox
 1746 0014 00000000 		.word	patternevt
 1747 0018 00000000 		.word	patternheap
 1748 001c 00000000 		.word	patternpools
 1749 0020 00000000 		.word	patterndyn
 1750 0024 00000000 		.word	patternqueues
 1751 0028 00000000 		.word	patternbmk
 1752 002c 00000000 		.word	0
 1753              		.section	.bss.chp,"aw",%nobits
 1754              		.align	2
 1755              		.set	.LANCHOR1,. + 0
 1756              		.type	chp, %object
 1757              		.size	chp, 4
 1758              	chp:
 1759 0000 00000000 		.space	4
 1760              		.section	.bss.tokens_buffer,"aw",%nobits
 1761              		.align	2
 1762              		.set	.LANCHOR6,. + 0
 1763              		.type	tokens_buffer, %object
 1764              		.size	tokens_buffer, 16
 1765              	tokens_buffer:
 1766 0000 00000000 		.space	16
 1766      00000000 
 1766      00000000 
 1766      00000000 
 1767              		.text
 1768              	.Letext0:
 1769              		.file 2 "/opt/tools_arm/lib/gcc/arm-none-eabi/4.7.3/include/stddef.h"
 1770              		.file 3 "/opt/tools_arm/lib/gcc/arm-none-eabi/4.7.3/../../../../arm-none-eabi/include/stdint.h"
 1771              		.file 4 "/home/felix/Documents/ChibiOS/os/ports/GCC/ARMCMx/chtypes.h"
 1772              		.file 5 "/home/felix/Documents/ChibiOS/os/kernel/include/chlists.h"
 1773              		.file 6 "/home/felix/Documents/ChibiOS/os/kernel/include/chthreads.h"
 1774              		.file 7 "/home/felix/Documents/ChibiOS/os/ports/GCC/ARMCMx/chcore_v7m.h"
 1775              		.file 8 "/home/felix/Documents/ChibiOS/os/kernel/include/chvt.h"
 1776              		.file 9 "/home/felix/Documents/ChibiOS/os/kernel/include/chschd.h"
 1777              		.file 10 "/home/felix/Documents/ChibiOS/os/kernel/include/chmtx.h"
 1778              		.file 11 "/home/felix/Documents/ChibiOS/os/kernel/include/chstreams.h"
 1779              		.file 12 "/home/felix/Documents/ChibiOS/test/test.h"
ARM GAS  /tmp/ccYiM4xv.s 			page 34


 1780              		.file 13 "/home/felix/Documents/ChibiOS/os/ports/common/ARMCMx/CMSIS/include/core_cm4.h"
 1781              		.file 14 "/home/felix/Documents/ChibiOS/test/testthd.h"
 1782              		.file 15 "/home/felix/Documents/ChibiOS/test/testsem.h"
 1783              		.file 16 "/home/felix/Documents/ChibiOS/test/testmtx.h"
 1784              		.file 17 "/home/felix/Documents/ChibiOS/test/testmsg.h"
 1785              		.file 18 "/home/felix/Documents/ChibiOS/test/testmbox.h"
 1786              		.file 19 "/home/felix/Documents/ChibiOS/test/testevt.h"
 1787              		.file 20 "/home/felix/Documents/ChibiOS/test/testheap.h"
 1788              		.file 21 "/home/felix/Documents/ChibiOS/test/testpools.h"
 1789              		.file 22 "/home/felix/Documents/ChibiOS/test/testdyn.h"
 1790              		.file 23 "/home/felix/Documents/ChibiOS/test/testqueues.h"
 1791              		.file 24 "/home/felix/Documents/ChibiOS/test/testbmk.h"